(lp1
(lp2
(dp3
S'subset'
p4
I00
sS'level'
p5
S'task'
p6
sS'align'
p7
S'extend'
p8
sS'min_len'
p9
I1323
sS'dataset'
p10
S'A'
sS'max_len'
p11
I2123
sS'avg_len'
p12
I1736
sS'encode'
p13
S'FF'
p14
sS'accuracy'
p15
(dp16
S'poly_svc'
p17
(dp18
I2
F71.333333333333343
sI3
F68
sI4
F74.285714285714292
sI5
F75
sI6
F64
sI7
F72.5
sI8
F76.666666666666671
sI9
F70
sI10
F63.333333333333329
sI11
F70
sI12
F65
sI13
F75
sI14
F85
sI15
F75
sI16
F90
sI17
F70
sI18
F70
sI19
F60
sI20
F90
ssS'svc'
p19
(dp20
I2
F72.666666666666671
sI3
F64
sI4
F72.857142857142847
sI5
F73.333333333333329
sI6
F66
sI7
F65
sI8
F76.666666666666671
sI9
F70
sI10
F63.333333333333329
sI11
F70
sI12
F65
sI13
F80
sI14
F85
sI15
F70
sI16
F90
sI17
F70
sI18
F70
sI19
F60
sI20
F90
ssS'rbf_svc'
p21
(dp22
I2
F56.000000000000007
sI3
F51
sI4
F61.428571428571431
sI5
F51.666666666666671
sI6
F50
sI7
F57.499999999999993
sI8
F60
sI9
F60
sI10
F50
sI11
F40
sI12
F60
sI13
F50
sI14
F65
sI15
F55.000000000000007
sI16
F80
sI17
F60
sI18
F70
sI19
F40
sI20
F90
ssS'lin_svc'
p23
(dp24
I2
F72.666666666666671
sI3
F65
sI4
F72.857142857142847
sI5
F73.333333333333329
sI6
F66
sI7
F65
sI8
F76.666666666666671
sI9
F73.333333333333329
sI10
F63.333333333333329
sI11
F70
sI12
F65
sI13
F80
sI14
F85
sI15
F70
sI16
F90
sI17
F70
sI18
F70
sI19
F60
sI20
F90
sssa(dp25
g4
I00
sg5
g6
sg7
g8
sg9
I860
sg10
S'B'
sg11
I1995
sg12
I1245
sg13
g14
sg15
(dp26
S'poly_svc'
p27
(dp28
I2
F79.684210526315795
sI3
F80.476190476190482
sI4
F80.425531914893625
sI5
F77.89473684210526
sI6
F85.806451612903217
sI7
F83.703703703703695
sI8
F83.913043478260875
sI9
F82.857142857142861
sI10
F78.94736842105263
sI11
F83.529411764705884
sI12
F78.666666666666657
sI13
F80.714285714285722
sI14
F86.15384615384616
sI15
F83.333333333333343
sI16
F83.636363636363626
sI17
F84.545454545454547
sI18
F84
sI19
F86
sI20
F82.222222222222214
ssS'svc'
p29
(dp30
I2
F80
sI3
F80.158730158730165
sI4
F79.361702127659569
sI5
F78.421052631578945
sI6
F84.838709677419359
sI7
F84.074074074074076
sI8
F83.913043478260875
sI9
F82.38095238095238
sI10
F79.473684210526315
sI11
F84.705882352941174
sI12
F80
sI13
F81.428571428571431
sI14
F86.15384615384616
sI15
F83.333333333333343
sI16
F84.545454545454547
sI17
F84.545454545454547
sI18
F86
sI19
F86
sI20
F82.222222222222214
ssS'rbf_svc'
p31
(dp32
I2
F81.05263157894737
sI3
F80.793650793650798
sI4
F81.702127659574458
sI5
F77.89473684210526
sI6
F85.483870967741936
sI7
F84.444444444444443
sI8
F82.608695652173907
sI9
F80.476190476190482
sI10
F79.473684210526315
sI11
F82.941176470588246
sI12
F80
sI13
F80.714285714285722
sI14
F86.15384615384616
sI15
F83.333333333333343
sI16
F80
sI17
F83.636363636363626
sI18
F85
sI19
F86
sI20
F80
ssS'lin_svc'
p33
(dp34
I2
F79.15789473684211
sI3
F81.111111111111114
sI4
F78.297872340425528
sI5
F75.789473684210535
sI6
F82.903225806451601
sI7
F84.81481481481481
sI8
F77.391304347826079
sI9
F82.38095238095238
sI10
F77.89473684210526
sI11
F85.882352941176464
sI12
F77.333333333333329
sI13
F75
sI14
F81.538461538461533
sI15
F76.666666666666671
sI16
F83.636363636363626
sI17
F83.636363636363626
sI18
F83
sI19
F86
sI20
F77.777777777777786
sssa(dp35
g4
I00
sg5
g6
sg7
g8
sg9
I4397
sg10
S'C'
sg11
I16799
sg12
I6960
sg13
g14
sg15
(dp36
S'poly_svc'
p37
(dp38
I2
F77.5
sI3
F76
sI4
F77.5
sI5
F85
sI6
F72
sI7
F75
sI8
F82.5
sI9
F80
sI10
F83.333333333333343
sI11
F70
sI12
F70
sI13
F80
sI14
F75
sI15
F65
sI16
F80
sI17
F100
sI18
F70
sI19
F100
sI20
F40
ssS'svc'
p39
(dp40
I2
F98.75
sI3
F97
sI4
F97.5
sI5
F100
sI6
F100
sI7
F100
sI8
F100
sI9
F100
sI10
F100
sI11
F100
sI12
F100
sI13
F100
sI14
F100
sI15
F100
sI16
F100
sI17
F100
sI18
F100
sI19
F100
sI20
F100
ssS'rbf_svc'
p41
(dp42
I2
F77.5
sI3
F76
sI4
F77.5
sI5
F85
sI6
F72
sI7
F75
sI8
F82.5
sI9
F80
sI10
F83.333333333333343
sI11
F70
sI12
F70
sI13
F80
sI14
F75
sI15
F65
sI16
F80
sI17
F100
sI18
F70
sI19
F100
sI20
F40
ssS'lin_svc'
p43
(dp44
I2
F100
sI3
F100
sI4
F100
sI5
F100
sI6
F100
sI7
F100
sI8
F100
sI9
F100
sI10
F100
sI11
F100
sI12
F100
sI13
F100
sI14
F100
sI15
F100
sI16
F100
sI17
F100
sI18
F100
sI19
F100
sI20
F100
sssa(dp45
g4
I00
sg5
g6
sg7
g8
sg9
I1323
sg10
S'AC'
p46
sg11
I16799
sg12
I4389
sg13
g14
sg15
(dp47
S'poly_svc'
p48
(dp49
I2
F67.41935483870968
sI3
F69.523809523809518
sI4
F69.333333333333343
sI5
F75
sI6
F62
sI7
F67.777777777777786
sI8
F70
sI9
F67.142857142857139
sI10
F73.333333333333329
sI11
F52
sI12
F70
sI13
F70
sI14
F52.5
sI15
F75
sI16
F73.333333333333329
sI17
F63.333333333333329
sI18
F66.666666666666657
sI19
F63.333333333333329
sI20
F80
ssS'svc'
p50
(dp51
I2
F85.161290322580641
sI3
F86.19047619047619
sI4
F86.666666666666671
sI5
F91.666666666666657
sI6
F84
sI7
F82.222222222222214
sI8
F81.428571428571431
sI9
F87.142857142857139
sI10
F88.333333333333329
sI11
F78
sI12
F88
sI13
F85
sI14
F87.5
sI15
F92.5
sI16
F93.333333333333329
sI17
F86.666666666666671
sI18
F86.666666666666671
sI19
F93.333333333333329
sI20
F90
ssS'rbf_svc'
p52
(dp53
I2
F35.806451612903231
sI3
F34.285714285714285
sI4
F40.666666666666664
sI5
F46.666666666666664
sI6
F39
sI7
F46.666666666666664
sI8
F38.571428571428577
sI9
F34.285714285714285
sI10
F50
sI11
F38
sI12
F36
sI13
F42.5
sI14
F30
sI15
F32.5
sI16
F40
sI17
F26.666666666666668
sI18
F30
sI19
F53.333333333333336
sI20
F60
ssS'lin_svc'
p54
(dp55
I2
F86.774193548387103
sI3
F88.095238095238088
sI4
F89.333333333333329
sI5
F92.5
sI6
F85
sI7
F84.444444444444443
sI8
F81.428571428571431
sI9
F88.571428571428569
sI10
F88.333333333333329
sI11
F78
sI12
F88
sI13
F85
sI14
F87.5
sI15
F92.5
sI16
F96.666666666666671
sI17
F86.666666666666671
sI18
F86.666666666666671
sI19
F93.333333333333329
sI20
F90
sssa(dp56
g4
I00
sg5
g6
sg7
g8
sg9
I860
sg10
S'BC'
p57
sg11
I16799
sg12
I2068
sg13
g14
sg15
(dp58
S'poly_svc'
p59
(dp60
I2
F80.630630630630634
sI3
F83.378378378378386
sI4
F80.909090909090907
sI5
F82.045454545454547
sI6
F79.459459459459453
sI7
F83.225806451612911
sI8
F82.222222222222214
sI9
F80.833333333333329
sI10
F83.636363636363626
sI11
F80.5
sI12
F83.888888888888886
sI13
F80
sI14
F84
sI15
F85.714285714285708
sI16
F82.307692307692307
sI17
F80
sI18
F79.166666666666657
sI19
F79.090909090909093
sI20
F86.36363636363636
ssS'svc'
p61
(dp62
I2
F81.531531531531527
sI3
F83.513513513513516
sI4
F83.818181818181813
sI5
F84.77272727272728
sI6
F82.432432432432435
sI7
F85.161290322580641
sI8
F83.703703703703695
sI9
F80
sI10
F86.36363636363636
sI11
F81.5
sI12
F85
sI13
F84.705882352941174
sI14
F87.333333333333329
sI15
F92.142857142857139
sI16
F83.846153846153854
sI17
F80
sI18
F84.166666666666671
sI19
F82.727272727272734
sI20
F85.454545454545453
ssS'rbf_svc'
p63
(dp64
I2
F70.450450450450447
sI3
F69.189189189189193
sI4
F67.63636363636364
sI5
F70.681818181818173
sI6
F70.270270270270274
sI7
F73.225806451612911
sI8
F71.111111111111114
sI9
F69.583333333333329
sI10
F71.36363636363636
sI11
F71
sI12
F72.222222222222214
sI13
F67.64705882352942
sI14
F75.333333333333329
sI15
F76.428571428571416
sI16
F65.384615384615387
sI17
F70.769230769230774
sI18
F66.666666666666657
sI19
F61.818181818181813
sI20
F72.727272727272734
ssS'lin_svc'
p65
(dp66
I2
F81.351351351351354
sI3
F83.648648648648646
sI4
F85.454545454545453
sI5
F83.409090909090907
sI6
F80
sI7
F83.225806451612911
sI8
F84.444444444444443
sI9
F82.083333333333329
sI10
F85
sI11
F80.5
sI12
F84.444444444444443
sI13
F85.294117647058826
sI14
F86.666666666666671
sI15
F90
sI16
F83.846153846153854
sI17
F76.923076923076934
sI18
F83.333333333333343
sI19
F80
sI20
F79.090909090909093
sssa(dp67
g4
I00
sg5
g6
sg7
g8
sg9
I860
sg10
S'ABC'
p68
sg11
I16799
sg12
I2028
sg13
g14
sg15
(dp69
S'poly_svc'
p70
(dp71
I2
F78.253968253968253
sI3
F79.88095238095238
sI4
F79.047619047619051
sI5
F77.400000000000006
sI6
F78.333333333333329
sI7
F78.611111111111114
sI8
F76.774193548387089
sI9
F74.285714285714292
sI10
F78.400000000000006
sI11
F78.260869565217391
sI12
F74.761904761904759
sI13
F73.15789473684211
sI14
F85
sI15
F75.625
sI16
F71.333333333333343
sI17
F83.571428571428569
sI18
F79.285714285714278
sI19
F83.07692307692308
sI20
F82.5
ssS'svc'
p72
(dp73
I2
F81.19047619047619
sI3
F82.023809523809518
sI4
F83.968253968253975
sI5
F81.799999999999997
sI6
F84.285714285714292
sI7
F84.444444444444443
sI8
F81.290322580645153
sI9
F79.285714285714278
sI10
F81.599999999999994
sI11
F82.608695652173907
sI12
F79.047619047619051
sI13
F77.368421052631575
sI14
F85
sI15
F80.625
sI16
F80.666666666666657
sI17
F84.285714285714292
sI18
F85
sI19
F88.461538461538453
sI20
F88.333333333333329
ssS'rbf_svc'
p74
(dp75
I2
F61.031746031746039
sI3
F62.857142857142854
sI4
F61.904761904761905
sI5
F59.399999999999999
sI6
F61.666666666666671
sI7
F61.666666666666671
sI8
F59.032258064516128
sI9
F57.857142857142861
sI10
F64
sI11
F58.695652173913047
sI12
F61.428571428571431
sI13
F56.315789473684205
sI14
F65
sI15
F53.125
sI16
F52
sI17
F67.142857142857139
sI18
F63.571428571428569
sI19
F71.538461538461533
sI20
F62.5
ssS'lin_svc'
p76
(dp77
I2
F82.539682539682531
sI3
F83.095238095238102
sI4
F84.603174603174608
sI5
F80
sI6
F84.047619047619051
sI7
F83.888888888888886
sI8
F80.967741935483872
sI9
F79.642857142857139
sI10
F80.800000000000011
sI11
F82.173913043478265
sI12
F79.047619047619051
sI13
F76.84210526315789
sI14
F85
sI15
F80.625
sI16
F78.666666666666657
sI17
F80.714285714285722
sI18
F81.428571428571431
sI19
F83.07692307692308
sI20
F87.5
sssaa(lp78
(dp79
S'subset'
p80
I00
sS'level'
p81
S'behavior'
p82
sS'align'
p83
S'extend'
p84
sS'min_len'
p85
I500
sS'dataset'
p86
S'A'
sS'max_len'
p87
I915
sS'avg_len'
p88
I471
sS'encode'
p89
S'FF'
p90
sS'accuracy'
p91
(dp92
S'poly_svc'
p93
(dp94
I2
F35.63636363636364
sI3
F32.972972972972975
sI4
F31.481481481481481
sI5
F33.636363636363633
sI6
F30
sI7
F31.333333333333336
sI8
F26.923076923076923
sI9
F35.833333333333336
sI10
F26.36363636363636
sI11
F31
sI12
F33.333333333333329
sI13
F33.75
sI14
F40
sI15
F18.571428571428573
sI16
F25
sI17
F31.666666666666664
sI18
F31.666666666666664
sI19
F36
sI20
F30
ssS'svc'
p95
(dp96
I2
F34.36363636363636
sI3
F30.810810810810814
sI4
F36.296296296296298
sI5
F35.454545454545453
sI6
F35.555555555555557
sI7
F37.333333333333336
sI8
F30
sI9
F40.833333333333336
sI10
F24.545454545454547
sI11
F40
sI12
F38.888888888888893
sI13
F36.25
sI14
F48.571428571428569
sI15
F24.285714285714285
sI16
F31.666666666666664
sI17
F43.333333333333336
sI18
F31.666666666666664
sI19
F40
sI20
F36
ssS'rbf_svc'
p97
(dp98
I2
F17.272727272727273
sI3
F15.945945945945947
sI4
F15.555555555555555
sI5
F15
sI6
F12.222222222222221
sI7
F10
sI8
F12.307692307692308
sI9
F12.5
sI10
F13.636363636363635
sI11
F12
sI12
F14.444444444444443
sI13
F13.750000000000002
sI14
F27.142857142857142
sI15
F4.2857142857142856
sI16
F13.333333333333334
sI17
F11.666666666666666
sI18
F15
sI19
F20
sI20
F10
ssS'lin_svc'
p99
(dp100
I2
F44.727272727272727
sI3
F40
sI4
F41.481481481481481
sI5
F46.81818181818182
sI6
F45.555555555555557
sI7
F46.666666666666664
sI8
F35.384615384615387
sI9
F50
sI10
F35.454545454545453
sI11
F48
sI12
F42.222222222222221
sI13
F43.75
sI14
F50
sI15
F42.857142857142854
sI16
F45
sI17
F41.666666666666671
sI18
F33.333333333333329
sI19
F48
sI20
F38
sssa(dp101
g80
I00
sg81
g82
sg83
g84
sg85
I500
sg86
S'B'
sg87
I1995
sg88
I620
sg89
g90
sg91
(dp102
S'poly_svc'
p103
(dp104
I2
F80.631578947368425
sI3
F78.897637795275585
sI4
F78.84210526315789
sI5
F80.921052631578945
sI6
F81.904761904761898
sI7
F81.481481481481481
sI8
F81.489361702127667
sI9
F80.952380952380949
sI10
F81.578947368421055
sI11
F81.17647058823529
sI12
F80.967741935483872
sI13
F81.379310344827587
sI14
F83.333333333333343
sI15
F83.200000000000003
sI16
F81.304347826086953
sI17
F83.181818181818173
sI18
F75.714285714285708
sI19
F75
sI20
F84.210526315789465
ssS'svc'
p105
(dp106
I2
F72.73684210526315
sI3
F74.409448818897644
sI4
F72.94736842105263
sI5
F75.526315789473685
sI6
F76.031746031746025
sI7
F76.111111111111114
sI8
F75.531914893617028
sI9
F76.666666666666671
sI10
F76.31578947368422
sI11
F77.352941176470594
sI12
F77.741935483870975
sI13
F77.931034482758619
sI14
F76.666666666666671
sI15
F80
sI16
F79.565217391304344
sI17
F80
sI18
F73.80952380952381
sI19
F71.5
sI20
F76.84210526315789
ssS'rbf_svc'
p107
(dp108
I2
F45.210526315789473
sI3
F45.590551181102363
sI4
F46.421052631578945
sI5
F46.315789473684212
sI6
F47.142857142857139
sI7
F47.962962962962962
sI8
F49.148936170212764
sI9
F49.761904761904759
sI10
F47.368421052631575
sI11
F47.352941176470587
sI12
F46.451612903225808
sI13
F43.793103448275858
sI14
F48.148148148148145
sI15
F45.600000000000001
sI16
F46.086956521739133
sI17
F45
sI18
F44.285714285714285
sI19
F46
sI20
F50
ssS'lin_svc'
p109
(dp110
I2
F73.631578947368425
sI3
F74.803149606299215
sI4
F74.10526315789474
sI5
F75.39473684210526
sI6
F77.777777777777786
sI7
F75.555555555555557
sI8
F77.021276595744681
sI9
F76.904761904761912
sI10
F77.368421052631575
sI11
F77.941176470588232
sI12
F79.032258064516128
sI13
F79.65517241379311
sI14
F77.407407407407405
sI15
F78.799999999999997
sI16
F77.391304347826079
sI17
F80.454545454545453
sI18
F74.761904761904759
sI19
F71.5
sI20
F78.421052631578945
sssa(dp111
g80
I00
sg81
g82
sg83
g84
sg85
I500
sg86
S'C'
sg87
I14446
sg88
I2162
sg89
g90
sg91
(dp112
S'poly_svc'
p113
(dp114
I2
F22.352941176470591
sI3
F22.352941176470591
sI4
F23.200000000000003
sI5
F18
sI6
F21.176470588235293
sI7
F15.714285714285714
sI8
F20.833333333333336
sI9
F12.727272727272727
sI10
F19
sI11
F16.666666666666664
sI12
F15
sI13
F15.714285714285714
sI14
F14.285714285714285
sI15
F11.666666666666666
sI16
F10
sI17
F16.666666666666664
sI18
F18
sI19
F20
sI20
F12
ssS'svc'
p115
(dp116
I2
F78.235294117647058
sI3
F81.17647058823529
sI4
F85.200000000000003
sI5
F82.5
sI6
F85.882352941176464
sI7
F82.142857142857139
sI8
F85
sI9
F88.181818181818187
sI10
F85
sI11
F87.777777777777771
sI12
F85
sI13
F90
sI14
F77.142857142857153
sI15
F91.666666666666657
sI16
F93.333333333333329
sI17
F85
sI18
F86
sI19
F82
sI20
F88
ssS'rbf_svc'
p117
(dp118
I2
F23.137254901960784
sI3
F26.176470588235297
sI4
F26
sI5
F20.5
sI6
F26.47058823529412
sI7
F19.285714285714288
sI8
F25.833333333333336
sI9
F14.545454545454545
sI10
F25
sI11
F23.333333333333332
sI12
F21.25
sI13
F17.142857142857142
sI14
F15.714285714285714
sI15
F20
sI16
F15
sI17
F18.333333333333332
sI18
F14.000000000000002
sI19
F22
sI20
F12
ssS'lin_svc'
p119
(dp120
I2
F77.450980392156865
sI3
F77.941176470588232
sI4
F83.200000000000003
sI5
F81
sI6
F79.411764705882348
sI7
F80.714285714285722
sI8
F82.5
sI9
F83.636363636363626
sI10
F79
sI11
F76.666666666666671
sI12
F83.75
sI13
F80
sI14
F71.428571428571431
sI15
F83.333333333333343
sI16
F90
sI17
F83.333333333333343
sI18
F82
sI19
F82
sI20
F88
sssa(dp121
g80
I00
sg81
g82
sg83
g84
sg85
I500
sg86
S'AC'
p122
sg87
I14446
sg88
I1285
sg89
g90
sg91
(dp123
S'poly_svc'
p124
(dp125
I2
F16.542056074766357
sI3
F17.464788732394364
sI4
F18.679245283018865
sI5
F19.523809523809526
sI6
F17.142857142857142
sI7
F17.666666666666668
sI8
F16.923076923076923
sI9
F20
sI10
F17.142857142857142
sI11
F15.263157894736842
sI12
F16.470588235294116
sI13
F16.875
sI14
F12
sI15
F14.285714285714285
sI16
F22.30769230769231
sI17
F12.5
sI18
F15.454545454545453
sI19
F10
sI20
F15
ssS'svc'
p126
(dp127
I2
F49.158878504672899
sI3
F55.633802816901415
sI4
F58.301886792452827
sI5
F57.142857142857139
sI6
F55.142857142857139
sI7
F61.333333333333329
sI8
F60.38461538461538
sI9
F57.391304347826086
sI10
F62.857142857142854
sI11
F64.21052631578948
sI12
F57.647058823529406
sI13
F53.75
sI14
F58.666666666666664
sI15
F59.285714285714285
sI16
F64.615384615384613
sI17
F51.666666666666671
sI18
F63.636363636363633
sI19
F58.18181818181818
sI20
F59
ssS'rbf_svc'
p128
(dp129
I2
F12.429906542056075
sI3
F13.661971830985916
sI4
F12.452830188679245
sI5
F14.285714285714285
sI6
F14.000000000000002
sI7
F13.666666666666666
sI8
F13.461538461538462
sI9
F9.1304347826086953
sI10
F10
sI11
F8.9473684210526319
sI12
F14.117647058823529
sI13
F10.625
sI14
F10
sI15
F14.285714285714285
sI16
F12.307692307692308
sI17
F9.1666666666666661
sI18
F14.545454545454545
sI19
F9.0909090909090917
sI20
F8
ssS'lin_svc'
p130
(dp131
I2
F51.495327102803735
sI3
F54.7887323943662
sI4
F58.490566037735846
sI5
F55.476190476190482
sI6
F57.428571428571431
sI7
F60.666666666666671
sI8
F57.307692307692307
sI9
F54.782608695652172
sI10
F59.523809523809526
sI11
F64.736842105263165
sI12
F60
sI13
F56.875
sI14
F52.666666666666664
sI15
F57.857142857142861
sI16
F62.307692307692307
sI17
F55.833333333333336
sI18
F59.090909090909093
sI19
F58.18181818181818
sI20
F61
sssa(dp132
g80
I00
sg81
g82
sg83
g84
sg85
I500
sg86
S'BC'
p133
sg87
I14446
sg88
I948
sg89
g90
sg91
(dp134
S'poly_svc'
p135
(dp136
I2
F62.892561983471076
sI3
F64.037267080745337
sI4
F62.809917355371901
sI5
F64.479166666666671
sI6
F64.375
sI7
F62.463768115942031
sI8
F64
sI9
F66.226415094339615
sI10
F62.5
sI11
F62.5
sI12
F64.5
sI13
F63.513513513513509
sI14
F63.823529411764703
sI15
F66.5625
sI16
F64.666666666666657
sI17
F61.428571428571431
sI18
F63.84615384615384
sI19
F65.200000000000003
sI20
F68.333333333333329
ssS'svc'
p137
(dp138
I2
F71.239669421487605
sI3
F70.683229813664596
sI4
F72.56198347107437
sI5
F69.479166666666671
sI6
F71.875
sI7
F73.623188405797109
sI8
F72.5
sI9
F73.962264150943398
sI10
F74.791666666666671
sI11
F70.909090909090907
sI12
F73.5
sI13
F72.702702702702709
sI14
F72.058823529411768
sI15
F71.875
sI16
F73
sI17
F73.214285714285708
sI18
F71.92307692307692
sI19
F70
sI20
F72.083333333333329
ssS'rbf_svc'
p139
(dp140
I2
F36.694214876033058
sI3
F37.018633540372669
sI4
F39.008264462809919
sI5
F37.395833333333336
sI6
F36.375
sI7
F36.666666666666664
sI8
F38.333333333333336
sI9
F40.754716981132077
sI10
F35
sI11
F37.272727272727273
sI12
F34.25
sI13
F37.297297297297298
sI14
F38.529411764705884
sI15
F35.3125
sI16
F42.333333333333336
sI17
F38.571428571428577
sI18
F36.153846153846153
sI19
F35.199999999999996
sI20
F34.583333333333336
ssS'lin_svc'
p141
(dp142
I2
F70.537190082644628
sI3
F71.304347826086953
sI4
F72.396694214876035
sI5
F69.375
sI6
F71.75
sI7
F72.608695652173921
sI8
F72.166666666666671
sI9
F73.396226415094333
sI10
F75.416666666666671
sI11
F69.090909090909093
sI12
F72.75
sI13
F72.972972972972968
sI14
F71.17647058823529
sI15
F73.4375
sI16
F74.666666666666671
sI17
F72.5
sI18
F71.92307692307692
sI19
F70
sI20
F72.916666666666657
sssa(dp143
g80
I00
sg81
g82
sg83
g84
sg85
I500
sg86
S'ABC'
p144
sg87
I14446
sg88
I859
sg89
g90
sg91
(dp145
S'poly_svc'
p146
(dp147
I2
F54.343434343434339
sI3
F54.696969696969703
sI4
F53.513513513513509
sI5
F57.142857142857139
sI6
F53.535353535353536
sI7
F54.705882352941181
sI8
F56.216216216216218
sI9
F56.36363636363636
sI10
F55.254237288135585
sI11
F57.037037037037038
sI12
F55.714285714285715
sI13
F54.666666666666664
sI14
F52.61904761904762
sI15
F57.435897435897431
sI16
F57.837837837837839
sI17
F55.142857142857139
sI18
F53.030303030303031
sI19
F49.354838709677416
sI20
F54.137931034482754
ssS'svc'
p148
(dp149
I2
F60.572390572390574
sI3
F63.030303030303024
sI4
F63.445945945945951
sI5
F63.529411764705877
sI6
F62.424242424242429
sI7
F67.058823529411754
sI8
F64.459459459459453
sI9
F63.030303030303024
sI10
F63.389830508474574
sI11
F65.18518518518519
sI12
F65.306122448979593
sI13
F64
sI14
F66.19047619047619
sI15
F66.410256410256409
sI16
F65.945945945945951
sI17
F61.714285714285708
sI18
F58.18181818181818
sI19
F57.096774193548384
sI20
F61.03448275862069
ssS'rbf_svc'
p150
(dp151
I2
F30.235690235690239
sI3
F32.020202020202021
sI4
F32.027027027027025
sI5
F32.941176470588232
sI6
F30.707070707070706
sI7
F32.352941176470587
sI8
F30.675675675675674
sI9
F32.272727272727273
sI10
F30.677966101694913
sI11
F33.888888888888893
sI12
F34.08163265306122
sI13
F32.444444444444443
sI14
F32.61904761904762
sI15
F36.153846153846153
sI16
F32.162162162162161
sI17
F33.142857142857139
sI18
F29.09090909090909
sI19
F27.096774193548391
sI20
F29.310344827586203
ssS'lin_svc'
p152
(dp153
I2
F59.898989898989896
sI3
F61.767676767676768
sI4
F62.972972972972975
sI5
F63.78151260504201
sI6
F62.020202020202021
sI7
F64.941176470588232
sI8
F64.594594594594597
sI9
F62.727272727272734
sI10
F66.271186440677965
sI11
F64.81481481481481
sI12
F63.877551020408163
sI13
F64.222222222222229
sI14
F65.476190476190482
sI15
F66.153846153846146
sI16
F67.837837837837839
sI17
F64
sI18
F58.787878787878789
sI19
F56.451612903225815
sI20
F61.724137931034484
sssaa(lp154
(dp155
S'subset'
p156
I00
sS'level'
p157
S'task'
p158
sS'align'
p159
S'extend'
p160
sS'min_len'
p161
I1323
sS'dataset'
p162
S'A'
sS'max_len'
p163
I2123
sS'avg_len'
p164
I1736
sS'encode'
p165
S'AFF'
p166
sS'accuracy'
p167
(dp168
S'poly_svc'
p169
(dp170
I2
F78
sI3
F78
sI4
F77.142857142857153
sI5
F75
sI6
F80
sI7
F70
sI8
F66.666666666666657
sI9
F76.666666666666671
sI10
F70
sI11
F75
sI12
F100
sI13
F80
sI14
F80
sI15
F75
sI16
F70
sI17
F90
sI18
F70
sI19
F80
sI20
F70
ssS'svc'
p171
(dp172
I2
F77.333333333333329
sI3
F79
sI4
F78.571428571428569
sI5
F75
sI6
F80
sI7
F70
sI8
F66.666666666666657
sI9
F76.666666666666671
sI10
F70
sI11
F75
sI12
F100
sI13
F80
sI14
F80
sI15
F75
sI16
F70
sI17
F90
sI18
F70
sI19
F80
sI20
F70
ssS'rbf_svc'
p173
(dp174
I2
F59.333333333333336
sI3
F66
sI4
F54.285714285714285
sI5
F58.333333333333336
sI6
F56.000000000000007
sI7
F60
sI8
F43.333333333333336
sI9
F60
sI10
F53.333333333333336
sI11
F65
sI12
F60
sI13
F45
sI14
F60
sI15
F70
sI16
F60
sI17
F80
sI18
F40
sI19
F70
sI20
F70
ssS'lin_svc'
p175
(dp176
I2
F77.333333333333329
sI3
F79
sI4
F78.571428571428569
sI5
F75
sI6
F80
sI7
F70
sI8
F66.666666666666657
sI9
F76.666666666666671
sI10
F70
sI11
F75
sI12
F100
sI13
F75
sI14
F80
sI15
F75
sI16
F70
sI17
F90
sI18
F70
sI19
F80
sI20
F70
sssa(dp177
g156
I00
sg157
g158
sg159
g160
sg161
I860
sg162
S'B'
sg163
I1995
sg164
I1245
sg165
g166
sg167
(dp178
S'poly_svc'
p179
(dp180
I2
F81.368421052631575
sI3
F80.952380952380949
sI4
F80.425531914893625
sI5
F79.473684210526315
sI6
F81.290322580645153
sI7
F81.851851851851848
sI8
F83.043478260869563
sI9
F82.38095238095238
sI10
F86.842105263157904
sI11
F82.35294117647058
sI12
F84
sI13
F81.428571428571431
sI14
F82.307692307692307
sI15
F83.333333333333343
sI16
F82.727272727272734
sI17
F84.545454545454547
sI18
F84
sI19
F84
sI20
F80
ssS'svc'
p181
(dp182
I2
F82.21052631578948
sI3
F80.317460317460316
sI4
F80
sI5
F80.26315789473685
sI6
F81.935483870967744
sI7
F81.851851851851848
sI8
F82.173913043478265
sI9
F82.857142857142861
sI10
F86.31578947368422
sI11
F82.941176470588246
sI12
F82.666666666666671
sI13
F82.142857142857139
sI14
F82.307692307692307
sI15
F82.5
sI16
F82.727272727272734
sI17
F84.545454545454547
sI18
F84
sI19
F84
sI20
F80
ssS'rbf_svc'
p183
(dp184
I2
F80.421052631578945
sI3
F82.063492063492063
sI4
F81.489361702127667
sI5
F79.473684210526315
sI6
F82.58064516129032
sI7
F80.740740740740748
sI8
F82.608695652173907
sI9
F81.904761904761898
sI10
F83.684210526315795
sI11
F82.941176470588246
sI12
F84
sI13
F79.285714285714278
sI14
F82.307692307692307
sI15
F83.333333333333343
sI16
F80
sI17
F82.727272727272734
sI18
F81
sI19
F82
sI20
F82.222222222222214
ssS'lin_svc'
p185
(dp186
I2
F82.21052631578948
sI3
F80.317460317460316
sI4
F78.510638297872333
sI5
F78.421052631578945
sI6
F81.612903225806448
sI7
F82.962962962962962
sI8
F83.478260869565219
sI9
F82.857142857142861
sI10
F87.368421052631589
sI11
F83.529411764705884
sI12
F82.666666666666671
sI13
F81.428571428571431
sI14
F82.307692307692307
sI15
F78.333333333333329
sI16
F78.181818181818187
sI17
F81.818181818181827
sI18
F83
sI19
F80
sI20
F74.444444444444443
sssa(dp187
g156
I00
sg157
g158
sg159
g160
sg161
I4397
sg162
S'C'
sg163
I16799
sg164
I6960
sg165
g166
sg167
(dp188
S'poly_svc'
p189
(dp190
I2
F78.125
sI3
F87
sI4
F97.5
sI5
F95
sI6
F90
sI7
F92.5
sI8
F90
sI9
F93.333333333333329
sI10
F96.666666666666671
sI11
F90
sI12
F85
sI13
F95
sI14
F80
sI15
F85
sI16
F75
sI17
F100
sI18
F90
sI19
F90
sI20
F80
ssS'svc'
p191
(dp192
I2
F86.25
sI3
F92
sI4
F97.5
sI5
F95
sI6
F92
sI7
F97.5
sI8
F92.5
sI9
F100
sI10
F96.666666666666671
sI11
F100
sI12
F90
sI13
F95
sI14
F80
sI15
F90
sI16
F90
sI17
F100
sI18
F90
sI19
F90
sI20
F100
ssS'rbf_svc'
p193
(dp194
I2
F78.75
sI3
F77
sI4
F83.75
sI5
F85
sI6
F72
sI7
F82.5
sI8
F77.5
sI9
F80
sI10
F90
sI11
F70
sI12
F80
sI13
F80
sI14
F75
sI15
F65
sI16
F60
sI17
F70
sI18
F80
sI19
F80
sI20
F70
ssS'lin_svc'
p195
(dp196
I2
F86.875
sI3
F91
sI4
F97.5
sI5
F95
sI6
F92
sI7
F97.5
sI8
F92.5
sI9
F100
sI10
F96.666666666666671
sI11
F100
sI12
F90
sI13
F95
sI14
F80
sI15
F90
sI16
F90
sI17
F100
sI18
F90
sI19
F90
sI20
F100
sssa(dp197
g156
I00
sg157
g158
sg159
g160
sg161
I1323
sg162
S'AC'
p198
sg163
I16799
sg164
I4389
sg165
g166
sg167
(dp199
S'poly_svc'
p200
(dp201
I2
F77.41935483870968
sI3
F80.952380952380949
sI4
F79.333333333333329
sI5
F80
sI6
F81
sI7
F86.666666666666671
sI8
F75.714285714285708
sI9
F80
sI10
F91.666666666666657
sI11
F66
sI12
F88
sI13
F75
sI14
F72.5
sI15
F72.5
sI16
F83.333333333333343
sI17
F93.333333333333329
sI18
F80
sI19
F83.333333333333343
sI20
F83.333333333333343
ssS'svc'
p202
(dp203
I2
F81.290322580645153
sI3
F84.761904761904759
sI4
F86.666666666666671
sI5
F87.5
sI6
F88
sI7
F88.888888888888886
sI8
F82.857142857142861
sI9
F87.142857142857139
sI10
F93.333333333333329
sI11
F80
sI12
F88
sI13
F82.5
sI14
F77.5
sI15
F80
sI16
F83.333333333333343
sI17
F90
sI18
F80
sI19
F86.666666666666671
sI20
F86.666666666666671
ssS'rbf_svc'
p204
(dp205
I2
F37.096774193548384
sI3
F38.571428571428577
sI4
F38
sI5
F33.333333333333329
sI6
F38
sI7
F37.777777777777779
sI8
F38.571428571428577
sI9
F38.571428571428577
sI10
F41.666666666666671
sI11
F26
sI12
F34
sI13
F30
sI14
F32.5
sI15
F42.5
sI16
F33.333333333333329
sI17
F40
sI18
F36.666666666666664
sI19
F33.333333333333329
sI20
F53.333333333333336
ssS'lin_svc'
p206
(dp207
I2
F83.225806451612911
sI3
F82.857142857142861
sI4
F87.333333333333329
sI5
F87.5
sI6
F88
sI7
F91.111111111111114
sI8
F84.285714285714292
sI9
F85.714285714285708
sI10
F93.333333333333329
sI11
F82
sI12
F88
sI13
F80
sI14
F77.5
sI15
F82.5
sI16
F83.333333333333343
sI17
F90
sI18
F80
sI19
F86.666666666666671
sI20
F86.666666666666671
sssa(dp208
g156
I00
sg157
g158
sg159
g160
sg161
I860
sg162
S'BC'
p209
sg163
I16799
sg164
I2068
sg165
g166
sg167
(dp210
S'poly_svc'
p211
(dp212
I2
F80.180180180180187
sI3
F82.702702702702709
sI4
F80.72727272727272
sI5
F83.181818181818173
sI6
F85.13513513513513
sI7
F84.516129032258064
sI8
F85.18518518518519
sI9
F79.166666666666657
sI10
F85
sI11
F84
sI12
F87.222222222222229
sI13
F85.882352941176464
sI14
F83.333333333333343
sI15
F82.857142857142861
sI16
F82.307692307692307
sI17
F87.692307692307693
sI18
F78.333333333333329
sI19
F82.727272727272734
sI20
F87.272727272727266
ssS'svc'
p213
(dp214
I2
F81.081081081081081
sI3
F83.918918918918919
sI4
F82.727272727272734
sI5
F83.181818181818173
sI6
F85.13513513513513
sI7
F83.870967741935488
sI8
F84.444444444444443
sI9
F80.416666666666671
sI10
F84.545454545454547
sI11
F83.5
sI12
F88.888888888888886
sI13
F87.058823529411768
sI14
F84
sI15
F85
sI16
F83.07692307692308
sI17
F86.15384615384616
sI18
F78.333333333333329
sI19
F80.909090909090907
sI20
F89.090909090909093
ssS'rbf_svc'
p215
(dp216
I2
F68.918918918918919
sI3
F68.783783783783775
sI4
F68.72727272727272
sI5
F71.136363636363626
sI6
F72.162162162162161
sI7
F72.903225806451616
sI8
F68.148148148148152
sI9
F65
sI10
F72.27272727272728
sI11
F69
sI12
F73.333333333333329
sI13
F69.411764705882348
sI14
F68
sI15
F65
sI16
F66.92307692307692
sI17
F67.692307692307693
sI18
F69.166666666666671
sI19
F70
sI20
F74.545454545454547
ssS'lin_svc'
p217
(dp218
I2
F80.900900900900893
sI3
F82.972972972972968
sI4
F82.545454545454547
sI5
F83.86363636363636
sI6
F84.594594594594597
sI7
F84.838709677419359
sI8
F83.333333333333343
sI9
F79.166666666666657
sI10
F85.454545454545453
sI11
F83.5
sI12
F87.777777777777771
sI13
F85.294117647058826
sI14
F84.666666666666671
sI15
F84.285714285714292
sI16
F81.538461538461533
sI17
F86.92307692307692
sI18
F77.5
sI19
F80
sI20
F87.272727272727266
sssa(dp219
g156
I00
sg157
g158
sg159
g160
sg161
I860
sg162
S'ABC'
p220
sg163
I16799
sg164
I2028
sg165
g166
sg167
(dp221
S'poly_svc'
p222
(dp223
I2
F79.444444444444443
sI3
F80.595238095238102
sI4
F80.793650793650798
sI5
F82.199999999999989
sI6
F81.666666666666671
sI7
F81.944444444444443
sI8
F80
sI9
F81.785714285714278
sI10
F82.799999999999997
sI11
F81.304347826086953
sI12
F77.61904761904762
sI13
F85.263157894736835
sI14
F81.111111111111114
sI15
F76.875
sI16
F82.666666666666671
sI17
F83.571428571428569
sI18
F85.714285714285708
sI19
F83.07692307692308
sI20
F80.833333333333329
ssS'svc'
p224
(dp225
I2
F81.904761904761898
sI3
F80.595238095238102
sI4
F83.174603174603178
sI5
F83.799999999999997
sI6
F83.333333333333343
sI7
F83.333333333333343
sI8
F81.612903225806448
sI9
F82.142857142857139
sI10
F83.599999999999994
sI11
F82.608695652173907
sI12
F78.571428571428569
sI13
F85.78947368421052
sI14
F83.333333333333343
sI15
F81.875
sI16
F86
sI17
F83.571428571428569
sI18
F86.428571428571431
sI19
F83.846153846153854
sI20
F85.833333333333329
ssS'rbf_svc'
p226
(dp227
I2
F60.158730158730158
sI3
F59.642857142857139
sI4
F62.539682539682538
sI5
F59.599999999999994
sI6
F62.142857142857146
sI7
F59.444444444444443
sI8
F58.387096774193544
sI9
F61.071428571428577
sI10
F61.199999999999996
sI11
F63.913043478260867
sI12
F59.047619047619051
sI13
F63.157894736842103
sI14
F62.222222222222221
sI15
F60.624999999999993
sI16
F60
sI17
F64.285714285714292
sI18
F64.285714285714292
sI19
F61.53846153846154
sI20
F61.666666666666671
ssS'lin_svc'
p228
(dp229
I2
F81.19047619047619
sI3
F80.833333333333329
sI4
F82.857142857142861
sI5
F84.799999999999997
sI6
F81.904761904761898
sI7
F84.444444444444443
sI8
F81.290322580645153
sI9
F79.285714285714278
sI10
F82
sI11
F78.695652173913047
sI12
F79.523809523809518
sI13
F87.368421052631589
sI14
F80.555555555555557
sI15
F82.5
sI16
F86
sI17
F83.571428571428569
sI18
F88.571428571428569
sI19
F81.538461538461533
sI20
F85.833333333333329
sssaa(lp230
(dp231
S'subset'
p232
I00
sS'min_len'
p233
I500
sS'align'
p234
S'extend'
p235
sS'level'
p236
S'behavior'
p237
sS'dataset'
p238
S'A'
sS'max_len'
p239
I915
sS'avg_len'
p240
I471
sS'encode'
p241
S'AFF'
p242
sS'accuracy'
p243
(dp244
S'poly_svc'
p245
(dp246
I2
F45.636363636363633
sI3
F50.270270270270267
sI4
F48.888888888888886
sI5
F47.727272727272727
sI6
F51.666666666666671
sI7
F52.666666666666664
sI8
F47.692307692307693
sI9
F49.166666666666664
sI10
F54.54545454545454
sI11
F41
sI12
F50
sI13
F43.75
sI14
F42.857142857142854
sI15
F51.428571428571423
sI16
F46.666666666666664
sI17
F45
sI18
F48.333333333333336
sI19
F62
sI20
F48
ssS'svc'
p247
(dp248
I2
F30.181818181818183
sI3
F34.864864864864863
sI4
F33.703703703703702
sI5
F33.181818181818187
sI6
F35
sI7
F36
sI8
F36.923076923076927
sI9
F35.833333333333336
sI10
F41.818181818181813
sI11
F34
sI12
F41.111111111111107
sI13
F35
sI14
F28.571428571428569
sI15
F44.285714285714285
sI16
F33.333333333333329
sI17
F35
sI18
F35
sI19
F46
sI20
F44
ssS'rbf_svc'
p249
(dp250
I2
F20
sI3
F16.756756756756758
sI4
F17.407407407407408
sI5
F14.09090909090909
sI6
F15
sI7
F18.666666666666668
sI8
F12.307692307692308
sI9
F12.5
sI10
F16.363636363636363
sI11
F10
sI12
F12.222222222222221
sI13
F12.5
sI14
F11.428571428571429
sI15
F14.285714285714285
sI16
F11.666666666666666
sI17
F6.666666666666667
sI18
F5
sI19
F10
sI20
F12
ssS'lin_svc'
p251
(dp252
I2
F33.272727272727273
sI3
F31.621621621621621
sI4
F29.629629629629626
sI5
F34.090909090909086
sI6
F35
sI7
F38.666666666666664
sI8
F34.615384615384613
sI9
F36.666666666666664
sI10
F37.272727272727273
sI11
F37
sI12
F41.111111111111107
sI13
F32.5
sI14
F27.142857142857142
sI15
F44.285714285714285
sI16
F35
sI17
F38.333333333333336
sI18
F31.666666666666664
sI19
F42
sI20
F36
sssa(dp253
S'subset'
p254
I00
sS'min_len'
p255
I500
sS'align'
p256
S'extend'
p257
sS'level'
p258
S'behavior'
p259
sS'dataset'
p260
S'B'
sS'max_len'
p261
I1995
sS'avg_len'
p262
I620
sS'encode'
p263
S'AFF'
p264
sS'accuracy'
p265
(dp266
S'poly_svc'
p267
(dp268
I2
F79.473684210526315
sI3
F80.078740157480311
sI4
F80.526315789473685
sI5
F81.973684210526315
sI6
F81.428571428571431
sI7
F79.259259259259267
sI8
F81.276595744680847
sI9
F79.285714285714278
sI10
F82.10526315789474
sI11
F79.411764705882348
sI12
F81.612903225806448
sI13
F82.068965517241381
sI14
F81.481481481481481
sI15
F80
sI16
F81.304347826086953
sI17
F79.545454545454547
sI18
F82.38095238095238
sI19
F85.5
sI20
F84.210526315789465
ssS'svc'
p269
(dp270
I2
F75.31578947368422
sI3
F75.354330708661422
sI4
F75.26315789473685
sI5
F75.657894736842096
sI6
F76.825396825396837
sI7
F75.555555555555557
sI8
F77.021276595744681
sI9
F76.666666666666671
sI10
F77.368421052631575
sI11
F75.882352941176464
sI12
F77.096774193548384
sI13
F79.310344827586206
sI14
F77.037037037037038
sI15
F76.799999999999997
sI16
F76.08695652173914
sI17
F75.454545454545453
sI18
F77.61904761904762
sI19
F80.5
sI20
F73.68421052631578
ssS'rbf_svc'
p271
(dp272
I2
F45.10526315789474
sI3
F47.086614173228348
sI4
F47.684210526315788
sI5
F47.10526315789474
sI6
F46.666666666666664
sI7
F48.888888888888886
sI8
F49.574468085106382
sI9
F45.952380952380949
sI10
F48.157894736842103
sI11
F50
sI12
F49.032258064516128
sI13
F53.448275862068961
sI14
F47.407407407407412
sI15
F45.200000000000003
sI16
F45.652173913043477
sI17
F46.81818181818182
sI18
F45.714285714285715
sI19
F52
sI20
F43.684210526315795
ssS'lin_svc'
p273
(dp274
I2
F72
sI3
F73.228346456692918
sI4
F74.210526315789465
sI5
F70.263157894736835
sI6
F73.492063492063494
sI7
F72.962962962962962
sI8
F74.468085106382972
sI9
F73.80952380952381
sI10
F73.94736842105263
sI11
F74.117647058823536
sI12
F72.58064516129032
sI13
F76.896551724137936
sI14
F75.18518518518519
sI15
F77.200000000000003
sI16
F69.565217391304344
sI17
F67.72727272727272
sI18
F76.19047619047619
sI19
F71.5
sI20
F73.15789473684211
sssa(dp275
S'subset'
p276
I00
sS'min_len'
p277
I500
sS'align'
p278
S'extend'
p279
sS'level'
p280
S'behavior'
p281
sS'dataset'
p282
S'C'
sS'max_len'
p283
I14446
sS'avg_len'
p284
I2162
sS'encode'
p285
S'AFF'
p286
sS'accuracy'
p287
(dp288
S'poly_svc'
p289
(dp290
I2
F24.509803921568626
sI3
F24.705882352941178
sI4
F27.600000000000001
sI5
F31.5
sI6
F35.882352941176471
sI7
F31.428571428571427
sI8
F26.666666666666668
sI9
F26.36363636363636
sI10
F34
sI11
F34.444444444444443
sI12
F35
sI13
F21.428571428571427
sI14
F32.857142857142854
sI15
F36.666666666666664
sI16
F35
sI17
F28.333333333333332
sI18
F32
sI19
F20
sI20
F36
ssS'svc'
p291
(dp292
I2
F45.882352941176471
sI3
F49.705882352941174
sI4
F49.600000000000001
sI5
F52
sI6
F50.588235294117645
sI7
F43.571428571428569
sI8
F54.166666666666664
sI9
F43.636363636363633
sI10
F48
sI11
F55.555555555555557
sI12
F52.5
sI13
F44.285714285714285
sI14
F45.714285714285715
sI15
F53.333333333333336
sI16
F61.666666666666671
sI17
F53.333333333333336
sI18
F44
sI19
F56.000000000000007
sI20
F54
ssS'rbf_svc'
p293
(dp294
I2
F21.176470588235293
sI3
F18.823529411764707
sI4
F20
sI5
F21.5
sI6
F19.411764705882355
sI7
F13.571428571428571
sI8
F9.1666666666666661
sI9
F10
sI10
F15
sI11
F13.333333333333334
sI12
F15
sI13
F11.428571428571429
sI14
F15.714285714285714
sI15
F10
sI16
F10
sI17
F16.666666666666664
sI18
F6
sI19
F12
sI20
F12
ssS'lin_svc'
p295
(dp296
I2
F47.254901960784309
sI3
F48.823529411764703
sI4
F46
sI5
F54.500000000000007
sI6
F48.823529411764703
sI7
F43.571428571428569
sI8
F50.833333333333329
sI9
F44.545454545454547
sI10
F46
sI11
F52.222222222222229
sI12
F56.25
sI13
F44.285714285714285
sI14
F45.714285714285715
sI15
F53.333333333333336
sI16
F63.333333333333329
sI17
F51.666666666666671
sI18
F42
sI19
F52
sI20
F52
sssa(dp297
S'subset'
p298
I00
sS'level'
p299
S'behavior'
p300
sS'align'
p301
S'extend'
p302
sS'min_len'
p303
I500
sS'dataset'
p304
S'AC'
p305
sS'max_len'
p306
I14446
sS'avg_len'
p307
I1285
sS'encode'
p308
S'AFF'
p309
sS'accuracy'
p310
(dp311
S'poly_svc'
p312
(dp313
I2
F22.710280373831775
sI3
F23.239436619718308
sI4
F21.509433962264151
sI5
F23.809523809523807
sI6
F21.428571428571427
sI7
F26
sI8
F27.692307692307693
sI9
F29.130434782608695
sI10
F25.238095238095237
sI11
F27.89473684210526
sI12
F25.882352941176475
sI13
F27.500000000000004
sI14
F26
sI15
F22.142857142857142
sI16
F25.384615384615383
sI17
F24.166666666666668
sI18
F25.454545454545453
sI19
F33.636363636363633
sI20
F22
ssS'svc'
p314
(dp315
I2
F36.44859813084112
sI3
F36.901408450704224
sI4
F33.584905660377359
sI5
F37.61904761904762
sI6
F33.428571428571431
sI7
F38.666666666666664
sI8
F38.076923076923073
sI9
F34.347826086956523
sI10
F37.142857142857146
sI11
F33.684210526315788
sI12
F39.411764705882355
sI13
F43.125
sI14
F35.333333333333336
sI15
F35
sI16
F35.384615384615387
sI17
F36.666666666666664
sI18
F36.363636363636367
sI19
F39.090909090909093
sI20
F32
ssS'rbf_svc'
p316
(dp317
I2
F11.588785046728972
sI3
F11.126760563380282
sI4
F10.943396226415095
sI5
F9.7619047619047628
sI6
F10.571428571428571
sI7
F9.3333333333333339
sI8
F10.384615384615385
sI9
F10
sI10
F7.1428571428571423
sI11
F7.8947368421052628
sI12
F7.0588235294117645
sI13
F8.125
sI14
F9.3333333333333339
sI15
F8.5714285714285712
sI16
F7.6923076923076925
sI17
F5.833333333333333
sI18
F4.5454545454545459
sI19
F4.5454545454545459
sI20
F8
ssS'lin_svc'
p318
(dp319
I2
F35.420560747663551
sI3
F32.816901408450704
sI4
F30
sI5
F31.19047619047619
sI6
F26
sI7
F32
sI8
F30
sI9
F30.434782608695656
sI10
F28.571428571428569
sI11
F30.526315789473685
sI12
F28.823529411764703
sI13
F36.875
sI14
F22.666666666666664
sI15
F22.857142857142858
sI16
F28.46153846153846
sI17
F26.666666666666668
sI18
F35.454545454545453
sI19
F34.545454545454547
sI20
F24
sssa(dp320
g298
I00
sg299
g300
sg301
g302
sg303
I500
sg304
S'BC'
p321
sg306
I14446
sg307
I948
sg308
g309
sg310
(dp322
S'poly_svc'
p323
(dp324
I2
F63.016528925619831
sI3
F63.602484472049689
sI4
F63.057851239669425
sI5
F63.645833333333336
sI6
F63.749999999999993
sI7
F63.623188405797102
sI8
F65
sI9
F65.283018867924525
sI10
F66.666666666666657
sI11
F61.590909090909093
sI12
F63.749999999999993
sI13
F64.324324324324323
sI14
F63.823529411764703
sI15
F63.125
sI16
F68.666666666666671
sI17
F59.285714285714285
sI18
F63.46153846153846
sI19
F63.600000000000001
sI20
F65
ssS'svc'
p325
(dp326
I2
F61.942148760330575
sI3
F63.850931677018629
sI4
F64.545454545454547
sI5
F64.791666666666671
sI6
F66.5
sI7
F65.072463768115938
sI8
F66.5
sI9
F67.169811320754718
sI10
F67.5
sI11
F66.590909090909093
sI12
F65
sI13
F65.675675675675677
sI14
F68.235294117647058
sI15
F65
sI16
F68.333333333333329
sI17
F65
sI18
F64.615384615384613
sI19
F65.200000000000003
sI20
F67.5
ssS'rbf_svc'
p327
(dp328
I2
F35.991735537190081
sI3
F37.639751552795033
sI4
F37.438016528925623
sI5
F37.8125
sI6
F37.375
sI7
F36.231884057971016
sI8
F38.5
sI9
F37.735849056603776
sI10
F39.583333333333329
sI11
F37.5
sI12
F36.75
sI13
F38.378378378378379
sI14
F38.235294117647058
sI15
F40
sI16
F38.666666666666664
sI17
F33.928571428571431
sI18
F34.615384615384613
sI19
F33.600000000000001
sI20
F41.666666666666671
ssS'lin_svc'
p329
(dp330
I2
F37.727272727272727
sI3
F41.118012422360252
sI4
F45.619834710743802
sI5
F47.395833333333329
sI6
F46.25
sI7
F50
sI8
F55.666666666666664
sI9
F52.075471698113205
sI10
F55.416666666666671
sI11
F57.499999999999993
sI12
F49.75
sI13
F55.945945945945944
sI14
F55.882352941176471
sI15
F54.0625
sI16
F55.666666666666664
sI17
F53.928571428571423
sI18
F51.538461538461533
sI19
F40.400000000000006
sI20
F52.5
sssa(dp331
g298
I00
sg299
g300
sg301
g302
sg303
I500
sg304
S'ABC'
p332
sg306
I14446
sg307
I859
sg308
g309
sg310
(dp333
S'poly_svc'
p334
(dp335
I2
F54.646464646464644
sI3
F54.949494949494948
sI4
F55.270270270270274
sI5
F56.638655462184872
sI6
F56.767676767676768
sI7
F56.941176470588239
sI8
F56.351351351351354
sI9
F53.939393939393945
sI10
F56.779661016949156
sI11
F55.740740740740748
sI12
F56.12244897959183
sI13
F56.444444444444443
sI14
F55.476190476190482
sI15
F60.512820512820511
sI16
F51.891891891891895
sI17
F53.714285714285715
sI18
F58.484848484848484
sI19
F54.838709677419352
sI20
F52.758620689655174
ssS'svc'
p336
(dp337
I2
F54.343434343434339
sI3
F56.464646464646464
sI4
F56.148648648648646
sI5
F57.983193277310932
sI6
F56.060606060606055
sI7
F58.352941176470587
sI8
F57.027027027027025
sI9
F57.727272727272727
sI10
F59.322033898305079
sI11
F56.851851851851855
sI12
F60.408163265306122
sI13
F61.777777777777779
sI14
F57.142857142857139
sI15
F63.333333333333329
sI16
F55.945945945945944
sI17
F59.142857142857139
sI18
F60.303030303030305
sI19
F56.774193548387096
sI20
F55.517241379310342
ssS'rbf_svc'
p338
(dp339
I2
F29.393939393939394
sI3
F31.313131313131315
sI4
F32.027027027027025
sI5
F32.100840336134453
sI6
F32.525252525252526
sI7
F32.235294117647058
sI8
F33.783783783783782
sI9
F31.212121212121215
sI10
F30.847457627118647
sI11
F32.037037037037038
sI12
F32.448979591836732
sI13
F32.888888888888893
sI14
F32.142857142857146
sI15
F33.333333333333329
sI16
F28.648648648648649
sI17
F32
sI18
F33.030303030303031
sI19
F31.93548387096774
sI20
F26.896551724137929
ssS'lin_svc'
p340
(dp341
I2
F30.505050505050509
sI3
F34.595959595959599
sI4
F28.310810810810811
sI5
F26.806722689075631
sI6
F30.707070707070706
sI7
F21.882352941176471
sI8
F26.486486486486488
sI9
F25.454545454545453
sI10
F26.779661016949152
sI11
F22.592592592592592
sI12
F27.755102040816325
sI13
F25.555555555555554
sI14
F25.476190476190474
sI15
F26.923076923076923
sI16
F24.054054054054056
sI17
F29.714285714285715
sI18
F26.060606060606062
sI19
F21.612903225806452
sI20
F22.068965517241381
sssaa(lp342
(dp343
S'subset'
p344
I00
sS'level'
p345
S'task'
p346
sS'align'
p347
S'cut'
p348
sS'min_len'
p349
I1323
sS'dataset'
p350
S'A'
sS'max_len'
p351
I2123
sS'avg_len'
p352
I1736
sS'encode'
p353
S'FF'
p354
sS'accuracy'
p355
(dp356
S'poly_svc'
p357
(dp358
I2
F76
sI3
F75
sI4
F75.714285714285708
sI5
F71.666666666666671
sI6
F74
sI7
F67.5
sI8
F73.333333333333329
sI9
F76.666666666666671
sI10
F70
sI11
F70
sI12
F65
sI13
F80
sI14
F75
sI15
F80
sI16
F90
sI17
F70
sI18
F70
sI19
F80
sI20
F70
ssS'svc'
p359
(dp360
I2
F74
sI3
F78
sI4
F77.142857142857153
sI5
F71.666666666666671
sI6
F76
sI7
F70
sI8
F73.333333333333329
sI9
F80
sI10
F70
sI11
F70
sI12
F65
sI13
F80
sI14
F75
sI15
F80
sI16
F90
sI17
F70
sI18
F70
sI19
F80
sI20
F70
ssS'rbf_svc'
p361
(dp362
I2
F61.333333333333329
sI3
F60
sI4
F55.714285714285715
sI5
F55.000000000000007
sI6
F60
sI7
F50
sI8
F63.333333333333329
sI9
F60
sI10
F50
sI11
F60
sI12
F50
sI13
F60
sI14
F55.000000000000007
sI15
F65
sI16
F60
sI17
F70
sI18
F60
sI19
F80
sI20
F60
ssS'lin_svc'
p363
(dp364
I2
F74
sI3
F78
sI4
F77.142857142857153
sI5
F71.666666666666671
sI6
F76
sI7
F72.5
sI8
F73.333333333333329
sI9
F83.333333333333343
sI10
F70
sI11
F80
sI12
F75
sI13
F80
sI14
F75
sI15
F85
sI16
F90
sI17
F70
sI18
F70
sI19
F80
sI20
F80
sssa(dp365
S'subset'
p366
I00
sS'min_len'
p367
I1323
sS'align'
p368
S'cut'
p369
sS'level'
p370
S'task'
p371
sS'dataset'
p372
S'A'
sS'max_len'
p373
I2123
sS'avg_len'
p374
I1736
sS'encode'
p375
S'FF'
p376
sS'accuracy'
p377
(dp378
S'poly_svc'
p379
(dp380
I2
F76
sI3
F75
sI4
F75.714285714285708
sI5
F71.666666666666671
sI6
F74
sI7
F67.5
sI8
F73.333333333333329
sI9
F76.666666666666671
sI10
F70
sI11
F70
sI12
F65
sI13
F80
sI14
F75
sI15
F80
sI16
F90
sI17
F70
sI18
F70
sI19
F80
sI20
F70
ssS'svc'
p381
(dp382
I2
F74
sI3
F78
sI4
F77.142857142857153
sI5
F71.666666666666671
sI6
F76
sI7
F70
sI8
F73.333333333333329
sI9
F80
sI10
F70
sI11
F70
sI12
F65
sI13
F80
sI14
F75
sI15
F80
sI16
F90
sI17
F70
sI18
F70
sI19
F80
sI20
F70
ssS'rbf_svc'
p383
(dp384
I2
F61.333333333333329
sI3
F60
sI4
F55.714285714285715
sI5
F55.000000000000007
sI6
F60
sI7
F50
sI8
F63.333333333333329
sI9
F60
sI10
F50
sI11
F60
sI12
F50
sI13
F60
sI14
F55.000000000000007
sI15
F65
sI16
F60
sI17
F70
sI18
F60
sI19
F80
sI20
F60
ssS'lin_svc'
p385
(dp386
I2
F74
sI3
F78
sI4
F77.142857142857153
sI5
F71.666666666666671
sI6
F76
sI7
F72.5
sI8
F73.333333333333329
sI9
F83.333333333333343
sI10
F70
sI11
F80
sI12
F75
sI13
F80
sI14
F75
sI15
F85
sI16
F90
sI17
F70
sI18
F70
sI19
F80
sI20
F80
sssa(dp387
S'subset'
p388
I00
sS'min_len'
p389
I1323
sS'align'
p390
S'cut'
p391
sS'level'
p392
S'task'
p393
sS'dataset'
p394
S'A'
sS'max_len'
p395
I2123
sS'avg_len'
p396
I1736
sS'encode'
p397
S'FF'
p398
sS'accuracy'
p399
(dp400
S'poly_svc'
p401
(dp402
I2
F76
sI3
F75
sI4
F75.714285714285708
sI5
F71.666666666666671
sI6
F74
sI7
F67.5
sI8
F73.333333333333329
sI9
F76.666666666666671
sI10
F70
sI11
F70
sI12
F65
sI13
F80
sI14
F75
sI15
F80
sI16
F90
sI17
F70
sI18
F70
sI19
F80
sI20
F70
ssS'svc'
p403
(dp404
I2
F74
sI3
F78
sI4
F77.142857142857153
sI5
F71.666666666666671
sI6
F76
sI7
F70
sI8
F73.333333333333329
sI9
F80
sI10
F70
sI11
F70
sI12
F65
sI13
F80
sI14
F75
sI15
F80
sI16
F90
sI17
F70
sI18
F70
sI19
F80
sI20
F70
ssS'rbf_svc'
p405
(dp406
I2
F61.333333333333329
sI3
F60
sI4
F55.714285714285715
sI5
F55.000000000000007
sI6
F60
sI7
F50
sI8
F63.333333333333329
sI9
F60
sI10
F50
sI11
F60
sI12
F50
sI13
F60
sI14
F55.000000000000007
sI15
F65
sI16
F60
sI17
F70
sI18
F60
sI19
F80
sI20
F60
ssS'lin_svc'
p407
(dp408
I2
F74
sI3
F78
sI4
F77.142857142857153
sI5
F71.666666666666671
sI6
F76
sI7
F72.5
sI8
F73.333333333333329
sI9
F83.333333333333343
sI10
F70
sI11
F80
sI12
F75
sI13
F80
sI14
F75
sI15
F85
sI16
F90
sI17
F70
sI18
F70
sI19
F80
sI20
F80
sssa(dp409
S'subset'
p410
I00
sS'min_len'
p411
I1323
sS'align'
p412
S'cut'
p413
sS'level'
p414
S'task'
p415
sS'dataset'
p416
S'A'
sS'max_len'
p417
I2123
sS'avg_len'
p418
I1736
sS'encode'
p419
S'FF'
p420
sS'accuracy'
p421
(dp422
S'poly_svc'
p423
(dp424
I2
F76
sI3
F75
sI4
F75.714285714285708
sI5
F71.666666666666671
sI6
F74
sI7
F67.5
sI8
F73.333333333333329
sI9
F76.666666666666671
sI10
F70
sI11
F70
sI12
F65
sI13
F80
sI14
F75
sI15
F80
sI16
F90
sI17
F70
sI18
F70
sI19
F80
sI20
F70
ssS'svc'
p425
(dp426
I2
F74
sI3
F78
sI4
F77.142857142857153
sI5
F71.666666666666671
sI6
F76
sI7
F70
sI8
F73.333333333333329
sI9
F80
sI10
F70
sI11
F70
sI12
F65
sI13
F80
sI14
F75
sI15
F80
sI16
F90
sI17
F70
sI18
F70
sI19
F80
sI20
F70
ssS'rbf_svc'
p427
(dp428
I2
F61.333333333333329
sI3
F60
sI4
F55.714285714285715
sI5
F55.000000000000007
sI6
F60
sI7
F50
sI8
F63.333333333333329
sI9
F60
sI10
F50
sI11
F60
sI12
F50
sI13
F60
sI14
F55.000000000000007
sI15
F65
sI16
F60
sI17
F70
sI18
F60
sI19
F80
sI20
F60
ssS'lin_svc'
p429
(dp430
I2
F74
sI3
F78
sI4
F77.142857142857153
sI5
F71.666666666666671
sI6
F76
sI7
F72.5
sI8
F73.333333333333329
sI9
F83.333333333333343
sI10
F70
sI11
F80
sI12
F75
sI13
F80
sI14
F75
sI15
F85
sI16
F90
sI17
F70
sI18
F70
sI19
F80
sI20
F80
sssa(dp431
S'subset'
p432
I00
sS'min_len'
p433
I1323
sS'align'
p434
S'cut'
p435
sS'level'
p436
S'task'
p437
sS'dataset'
p438
S'A'
sS'max_len'
p439
I2123
sS'avg_len'
p440
I1736
sS'encode'
p441
S'FF'
p442
sS'accuracy'
p443
(dp444
S'poly_svc'
p445
(dp446
I2
F76
sI3
F75
sI4
F75.714285714285708
sI5
F71.666666666666671
sI6
F74
sI7
F67.5
sI8
F73.333333333333329
sI9
F76.666666666666671
sI10
F70
sI11
F70
sI12
F65
sI13
F80
sI14
F75
sI15
F80
sI16
F90
sI17
F70
sI18
F70
sI19
F80
sI20
F70
ssS'svc'
p447
(dp448
I2
F74
sI3
F78
sI4
F77.142857142857153
sI5
F71.666666666666671
sI6
F76
sI7
F70
sI8
F73.333333333333329
sI9
F80
sI10
F70
sI11
F70
sI12
F65
sI13
F80
sI14
F75
sI15
F80
sI16
F90
sI17
F70
sI18
F70
sI19
F80
sI20
F70
ssS'rbf_svc'
p449
(dp450
I2
F61.333333333333329
sI3
F60
sI4
F55.714285714285715
sI5
F55.000000000000007
sI6
F60
sI7
F50
sI8
F63.333333333333329
sI9
F60
sI10
F50
sI11
F60
sI12
F50
sI13
F60
sI14
F55.000000000000007
sI15
F65
sI16
F60
sI17
F70
sI18
F60
sI19
F80
sI20
F60
ssS'lin_svc'
p451
(dp452
I2
F74
sI3
F78
sI4
F77.142857142857153
sI5
F71.666666666666671
sI6
F76
sI7
F72.5
sI8
F73.333333333333329
sI9
F83.333333333333343
sI10
F70
sI11
F80
sI12
F75
sI13
F80
sI14
F75
sI15
F85
sI16
F90
sI17
F70
sI18
F70
sI19
F80
sI20
F80
sssa(dp453
S'subset'
p454
I00
sS'min_len'
p455
I1323
sS'align'
p456
S'cut'
p457
sS'level'
p458
S'task'
p459
sS'dataset'
p460
S'A'
sS'max_len'
p461
I2123
sS'avg_len'
p462
I1736
sS'encode'
p463
S'FF'
p464
sS'accuracy'
p465
(dp466
S'poly_svc'
p467
(dp468
I2
F76
sI3
F75
sI4
F75.714285714285708
sI5
F71.666666666666671
sI6
F74
sI7
F67.5
sI8
F73.333333333333329
sI9
F76.666666666666671
sI10
F70
sI11
F70
sI12
F65
sI13
F80
sI14
F75
sI15
F80
sI16
F90
sI17
F70
sI18
F70
sI19
F80
sI20
F70
ssS'svc'
p469
(dp470
I2
F74
sI3
F78
sI4
F77.142857142857153
sI5
F71.666666666666671
sI6
F76
sI7
F70
sI8
F73.333333333333329
sI9
F80
sI10
F70
sI11
F70
sI12
F65
sI13
F80
sI14
F75
sI15
F80
sI16
F90
sI17
F70
sI18
F70
sI19
F80
sI20
F70
ssS'rbf_svc'
p471
(dp472
I2
F61.333333333333329
sI3
F60
sI4
F55.714285714285715
sI5
F55.000000000000007
sI6
F60
sI7
F50
sI8
F63.333333333333329
sI9
F60
sI10
F50
sI11
F60
sI12
F50
sI13
F60
sI14
F55.000000000000007
sI15
F65
sI16
F60
sI17
F70
sI18
F60
sI19
F80
sI20
F60
ssS'lin_svc'
p473
(dp474
I2
F74
sI3
F78
sI4
F77.142857142857153
sI5
F71.666666666666671
sI6
F76
sI7
F72.5
sI8
F73.333333333333329
sI9
F83.333333333333343
sI10
F70
sI11
F80
sI12
F75
sI13
F80
sI14
F75
sI15
F85
sI16
F90
sI17
F70
sI18
F70
sI19
F80
sI20
F80
sssaa(lp475
(dp476
S'subset'
p477
I00
sS'level'
p478
S'behavior'
p479
sS'align'
p480
S'cut'
p481
sS'min_len'
p482
I500
sS'dataset'
p483
S'A'
sS'max_len'
p484
I915
sS'avg_len'
p485
I471
sS'encode'
p486
S'FF'
p487
sS'accuracy'
p488
(dp489
S'poly_svc'
p490
(dp491
I2
F33.81818181818182
sI3
F34.594594594594597
sI4
F32.222222222222221
sI5
F35
sI6
F29.444444444444446
sI7
F27.333333333333332
sI8
F34.615384615384613
sI9
F33.333333333333329
sI10
F30.909090909090907
sI11
F26
sI12
F32.222222222222221
sI13
F27.500000000000004
sI14
F34.285714285714285
sI15
F35.714285714285715
sI16
F33.333333333333329
sI17
F33.333333333333329
sI18
F33.333333333333329
sI19
F26
sI20
F30
ssS'svc'
p492
(dp493
I2
F26.727272727272727
sI3
F29.45945945945946
sI4
F32.592592592592595
sI5
F28.18181818181818
sI6
F26.666666666666668
sI7
F28.666666666666668
sI8
F30
sI9
F34.166666666666664
sI10
F29.09090909090909
sI11
F30
sI12
F32.222222222222221
sI13
F36.25
sI14
F42.857142857142854
sI15
F38.571428571428577
sI16
F38.333333333333336
sI17
F31.666666666666664
sI18
F41.666666666666671
sI19
F28.000000000000004
sI20
F30
ssS'rbf_svc'
p494
(dp495
I2
F34.545454545454547
sI3
F35.135135135135137
sI4
F33.333333333333329
sI5
F34.545454545454547
sI6
F29.444444444444446
sI7
F29.333333333333332
sI8
F36.153846153846153
sI9
F35
sI10
F31.818181818181817
sI11
F34
sI12
F33.333333333333329
sI13
F30
sI14
F37.142857142857146
sI15
F37.142857142857146
sI16
F36.666666666666664
sI17
F36.666666666666664
sI18
F36.666666666666664
sI19
F30
sI20
F30
ssS'lin_svc'
p496
(dp497
I2
F29.454545454545457
sI3
F34.324324324324323
sI4
F33.703703703703702
sI5
F30
sI6
F31.666666666666664
sI7
F30
sI8
F31.538461538461537
sI9
F37.5
sI10
F30.909090909090907
sI11
F36
sI12
F35.555555555555557
sI13
F35
sI14
F45.714285714285715
sI15
F40
sI16
F41.666666666666671
sI17
F33.333333333333329
sI18
F33.333333333333329
sI19
F34
sI20
F38
sssa(dp498
S'subset'
p499
I00
sS'min_len'
p500
I500
sS'align'
p501
S'cut'
p502
sS'level'
p503
S'behavior'
p504
sS'dataset'
p505
S'A'
sS'max_len'
p506
I915
sS'avg_len'
p507
I471
sS'encode'
p508
S'FF'
p509
sS'accuracy'
p510
(dp511
S'poly_svc'
p512
(dp513
I2
F33.81818181818182
sI3
F34.594594594594597
sI4
F32.222222222222221
sI5
F35
sI6
F29.444444444444446
sI7
F27.333333333333332
sI8
F34.615384615384613
sI9
F33.333333333333329
sI10
F30.909090909090907
sI11
F26
sI12
F32.222222222222221
sI13
F27.500000000000004
sI14
F34.285714285714285
sI15
F35.714285714285715
sI16
F33.333333333333329
sI17
F33.333333333333329
sI18
F33.333333333333329
sI19
F26
sI20
F30
ssS'svc'
p514
(dp515
I2
F26.727272727272727
sI3
F29.45945945945946
sI4
F32.592592592592595
sI5
F28.18181818181818
sI6
F26.666666666666668
sI7
F28.666666666666668
sI8
F30
sI9
F34.166666666666664
sI10
F29.09090909090909
sI11
F30
sI12
F32.222222222222221
sI13
F36.25
sI14
F42.857142857142854
sI15
F38.571428571428577
sI16
F38.333333333333336
sI17
F31.666666666666664
sI18
F41.666666666666671
sI19
F28.000000000000004
sI20
F30
ssS'rbf_svc'
p516
(dp517
I2
F34.545454545454547
sI3
F35.135135135135137
sI4
F33.333333333333329
sI5
F34.545454545454547
sI6
F29.444444444444446
sI7
F29.333333333333332
sI8
F36.153846153846153
sI9
F35
sI10
F31.818181818181817
sI11
F34
sI12
F33.333333333333329
sI13
F30
sI14
F37.142857142857146
sI15
F37.142857142857146
sI16
F36.666666666666664
sI17
F36.666666666666664
sI18
F36.666666666666664
sI19
F30
sI20
F30
ssS'lin_svc'
p518
(dp519
I2
F29.454545454545457
sI3
F34.324324324324323
sI4
F33.703703703703702
sI5
F30
sI6
F31.666666666666664
sI7
F30
sI8
F31.538461538461537
sI9
F37.5
sI10
F30.909090909090907
sI11
F36
sI12
F35.555555555555557
sI13
F35
sI14
F45.714285714285715
sI15
F40
sI16
F41.666666666666671
sI17
F33.333333333333329
sI18
F33.333333333333329
sI19
F34
sI20
F38
sssa(dp520
S'subset'
p521
I00
sS'min_len'
p522
I500
sS'align'
p523
S'cut'
p524
sS'level'
p525
S'behavior'
p526
sS'dataset'
p527
S'A'
sS'max_len'
p528
I915
sS'avg_len'
p529
I471
sS'encode'
p530
S'FF'
p531
sS'accuracy'
p532
(dp533
S'poly_svc'
p534
(dp535
I2
F33.81818181818182
sI3
F34.594594594594597
sI4
F32.222222222222221
sI5
F35
sI6
F29.444444444444446
sI7
F27.333333333333332
sI8
F34.615384615384613
sI9
F33.333333333333329
sI10
F30.909090909090907
sI11
F26
sI12
F32.222222222222221
sI13
F27.500000000000004
sI14
F34.285714285714285
sI15
F35.714285714285715
sI16
F33.333333333333329
sI17
F33.333333333333329
sI18
F33.333333333333329
sI19
F26
sI20
F30
ssS'svc'
p536
(dp537
I2
F26.727272727272727
sI3
F29.45945945945946
sI4
F32.592592592592595
sI5
F28.18181818181818
sI6
F26.666666666666668
sI7
F28.666666666666668
sI8
F30
sI9
F34.166666666666664
sI10
F29.09090909090909
sI11
F30
sI12
F32.222222222222221
sI13
F36.25
sI14
F42.857142857142854
sI15
F38.571428571428577
sI16
F38.333333333333336
sI17
F31.666666666666664
sI18
F41.666666666666671
sI19
F28.000000000000004
sI20
F30
ssS'rbf_svc'
p538
(dp539
I2
F34.545454545454547
sI3
F35.135135135135137
sI4
F33.333333333333329
sI5
F34.545454545454547
sI6
F29.444444444444446
sI7
F29.333333333333332
sI8
F36.153846153846153
sI9
F35
sI10
F31.818181818181817
sI11
F34
sI12
F33.333333333333329
sI13
F30
sI14
F37.142857142857146
sI15
F37.142857142857146
sI16
F36.666666666666664
sI17
F36.666666666666664
sI18
F36.666666666666664
sI19
F30
sI20
F30
ssS'lin_svc'
p540
(dp541
I2
F29.454545454545457
sI3
F34.324324324324323
sI4
F33.703703703703702
sI5
F30
sI6
F31.666666666666664
sI7
F30
sI8
F31.538461538461537
sI9
F37.5
sI10
F30.909090909090907
sI11
F36
sI12
F35.555555555555557
sI13
F35
sI14
F45.714285714285715
sI15
F40
sI16
F41.666666666666671
sI17
F33.333333333333329
sI18
F33.333333333333329
sI19
F34
sI20
F38
sssa(dp542
S'subset'
p543
I00
sS'min_len'
p544
I500
sS'align'
p545
S'cut'
p546
sS'level'
p547
S'behavior'
p548
sS'dataset'
p549
S'A'
sS'max_len'
p550
I915
sS'avg_len'
p551
I471
sS'encode'
p552
S'FF'
p553
sS'accuracy'
p554
(dp555
S'poly_svc'
p556
(dp557
I2
F33.81818181818182
sI3
F34.594594594594597
sI4
F32.222222222222221
sI5
F35
sI6
F29.444444444444446
sI7
F27.333333333333332
sI8
F34.615384615384613
sI9
F33.333333333333329
sI10
F30.909090909090907
sI11
F26
sI12
F32.222222222222221
sI13
F27.500000000000004
sI14
F34.285714285714285
sI15
F35.714285714285715
sI16
F33.333333333333329
sI17
F33.333333333333329
sI18
F33.333333333333329
sI19
F26
sI20
F30
ssS'svc'
p558
(dp559
I2
F26.727272727272727
sI3
F29.45945945945946
sI4
F32.592592592592595
sI5
F28.18181818181818
sI6
F26.666666666666668
sI7
F28.666666666666668
sI8
F30
sI9
F34.166666666666664
sI10
F29.09090909090909
sI11
F30
sI12
F32.222222222222221
sI13
F36.25
sI14
F42.857142857142854
sI15
F38.571428571428577
sI16
F38.333333333333336
sI17
F31.666666666666664
sI18
F41.666666666666671
sI19
F28.000000000000004
sI20
F30
ssS'rbf_svc'
p560
(dp561
I2
F34.545454545454547
sI3
F35.135135135135137
sI4
F33.333333333333329
sI5
F34.545454545454547
sI6
F29.444444444444446
sI7
F29.333333333333332
sI8
F36.153846153846153
sI9
F35
sI10
F31.818181818181817
sI11
F34
sI12
F33.333333333333329
sI13
F30
sI14
F37.142857142857146
sI15
F37.142857142857146
sI16
F36.666666666666664
sI17
F36.666666666666664
sI18
F36.666666666666664
sI19
F30
sI20
F30
ssS'lin_svc'
p562
(dp563
I2
F29.454545454545457
sI3
F34.324324324324323
sI4
F33.703703703703702
sI5
F30
sI6
F31.666666666666664
sI7
F30
sI8
F31.538461538461537
sI9
F37.5
sI10
F30.909090909090907
sI11
F36
sI12
F35.555555555555557
sI13
F35
sI14
F45.714285714285715
sI15
F40
sI16
F41.666666666666671
sI17
F33.333333333333329
sI18
F33.333333333333329
sI19
F34
sI20
F38
sssa(dp564
S'subset'
p565
I00
sS'min_len'
p566
I500
sS'align'
p567
S'cut'
p568
sS'level'
p569
S'behavior'
p570
sS'dataset'
p571
S'A'
sS'max_len'
p572
I915
sS'avg_len'
p573
I471
sS'encode'
p574
S'FF'
p575
sS'accuracy'
p576
(dp577
S'poly_svc'
p578
(dp579
I2
F33.81818181818182
sI3
F34.594594594594597
sI4
F32.222222222222221
sI5
F35
sI6
F29.444444444444446
sI7
F27.333333333333332
sI8
F34.615384615384613
sI9
F33.333333333333329
sI10
F30.909090909090907
sI11
F26
sI12
F32.222222222222221
sI13
F27.500000000000004
sI14
F34.285714285714285
sI15
F35.714285714285715
sI16
F33.333333333333329
sI17
F33.333333333333329
sI18
F33.333333333333329
sI19
F26
sI20
F30
ssS'svc'
p580
(dp581
I2
F26.727272727272727
sI3
F29.45945945945946
sI4
F32.592592592592595
sI5
F28.18181818181818
sI6
F26.666666666666668
sI7
F28.666666666666668
sI8
F30
sI9
F34.166666666666664
sI10
F29.09090909090909
sI11
F30
sI12
F32.222222222222221
sI13
F36.25
sI14
F42.857142857142854
sI15
F38.571428571428577
sI16
F38.333333333333336
sI17
F31.666666666666664
sI18
F41.666666666666671
sI19
F28.000000000000004
sI20
F30
ssS'rbf_svc'
p582
(dp583
I2
F34.545454545454547
sI3
F35.135135135135137
sI4
F33.333333333333329
sI5
F34.545454545454547
sI6
F29.444444444444446
sI7
F29.333333333333332
sI8
F36.153846153846153
sI9
F35
sI10
F31.818181818181817
sI11
F34
sI12
F33.333333333333329
sI13
F30
sI14
F37.142857142857146
sI15
F37.142857142857146
sI16
F36.666666666666664
sI17
F36.666666666666664
sI18
F36.666666666666664
sI19
F30
sI20
F30
ssS'lin_svc'
p584
(dp585
I2
F29.454545454545457
sI3
F34.324324324324323
sI4
F33.703703703703702
sI5
F30
sI6
F31.666666666666664
sI7
F30
sI8
F31.538461538461537
sI9
F37.5
sI10
F30.909090909090907
sI11
F36
sI12
F35.555555555555557
sI13
F35
sI14
F45.714285714285715
sI15
F40
sI16
F41.666666666666671
sI17
F33.333333333333329
sI18
F33.333333333333329
sI19
F34
sI20
F38
sssa(dp586
S'subset'
p587
I00
sS'min_len'
p588
I500
sS'align'
p589
S'cut'
p590
sS'level'
p591
S'behavior'
p592
sS'dataset'
p593
S'A'
sS'max_len'
p594
I915
sS'avg_len'
p595
I471
sS'encode'
p596
S'FF'
p597
sS'accuracy'
p598
(dp599
S'poly_svc'
p600
(dp601
I2
F33.81818181818182
sI3
F34.594594594594597
sI4
F32.222222222222221
sI5
F35
sI6
F29.444444444444446
sI7
F27.333333333333332
sI8
F34.615384615384613
sI9
F33.333333333333329
sI10
F30.909090909090907
sI11
F26
sI12
F32.222222222222221
sI13
F27.500000000000004
sI14
F34.285714285714285
sI15
F35.714285714285715
sI16
F33.333333333333329
sI17
F33.333333333333329
sI18
F33.333333333333329
sI19
F26
sI20
F30
ssS'svc'
p602
(dp603
I2
F26.727272727272727
sI3
F29.45945945945946
sI4
F32.592592592592595
sI5
F28.18181818181818
sI6
F26.666666666666668
sI7
F28.666666666666668
sI8
F30
sI9
F34.166666666666664
sI10
F29.09090909090909
sI11
F30
sI12
F32.222222222222221
sI13
F36.25
sI14
F42.857142857142854
sI15
F38.571428571428577
sI16
F38.333333333333336
sI17
F31.666666666666664
sI18
F41.666666666666671
sI19
F28.000000000000004
sI20
F30
ssS'rbf_svc'
p604
(dp605
I2
F34.545454545454547
sI3
F35.135135135135137
sI4
F33.333333333333329
sI5
F34.545454545454547
sI6
F29.444444444444446
sI7
F29.333333333333332
sI8
F36.153846153846153
sI9
F35
sI10
F31.818181818181817
sI11
F34
sI12
F33.333333333333329
sI13
F30
sI14
F37.142857142857146
sI15
F37.142857142857146
sI16
F36.666666666666664
sI17
F36.666666666666664
sI18
F36.666666666666664
sI19
F30
sI20
F30
ssS'lin_svc'
p606
(dp607
I2
F29.454545454545457
sI3
F34.324324324324323
sI4
F33.703703703703702
sI5
F30
sI6
F31.666666666666664
sI7
F30
sI8
F31.538461538461537
sI9
F37.5
sI10
F30.909090909090907
sI11
F36
sI12
F35.555555555555557
sI13
F35
sI14
F45.714285714285715
sI15
F40
sI16
F41.666666666666671
sI17
F33.333333333333329
sI18
F33.333333333333329
sI19
F34
sI20
F38
sssaa(lp608
(dp609
S'subset'
p610
I00
sS'level'
p611
S'task'
p612
sS'align'
p613
S'cut'
p614
sS'min_len'
p615
I1323
sS'dataset'
p616
S'A'
sS'max_len'
p617
I2123
sS'avg_len'
p618
I1736
sS'encode'
p619
S'AFF'
p620
sS'accuracy'
p621
(dp622
S'poly_svc'
p623
(dp624
I2
F77.333333333333329
sI3
F72
sI4
F72.857142857142847
sI5
F78.333333333333329
sI6
F80
sI7
F72.5
sI8
F76.666666666666671
sI9
F93.333333333333329
sI10
F83.333333333333343
sI11
F65
sI12
F75
sI13
F85
sI14
F80
sI15
F60
sI16
F80
sI17
F90
sI18
F70
sI19
F70
sI20
F60
ssS'svc'
p625
(dp626
I2
F77.333333333333329
sI3
F73
sI4
F72.857142857142847
sI5
F75
sI6
F80
sI7
F75
sI8
F76.666666666666671
sI9
F93.333333333333329
sI10
F83.333333333333343
sI11
F65
sI12
F75
sI13
F85
sI14
F80
sI15
F65
sI16
F70
sI17
F90
sI18
F60
sI19
F70
sI20
F60
ssS'rbf_svc'
p627
(dp628
I2
F60
sI3
F54
sI4
F50
sI5
F60
sI6
F62
sI7
F57.499999999999993
sI8
F56.666666666666664
sI9
F86.666666666666671
sI10
F76.666666666666671
sI11
F60
sI12
F60
sI13
F50
sI14
F45
sI15
F45
sI16
F60
sI17
F80
sI18
F60
sI19
F60
sI20
F40
ssS'lin_svc'
p629
(dp630
I2
F77.333333333333329
sI3
F73
sI4
F72.857142857142847
sI5
F75
sI6
F80
sI7
F75
sI8
F76.666666666666671
sI9
F93.333333333333329
sI10
F83.333333333333343
sI11
F65
sI12
F70
sI13
F85
sI14
F80
sI15
F65
sI16
F70
sI17
F90
sI18
F60
sI19
F70
sI20
F60
sssa(dp631
S'subset'
p632
I00
sS'min_len'
p633
I1323
sS'align'
p634
S'cut'
p635
sS'level'
p636
S'task'
p637
sS'dataset'
p638
S'A'
sS'max_len'
p639
I2123
sS'avg_len'
p640
I1736
sS'encode'
p641
S'AFF'
p642
sS'accuracy'
p643
(dp644
S'poly_svc'
p645
(dp646
I2
F77.333333333333329
sI3
F72
sI4
F72.857142857142847
sI5
F78.333333333333329
sI6
F80
sI7
F72.5
sI8
F76.666666666666671
sI9
F93.333333333333329
sI10
F83.333333333333343
sI11
F65
sI12
F75
sI13
F85
sI14
F80
sI15
F60
sI16
F80
sI17
F90
sI18
F70
sI19
F70
sI20
F60
ssS'svc'
p647
(dp648
I2
F77.333333333333329
sI3
F73
sI4
F72.857142857142847
sI5
F75
sI6
F80
sI7
F75
sI8
F76.666666666666671
sI9
F93.333333333333329
sI10
F83.333333333333343
sI11
F65
sI12
F75
sI13
F85
sI14
F80
sI15
F65
sI16
F70
sI17
F90
sI18
F60
sI19
F70
sI20
F60
ssS'rbf_svc'
p649
(dp650
I2
F60
sI3
F54
sI4
F50
sI5
F60
sI6
F62
sI7
F57.499999999999993
sI8
F56.666666666666664
sI9
F86.666666666666671
sI10
F76.666666666666671
sI11
F60
sI12
F60
sI13
F50
sI14
F45
sI15
F45
sI16
F60
sI17
F80
sI18
F60
sI19
F60
sI20
F40
ssS'lin_svc'
p651
(dp652
I2
F77.333333333333329
sI3
F73
sI4
F72.857142857142847
sI5
F75
sI6
F80
sI7
F75
sI8
F76.666666666666671
sI9
F93.333333333333329
sI10
F83.333333333333343
sI11
F65
sI12
F70
sI13
F85
sI14
F80
sI15
F65
sI16
F70
sI17
F90
sI18
F60
sI19
F70
sI20
F60
sssa(dp653
S'subset'
p654
I00
sS'min_len'
p655
I1323
sS'align'
p656
S'cut'
p657
sS'level'
p658
S'task'
p659
sS'dataset'
p660
S'A'
sS'max_len'
p661
I2123
sS'avg_len'
p662
I1736
sS'encode'
p663
S'AFF'
p664
sS'accuracy'
p665
(dp666
S'poly_svc'
p667
(dp668
I2
F77.333333333333329
sI3
F72
sI4
F72.857142857142847
sI5
F78.333333333333329
sI6
F80
sI7
F72.5
sI8
F76.666666666666671
sI9
F93.333333333333329
sI10
F83.333333333333343
sI11
F65
sI12
F75
sI13
F85
sI14
F80
sI15
F60
sI16
F80
sI17
F90
sI18
F70
sI19
F70
sI20
F60
ssS'svc'
p669
(dp670
I2
F77.333333333333329
sI3
F73
sI4
F72.857142857142847
sI5
F75
sI6
F80
sI7
F75
sI8
F76.666666666666671
sI9
F93.333333333333329
sI10
F83.333333333333343
sI11
F65
sI12
F75
sI13
F85
sI14
F80
sI15
F65
sI16
F70
sI17
F90
sI18
F60
sI19
F70
sI20
F60
ssS'rbf_svc'
p671
(dp672
I2
F60
sI3
F54
sI4
F50
sI5
F60
sI6
F62
sI7
F57.499999999999993
sI8
F56.666666666666664
sI9
F86.666666666666671
sI10
F76.666666666666671
sI11
F60
sI12
F60
sI13
F50
sI14
F45
sI15
F45
sI16
F60
sI17
F80
sI18
F60
sI19
F60
sI20
F40
ssS'lin_svc'
p673
(dp674
I2
F77.333333333333329
sI3
F73
sI4
F72.857142857142847
sI5
F75
sI6
F80
sI7
F75
sI8
F76.666666666666671
sI9
F93.333333333333329
sI10
F83.333333333333343
sI11
F65
sI12
F70
sI13
F85
sI14
F80
sI15
F65
sI16
F70
sI17
F90
sI18
F60
sI19
F70
sI20
F60
sssa(dp675
S'subset'
p676
I00
sS'min_len'
p677
I1323
sS'align'
p678
S'cut'
p679
sS'level'
p680
S'task'
p681
sS'dataset'
p682
S'A'
sS'max_len'
p683
I2123
sS'avg_len'
p684
I1736
sS'encode'
p685
S'AFF'
p686
sS'accuracy'
p687
(dp688
S'poly_svc'
p689
(dp690
I2
F77.333333333333329
sI3
F72
sI4
F72.857142857142847
sI5
F78.333333333333329
sI6
F80
sI7
F72.5
sI8
F76.666666666666671
sI9
F93.333333333333329
sI10
F83.333333333333343
sI11
F65
sI12
F75
sI13
F85
sI14
F80
sI15
F60
sI16
F80
sI17
F90
sI18
F70
sI19
F70
sI20
F60
ssS'svc'
p691
(dp692
I2
F77.333333333333329
sI3
F73
sI4
F72.857142857142847
sI5
F75
sI6
F80
sI7
F75
sI8
F76.666666666666671
sI9
F93.333333333333329
sI10
F83.333333333333343
sI11
F65
sI12
F75
sI13
F85
sI14
F80
sI15
F65
sI16
F70
sI17
F90
sI18
F60
sI19
F70
sI20
F60
ssS'rbf_svc'
p693
(dp694
I2
F60
sI3
F54
sI4
F50
sI5
F60
sI6
F62
sI7
F57.499999999999993
sI8
F56.666666666666664
sI9
F86.666666666666671
sI10
F76.666666666666671
sI11
F60
sI12
F60
sI13
F50
sI14
F45
sI15
F45
sI16
F60
sI17
F80
sI18
F60
sI19
F60
sI20
F40
ssS'lin_svc'
p695
(dp696
I2
F77.333333333333329
sI3
F73
sI4
F72.857142857142847
sI5
F75
sI6
F80
sI7
F75
sI8
F76.666666666666671
sI9
F93.333333333333329
sI10
F83.333333333333343
sI11
F65
sI12
F70
sI13
F85
sI14
F80
sI15
F65
sI16
F70
sI17
F90
sI18
F60
sI19
F70
sI20
F60
sssa(dp697
S'subset'
p698
I00
sS'min_len'
p699
I1323
sS'align'
p700
S'cut'
p701
sS'level'
p702
S'task'
p703
sS'dataset'
p704
S'A'
sS'max_len'
p705
I2123
sS'avg_len'
p706
I1736
sS'encode'
p707
S'AFF'
p708
sS'accuracy'
p709
(dp710
S'poly_svc'
p711
(dp712
I2
F77.333333333333329
sI3
F72
sI4
F72.857142857142847
sI5
F78.333333333333329
sI6
F80
sI7
F72.5
sI8
F76.666666666666671
sI9
F93.333333333333329
sI10
F83.333333333333343
sI11
F65
sI12
F75
sI13
F85
sI14
F80
sI15
F60
sI16
F80
sI17
F90
sI18
F70
sI19
F70
sI20
F60
ssS'svc'
p713
(dp714
I2
F77.333333333333329
sI3
F73
sI4
F72.857142857142847
sI5
F75
sI6
F80
sI7
F75
sI8
F76.666666666666671
sI9
F93.333333333333329
sI10
F83.333333333333343
sI11
F65
sI12
F75
sI13
F85
sI14
F80
sI15
F65
sI16
F70
sI17
F90
sI18
F60
sI19
F70
sI20
F60
ssS'rbf_svc'
p715
(dp716
I2
F60
sI3
F54
sI4
F50
sI5
F60
sI6
F62
sI7
F57.499999999999993
sI8
F56.666666666666664
sI9
F86.666666666666671
sI10
F76.666666666666671
sI11
F60
sI12
F60
sI13
F50
sI14
F45
sI15
F45
sI16
F60
sI17
F80
sI18
F60
sI19
F60
sI20
F40
ssS'lin_svc'
p717
(dp718
I2
F77.333333333333329
sI3
F73
sI4
F72.857142857142847
sI5
F75
sI6
F80
sI7
F75
sI8
F76.666666666666671
sI9
F93.333333333333329
sI10
F83.333333333333343
sI11
F65
sI12
F70
sI13
F85
sI14
F80
sI15
F65
sI16
F70
sI17
F90
sI18
F60
sI19
F70
sI20
F60
sssa(dp719
S'subset'
p720
I00
sS'min_len'
p721
I1323
sS'align'
p722
S'cut'
p723
sS'level'
p724
S'task'
p725
sS'dataset'
p726
S'A'
sS'max_len'
p727
I2123
sS'avg_len'
p728
I1736
sS'encode'
p729
S'AFF'
p730
sS'accuracy'
p731
(dp732
S'poly_svc'
p733
(dp734
I2
F77.333333333333329
sI3
F72
sI4
F72.857142857142847
sI5
F78.333333333333329
sI6
F80
sI7
F72.5
sI8
F76.666666666666671
sI9
F93.333333333333329
sI10
F83.333333333333343
sI11
F65
sI12
F75
sI13
F85
sI14
F80
sI15
F60
sI16
F80
sI17
F90
sI18
F70
sI19
F70
sI20
F60
ssS'svc'
p735
(dp736
I2
F77.333333333333329
sI3
F73
sI4
F72.857142857142847
sI5
F75
sI6
F80
sI7
F75
sI8
F76.666666666666671
sI9
F93.333333333333329
sI10
F83.333333333333343
sI11
F65
sI12
F75
sI13
F85
sI14
F80
sI15
F65
sI16
F70
sI17
F90
sI18
F60
sI19
F70
sI20
F60
ssS'rbf_svc'
p737
(dp738
I2
F60
sI3
F54
sI4
F50
sI5
F60
sI6
F62
sI7
F57.499999999999993
sI8
F56.666666666666664
sI9
F86.666666666666671
sI10
F76.666666666666671
sI11
F60
sI12
F60
sI13
F50
sI14
F45
sI15
F45
sI16
F60
sI17
F80
sI18
F60
sI19
F60
sI20
F40
ssS'lin_svc'
p739
(dp740
I2
F77.333333333333329
sI3
F73
sI4
F72.857142857142847
sI5
F75
sI6
F80
sI7
F75
sI8
F76.666666666666671
sI9
F93.333333333333329
sI10
F83.333333333333343
sI11
F65
sI12
F70
sI13
F85
sI14
F80
sI15
F65
sI16
F70
sI17
F90
sI18
F60
sI19
F70
sI20
F60
sssaa(lp741
(dp742
S'subset'
p743
I00
sS'level'
p744
S'behavior'
p745
sS'align'
p746
S'cut'
p747
sS'min_len'
p748
I500
sS'dataset'
p749
S'A'
sS'max_len'
p750
I915
sS'avg_len'
p751
I471
sS'encode'
p752
S'AFF'
p753
sS'accuracy'
p754
(dp755
S'poly_svc'
p756
(dp757
I2
F48.545454545454547
sI3
F47.027027027027032
sI4
F48.888888888888886
sI5
F45.909090909090914
sI6
F50.555555555555557
sI7
F50
sI8
F46.153846153846153
sI9
F57.499999999999993
sI10
F50
sI11
F56.999999999999993
sI12
F54.444444444444443
sI13
F48.75
sI14
F52.857142857142861
sI15
F50
sI16
F55.000000000000007
sI17
F55.000000000000007
sI18
F48.333333333333336
sI19
F42
sI20
F50
ssS'svc'
p758
(dp759
I2
F36.909090909090907
sI3
F38.108108108108105
sI4
F42.592592592592595
sI5
F37.727272727272727
sI6
F41.666666666666671
sI7
F36.666666666666664
sI8
F40.769230769230766
sI9
F44.166666666666664
sI10
F42.727272727272727
sI11
F46
sI12
F45.555555555555557
sI13
F36.25
sI14
F42.857142857142854
sI15
F38.571428571428577
sI16
F50
sI17
F46.666666666666664
sI18
F36.666666666666664
sI19
F48
sI20
F44
ssS'rbf_svc'
p760
(dp761
I2
F34.727272727272727
sI3
F38.378378378378379
sI4
F33.333333333333329
sI5
F34.545454545454547
sI6
F33.888888888888893
sI7
F31.333333333333336
sI8
F32.307692307692307
sI9
F33.333333333333329
sI10
F31.818181818181817
sI11
F30
sI12
F31.111111111111111
sI13
F23.75
sI14
F28.571428571428569
sI15
F28.571428571428569
sI16
F33.333333333333329
sI17
F33.333333333333329
sI18
F28.333333333333332
sI19
F26
sI20
F36
ssS'lin_svc'
p762
(dp763
I2
F28.000000000000004
sI3
F21.351351351351351
sI4
F30.37037037037037
sI5
F22.272727272727273
sI6
F32.777777777777779
sI7
F26.666666666666668
sI8
F26.923076923076923
sI9
F33.333333333333329
sI10
F30
sI11
F33
sI12
F33.333333333333329
sI13
F37.5
sI14
F34.285714285714285
sI15
F37.142857142857146
sI16
F38.333333333333336
sI17
F35
sI18
F25
sI19
F50
sI20
F40
sssa(dp764
g743
I00
sg744
g745
sg746
g747
sg748
I500
sg749
S'B'
sg750
I1995
sg751
I620
sg752
g753
sg754
(dp765
S'poly_svc'
p766
(dp767
I2
F79.684210526315795
sI3
F80.314960629921259
sI4
F80.421052631578945
sI5
F80.131578947368425
sI6
F79.682539682539684
sI7
F82.407407407407405
sI8
F81.276595744680847
sI9
F77.142857142857153
sI10
F84.473684210526315
sI11
F81.764705882352942
sI12
F80
sI13
F83.448275862068968
sI14
F77.407407407407405
sI15
F81.200000000000003
sI16
F79.565217391304344
sI17
F78.63636363636364
sI18
F80.952380952380949
sI19
F78.5
sI20
F76.31578947368422
ssS'svc'
p768
(dp769
I2
F76.684210526315795
sI3
F75.433070866141733
sI4
F76.526315789473685
sI5
F76.18421052631578
sI6
F76.031746031746025
sI7
F77.407407407407405
sI8
F77.446808510638306
sI9
F73.80952380952381
sI10
F80.526315789473685
sI11
F79.705882352941188
sI12
F76.451612903225808
sI13
F76.896551724137936
sI14
F73.703703703703709
sI15
F74.400000000000006
sI16
F74.782608695652172
sI17
F74.545454545454547
sI18
F74.761904761904759
sI19
F73.5
sI20
F75.26315789473685
ssS'rbf_svc'
p770
(dp771
I2
F80.21052631578948
sI3
F80.551181102362207
sI4
F80.631578947368425
sI5
F80.65789473684211
sI6
F80.158730158730165
sI7
F82.777777777777771
sI8
F81.702127659574458
sI9
F79.047619047619051
sI10
F83.421052631578945
sI11
F84.411764705882348
sI12
F79.677419354838705
sI13
F83.793103448275858
sI14
F78.518518518518519
sI15
F80
sI16
F80
sI17
F79.090909090909093
sI18
F81.428571428571431
sI19
F80
sI20
F77.89473684210526
ssS'lin_svc'
p772
(dp773
I2
F70.368421052631575
sI3
F72.598425196850386
sI4
F72.526315789473685
sI5
F70.263157894736835
sI6
F68.095238095238102
sI7
F68.333333333333329
sI8
F68.085106382978722
sI9
F65.714285714285708
sI10
F75.526315789473685
sI11
F66.17647058823529
sI12
F75.806451612903231
sI13
F72.068965517241381
sI14
F72.962962962962962
sI15
F68.799999999999997
sI16
F73.91304347826086
sI17
F66.363636363636374
sI18
F69.523809523809518
sI19
F67
sI20
F68.421052631578945
sssa(dp774
g743
I00
sg744
g745
sg746
g747
sg748
I500
sg749
S'C'
sg750
I14446
sg751
I2162
sg752
g753
sg754
(dp775
S'poly_svc'
p776
(dp777
I2
F23.921568627450981
sI3
F22.647058823529413
sI4
F29.199999999999999
sI5
F30.5
sI6
F31.176470588235293
sI7
F25.714285714285712
sI8
F34.166666666666664
sI9
F23.636363636363637
sI10
F34
sI11
F20
sI12
F31.25
sI13
F15.714285714285714
sI14
F35.714285714285715
sI15
F31.666666666666664
sI16
F30
sI17
F35
sI18
F22
sI19
F34
sI20
F28.000000000000004
ssS'svc'
p778
(dp779
I2
F34.901960784313722
sI3
F43.529411764705884
sI4
F45.600000000000001
sI5
F41.5
sI6
F39.411764705882355
sI7
F44.285714285714285
sI8
F45
sI9
F40.909090909090914
sI10
F50
sI11
F47.777777777777779
sI12
F46.25
sI13
F38.571428571428577
sI14
F35.714285714285715
sI15
F48.333333333333336
sI16
F43.333333333333336
sI17
F53.333333333333336
sI18
F42
sI19
F60
sI20
F46
ssS'rbf_svc'
p780
(dp781
I2
F39.803921568627452
sI3
F38.82352941176471
sI4
F37.600000000000001
sI5
F42.5
sI6
F37.647058823529413
sI7
F37.857142857142854
sI8
F34.166666666666664
sI9
F34.545454545454547
sI10
F35
sI11
F34.444444444444443
sI12
F32.5
sI13
F40
sI14
F34.285714285714285
sI15
F25
sI16
F35
sI17
F36.666666666666664
sI18
F28.000000000000004
sI19
F38
sI20
F32
ssS'lin_svc'
p782
(dp783
I2
F37.058823529411768
sI3
F44.117647058823529
sI4
F44.800000000000004
sI5
F41
sI6
F39.411764705882355
sI7
F42.142857142857146
sI8
F46.666666666666664
sI9
F41.818181818181813
sI10
F49
sI11
F48.888888888888886
sI12
F45
sI13
F42.857142857142854
sI14
F44.285714285714285
sI15
F43.333333333333336
sI16
F43.333333333333336
sI17
F56.666666666666664
sI18
F36
sI19
F56.000000000000007
sI20
F52
sssa(dp784
g743
I00
sg744
g745
sg746
g747
sg748
I500
sg749
S'AC'
p785
sg750
I14446
sg751
I1285
sg752
g753
sg754
(dp786
S'poly_svc'
p787
(dp788
I2
F24.67289719626168
sI3
F28.028169014084508
sI4
F25.849056603773583
sI5
F22.61904761904762
sI6
F26.571428571428573
sI7
F23.333333333333332
sI8
F27.307692307692307
sI9
F36.95652173913043
sI10
F31.904761904761902
sI11
F27.89473684210526
sI12
F28.823529411764703
sI13
F28.749999999999996
sI14
F28.666666666666668
sI15
F27.857142857142858
sI16
F25.384615384615383
sI17
F30.833333333333336
sI18
F24.545454545454547
sI19
F26.36363636363636
sI20
F32
ssS'svc'
p789
(dp790
I2
F30.747663551401871
sI3
F37.605633802816904
sI4
F34.716981132075468
sI5
F33.80952380952381
sI6
F38.857142857142854
sI7
F32.666666666666664
sI8
F35
sI9
F44.782608695652179
sI10
F40
sI11
F36.315789473684212
sI12
F41.17647058823529
sI13
F40
sI14
F34
sI15
F37.857142857142854
sI16
F40
sI17
F34.166666666666664
sI18
F28.18181818181818
sI19
F38.181818181818187
sI20
F42
ssS'rbf_svc'
p791
(dp792
I2
F28.411214953271031
sI3
F29.718309859154928
sI4
F27.358490566037734
sI5
F24.523809523809522
sI6
F27.428571428571431
sI7
F25
sI8
F26.53846153846154
sI9
F30.434782608695656
sI10
F28.095238095238095
sI11
F25.789473684210527
sI12
F26.47058823529412
sI13
F24.375
sI14
F25.333333333333336
sI15
F30.714285714285715
sI16
F18.461538461538463
sI17
F20.833333333333336
sI18
F20
sI19
F26.36363636363636
sI20
F26
ssS'lin_svc'
p793
(dp794
I2
F22.616822429906541
sI3
F24.647887323943664
sI4
F26.60377358490566
sI5
F26.190476190476193
sI6
F31.714285714285712
sI7
F27.333333333333332
sI8
F27.307692307692307
sI9
F35.652173913043477
sI10
F30.476190476190478
sI11
F28.421052631578945
sI12
F32.352941176470587
sI13
F34.375
sI14
F25.333333333333336
sI15
F34.285714285714285
sI16
F31.538461538461537
sI17
F27.500000000000004
sI18
F23.636363636363637
sI19
F29.09090909090909
sI20
F34
sssa(dp795
g743
I00
sg744
g745
sg746
g747
sg748
I500
sg749
S'BC'
p796
sg750
I14446
sg751
I948
sg752
g753
sg754
(dp797
S'poly_svc'
p798
(dp799
I2
F63.801652892561989
sI3
F64.347826086956516
sI4
F64.214876033057848
sI5
F64.166666666666671
sI6
F65
sI7
F64.05797101449275
sI8
F67.666666666666657
sI9
F61.509433962264147
sI10
F66.25
sI11
F60.227272727272727
sI12
F67
sI13
F63.78378378378379
sI14
F62.941176470588232
sI15
F64.6875
sI16
F58.666666666666664
sI17
F67.5
sI18
F69.615384615384613
sI19
F71.200000000000003
sI20
F66.25
ssS'svc'
p800
(dp801
I2
F52.066115702479344
sI3
F55.155279503105589
sI4
F56.859504132231407
sI5
F57.604166666666664
sI6
F58.5
sI7
F55.217391304347828
sI8
F61.833333333333329
sI9
F59.433962264150942
sI10
F58.541666666666671
sI11
F55.909090909090907
sI12
F60.25
sI13
F61.621621621621628
sI14
F59.411764705882355
sI15
F56.562500000000007
sI16
F59.333333333333336
sI17
F58.928571428571431
sI18
F64.230769230769241
sI19
F66
sI20
F61.250000000000007
ssS'rbf_svc'
p802
(dp803
I2
F66.074380165289256
sI3
F66.397515527950318
sI4
F65.619834710743802
sI5
F66.354166666666671
sI6
F67.875
sI7
F65.94202898550725
sI8
F70
sI9
F65.849056603773576
sI10
F67.291666666666671
sI11
F63.409090909090907
sI12
F68.75
sI13
F69.729729729729726
sI14
F64.411764705882362
sI15
F65.3125
sI16
F62.333333333333329
sI17
F69.642857142857139
sI18
F69.230769230769226
sI19
F74.400000000000006
sI20
F69.583333333333329
ssS'lin_svc'
p804
(dp805
I2
F42.396694214876035
sI3
F40
sI4
F43.305785123966942
sI5
F32.1875
sI6
F33.75
sI7
F29.710144927536231
sI8
F38.666666666666664
sI9
F35.660377358490564
sI10
F38.541666666666671
sI11
F45.681818181818187
sI12
F47.25
sI13
F44.594594594594597
sI14
F32.352941176470587
sI15
F42.1875
sI16
F44.666666666666664
sI17
F45.357142857142854
sI18
F37.307692307692307
sI19
F51.600000000000001
sI20
F34.583333333333336
sssa(dp806
g743
I00
sg744
g745
sg746
g747
sg748
I500
sg749
S'ABC'
p807
sg750
I14446
sg751
I859
sg752
g753
sg754
(dp808
S'poly_svc'
p809
(dp810
I2
F54.208754208754208
sI3
F53.63636363636364
sI4
F51.689189189189186
sI5
F51.596638655462193
sI6
F51.616161616161612
sI7
F49.647058823529413
sI8
F53.378378378378379
sI9
F50.606060606060609
sI10
F50.847457627118644
sI11
F53.148148148148145
sI12
F48.367346938775512
sI13
F53.555555555555557
sI14
F52.142857142857146
sI15
F52.820512820512825
sI16
F51.081081081081081
sI17
F51.142857142857146
sI18
F50.606060606060609
sI19
F52.258064516129032
sI20
F54.137931034482754
ssS'svc'
p811
(dp812
I2
F45.622895622895619
sI3
F47.474747474747474
sI4
F46.283783783783782
sI5
F44.621848739495803
sI6
F47.37373737373737
sI7
F48.823529411764703
sI8
F49.054054054054049
sI9
F46.666666666666664
sI10
F48.644067796610166
sI11
F48.703703703703702
sI12
F46.122448979591837
sI13
F49.333333333333336
sI14
F47.38095238095238
sI15
F50.256410256410255
sI16
F45.135135135135137
sI17
F51.142857142857146
sI18
F46.666666666666664
sI19
F48.387096774193552
sI20
F48.96551724137931
ssS'rbf_svc'
p813
(dp814
I2
F55.959595959595966
sI3
F55.101010101010104
sI4
F53.851351351351354
sI5
F52.857142857142861
sI6
F52.929292929292927
sI7
F52.470588235294116
sI8
F54.729729729729726
sI9
F50.757575757575758
sI10
F53.389830508474581
sI11
F52.777777777777779
sI12
F50.204081632653065
sI13
F53.111111111111107
sI14
F52.380952380952387
sI15
F54.871794871794876
sI16
F52.972972972972975
sI17
F53.428571428571423
sI18
F50
sI19
F55.483870967741936
sI20
F54.137931034482754
ssS'lin_svc'
p815
(dp816
I2
F28.249158249158253
sI3
F26.313131313131311
sI4
F29.054054054054053
sI5
F26.05042016806723
sI6
F25.959595959595958
sI7
F23.52941176470588
sI8
F23.108108108108109
sI9
F22.272727272727273
sI10
F24.745762711864408
sI11
F26.666666666666668
sI12
F17.755102040816325
sI13
F21.777777777777775
sI14
F21.904761904761905
sI15
F27.179487179487179
sI16
F19.189189189189189
sI17
F28.285714285714285
sI18
F22.727272727272727
sI19
F26.7741935483871
sI20
F27.586206896551722
sssaa(lp817
(dp818
S'subset'
p819
I00
sS'level'
p820
S'task'
p821
sS'align'
p822
S'interp'
p823
sS'min_len'
p824
I1323
sS'dataset'
p825
S'A'
sS'max_len'
p826
I2123
sS'avg_len'
p827
I1736
sS'encode'
p828
S'FF'
p829
sS'accuracy'
p830
(dp831
S'poly_svc'
p832
(dp833
I2
F34.666666666666671
sI3
F31
sI4
F38.571428571428577
sI5
F51.666666666666671
sI6
F40
sI7
F32.5
sI8
F30
sI9
F43.333333333333336
sI10
F33.333333333333329
sI11
F30
sI12
F65
sI13
F55.000000000000007
sI14
F50
sI15
F50
sI16
F50
sI17
F40
sI18
F70
sI19
F70
sI20
F50
ssS'svc'
p834
(dp835
I2
F88
sI3
F83
sI4
F77.142857142857153
sI5
F88.333333333333329
sI6
F82
sI7
F90
sI8
F90
sI9
F83.333333333333343
sI10
F90
sI11
F75
sI12
F90
sI13
F90
sI14
F90
sI15
F75
sI16
F80
sI17
F80
sI18
F100
sI19
F100
sI20
F100
ssS'rbf_svc'
p836
(dp837
I2
F60
sI3
F51
sI4
F55.714285714285715
sI5
F51.666666666666671
sI6
F38
sI7
F57.499999999999993
sI8
F43.333333333333336
sI9
F66.666666666666657
sI10
F70
sI11
F40
sI12
F45
sI13
F55.000000000000007
sI14
F60
sI15
F35
sI16
F60
sI17
F40
sI18
F80
sI19
F60
sI20
F50
ssS'lin_svc'
p838
(dp839
I2
F89.333333333333329
sI3
F86
sI4
F80
sI5
F88.333333333333329
sI6
F84
sI7
F90
sI8
F90
sI9
F83.333333333333343
sI10
F90
sI11
F85
sI12
F90
sI13
F90
sI14
F90
sI15
F80
sI16
F80
sI17
F80
sI18
F100
sI19
F100
sI20
F100
sssa(dp840
g819
I00
sg820
g821
sg822
g823
sg824
I860
sg825
S'B'
sg826
I1995
sg827
I1245
sg828
g829
sg830
(dp841
S'poly_svc'
p842
(dp843
I2
F75.89473684210526
sI3
F78.412698412698418
sI4
F80.212765957446805
sI5
F76.05263157894737
sI6
F76.129032258064512
sI7
F81.481481481481481
sI8
F76.956521739130437
sI9
F77.61904761904762
sI10
F76.84210526315789
sI11
F77.058823529411768
sI12
F78.666666666666657
sI13
F77.857142857142861
sI14
F80
sI15
F80
sI16
F70.909090909090907
sI17
F80.909090909090907
sI18
F71
sI19
F80
sI20
F81.111111111111114
ssS'svc'
p844
(dp845
I2
F72.631578947368425
sI3
F75.396825396825392
sI4
F76.808510638297875
sI5
F75.526315789473685
sI6
F74.516129032258064
sI7
F78.148148148148138
sI8
F76.521739130434781
sI9
F77.61904761904762
sI10
F76.31578947368422
sI11
F75.882352941176464
sI12
F78
sI13
F74.285714285714292
sI14
F76.923076923076934
sI15
F76.666666666666671
sI16
F70
sI17
F83.636363636363626
sI18
F68
sI19
F76
sI20
F78.888888888888886
ssS'rbf_svc'
p846
(dp847
I2
F80.21052631578948
sI3
F80.317460317460316
sI4
F82.340425531914889
sI5
F80.78947368421052
sI6
F80.645161290322577
sI7
F85.925925925925924
sI8
F78.695652173913047
sI9
F81.904761904761898
sI10
F78.421052631578945
sI11
F78.82352941176471
sI12
F78
sI13
F80.714285714285722
sI14
F83.07692307692308
sI15
F85
sI16
F76.363636363636374
sI17
F85.454545454545453
sI18
F76
sI19
F80
sI20
F83.333333333333343
ssS'lin_svc'
p848
(dp849
I2
F71.684210526315795
sI3
F75.714285714285708
sI4
F75.531914893617028
sI5
F74.73684210526315
sI6
F73.225806451612911
sI7
F77.407407407407405
sI8
F75.65217391304347
sI9
F75.714285714285708
sI10
F76.31578947368422
sI11
F72.941176470588232
sI12
F76
sI13
F75
sI14
F76.153846153846146
sI15
F76.666666666666671
sI16
F68.181818181818173
sI17
F80.909090909090907
sI18
F66
sI19
F74
sI20
F75.555555555555557
sssa(dp850
g819
I00
sg820
g821
sg822
g823
sg824
I4397
sg825
S'C'
sg826
I16799
sg827
I6960
sg828
g829
sg830
(dp851
S'poly_svc'
p852
(dp853
I2
F80
sI3
F81
sI4
F82.5
sI5
F80
sI6
F72
sI7
F85
sI8
F80
sI9
F80
sI10
F86.666666666666671
sI11
F75
sI12
F90
sI13
F90
sI14
F80
sI15
F55.000000000000007
sI16
F95
sI17
F90
sI18
F80
sI19
F80
sI20
F80
ssS'svc'
p854
(dp855
I2
F80
sI3
F81
sI4
F82.5
sI5
F80
sI6
F72
sI7
F85
sI8
F80
sI9
F80
sI10
F86.666666666666671
sI11
F75
sI12
F90
sI13
F90
sI14
F80
sI15
F55.000000000000007
sI16
F95
sI17
F90
sI18
F80
sI19
F80
sI20
F80
ssS'rbf_svc'
p856
(dp857
I2
F80
sI3
F81
sI4
F82.5
sI5
F80
sI6
F72
sI7
F85
sI8
F80
sI9
F80
sI10
F86.666666666666671
sI11
F75
sI12
F90
sI13
F90
sI14
F80
sI15
F55.000000000000007
sI16
F95
sI17
F90
sI18
F80
sI19
F80
sI20
F80
ssS'lin_svc'
p858
(dp859
I2
F81.875
sI3
F82
sI4
F82.5
sI5
F83.333333333333343
sI6
F72
sI7
F85
sI8
F80
sI9
F80
sI10
F86.666666666666671
sI11
F75
sI12
F90
sI13
F90
sI14
F80
sI15
F55.000000000000007
sI16
F95
sI17
F90
sI18
F80
sI19
F80
sI20
F80
sssa(dp860
g819
I00
sg820
g821
sg822
g823
sg824
I1323
sg825
S'AC'
p861
sg826
I16799
sg827
I4389
sg828
g829
sg830
(dp862
S'poly_svc'
p863
(dp864
I2
F40.967741935483872
sI3
F40.952380952380949
sI4
F47.333333333333336
sI5
F49.166666666666664
sI6
F37
sI7
F48.888888888888886
sI8
F37.142857142857146
sI9
F51.428571428571423
sI10
F50
sI11
F32
sI12
F44
sI13
F47.5
sI14
F50
sI15
F52.5
sI16
F36.666666666666664
sI17
F60
sI18
F43.333333333333336
sI19
F46.666666666666664
sI20
F50
ssS'svc'
p865
(dp866
I2
F71.290322580645153
sI3
F76.19047619047619
sI4
F80
sI5
F81.666666666666671
sI6
F73
sI7
F80
sI8
F75.714285714285708
sI9
F80
sI10
F85
sI11
F72
sI12
F80
sI13
F75
sI14
F70
sI15
F82.5
sI16
F93.333333333333329
sI17
F90
sI18
F86.666666666666671
sI19
F73.333333333333329
sI20
F80
ssS'rbf_svc'
p867
(dp868
I2
F35.483870967741936
sI3
F33.80952380952381
sI4
F42
sI5
F42.5
sI6
F32
sI7
F40
sI8
F24.285714285714285
sI9
F47.142857142857139
sI10
F46.666666666666664
sI11
F28.000000000000004
sI12
F36
sI13
F45
sI14
F42.5
sI15
F45
sI16
F30
sI17
F50
sI18
F40
sI19
F43.333333333333336
sI20
F43.333333333333336
ssS'lin_svc'
p869
(dp870
I2
F77.096774193548384
sI3
F79.523809523809518
sI4
F84.666666666666671
sI5
F85
sI6
F77
sI7
F83.333333333333343
sI8
F81.428571428571431
sI9
F84.285714285714292
sI10
F86.666666666666671
sI11
F80
sI12
F84
sI13
F77.5
sI14
F77.5
sI15
F85
sI16
F93.333333333333329
sI17
F90
sI18
F90
sI19
F80
sI20
F80
sssa(dp871
g819
I00
sg820
g821
sg822
g823
sg824
I860
sg825
S'BC'
p872
sg826
I16799
sg827
I2068
sg828
g829
sg830
(dp873
S'poly_svc'
p874
(dp875
I2
F44.32432432432433
sI3
F48.108108108108112
sI4
F54
sI5
F55.909090909090907
sI6
F52.162162162162161
sI7
F58.387096774193544
sI8
F62.962962962962962
sI9
F63.333333333333329
sI10
F53.181818181818187
sI11
F59
sI12
F52.777777777777779
sI13
F62.352941176470587
sI14
F59.333333333333336
sI15
F55.000000000000007
sI16
F56.153846153846153
sI17
F68.461538461538467
sI18
F55.833333333333336
sI19
F62.727272727272734
sI20
F60.909090909090914
ssS'svc'
p876
(dp877
I2
F77.747747747747752
sI3
F75.945945945945951
sI4
F78.72727272727272
sI5
F75.454545454545453
sI6
F78.648648648648646
sI7
F76.451612903225808
sI8
F80.370370370370367
sI9
F80.833333333333329
sI10
F73.636363636363626
sI11
F77.5
sI12
F73.333333333333329
sI13
F76.470588235294116
sI14
F74
sI15
F72.857142857142847
sI16
F79.230769230769226
sI17
F87.692307692307693
sI18
F78.333333333333329
sI19
F81.818181818181827
sI20
F77.272727272727266
ssS'rbf_svc'
p878
(dp879
I2
F69.819819819819813
sI3
F69.864864864864856
sI4
F68.545454545454547
sI5
F65.454545454545453
sI6
F69.189189189189193
sI7
F69.354838709677423
sI8
F67.037037037037038
sI9
F72.083333333333329
sI10
F72.727272727272734
sI11
F69.5
sI12
F67.777777777777786
sI13
F60.588235294117645
sI14
F68.666666666666671
sI15
F67.142857142857139
sI16
F69.230769230769226
sI17
F75.384615384615387
sI18
F66.666666666666657
sI19
F66.363636363636374
sI20
F74.545454545454547
ssS'lin_svc'
p880
(dp881
I2
F74.054054054054049
sI3
F72.567567567567565
sI4
F74
sI5
F73.86363636363636
sI6
F75.945945945945951
sI7
F73.548387096774192
sI8
F78.148148148148138
sI9
F77.5
sI10
F74.090909090909093
sI11
F76
sI12
F70
sI13
F70.588235294117652
sI14
F70.666666666666671
sI15
F70
sI16
F76.923076923076934
sI17
F80.769230769230774
sI18
F76.666666666666671
sI19
F74.545454545454547
sI20
F72.727272727272734
sssa(dp882
g819
I00
sg820
g821
sg822
g823
sg824
I860
sg825
S'ABC'
p883
sg826
I16799
sg827
I2028
sg828
g829
sg830
(dp884
S'poly_svc'
p885
(dp886
I2
F40.714285714285715
sI3
F47.023809523809526
sI4
F52.539682539682545
sI5
F50.200000000000003
sI6
F52.380952380952387
sI7
F52.222222222222229
sI8
F57.41935483870968
sI9
F50.714285714285708
sI10
F51.200000000000003
sI11
F56.086956521739125
sI12
F64.285714285714292
sI13
F60
sI14
F53.888888888888886
sI15
F55.000000000000007
sI16
F61.333333333333329
sI17
F55.000000000000007
sI18
F56.428571428571431
sI19
F58.461538461538467
sI20
F66.666666666666657
ssS'svc'
p887
(dp888
I2
F73.412698412698404
sI3
F74.285714285714292
sI4
F76.666666666666671
sI5
F74.599999999999994
sI6
F75.714285714285708
sI7
F76.388888888888886
sI8
F74.838709677419359
sI9
F76.071428571428569
sI10
F70.799999999999997
sI11
F77.826086956521735
sI12
F80.952380952380949
sI13
F81.578947368421055
sI14
F72.222222222222214
sI15
F75.625
sI16
F78.666666666666657
sI17
F81.428571428571431
sI18
F77.142857142857153
sI19
F78.461538461538467
sI20
F83.333333333333343
ssS'rbf_svc'
p889
(dp890
I2
F60.714285714285708
sI3
F60.833333333333329
sI4
F60.476190476190474
sI5
F61.600000000000001
sI6
F59.047619047619051
sI7
F64.166666666666671
sI8
F60
sI9
F57.857142857142861
sI10
F58.399999999999999
sI11
F63.913043478260867
sI12
F62.857142857142854
sI13
F57.368421052631582
sI14
F57.777777777777771
sI15
F57.499999999999993
sI16
F64
sI17
F67.857142857142861
sI18
F59.285714285714285
sI19
F60
sI20
F61.666666666666671
ssS'lin_svc'
p891
(dp892
I2
F70.952380952380949
sI3
F70.11904761904762
sI4
F74.285714285714292
sI5
F70.799999999999997
sI6
F72.61904761904762
sI7
F73.888888888888886
sI8
F73.870967741935488
sI9
F73.214285714285708
sI10
F68.799999999999997
sI11
F73.91304347826086
sI12
F78.095238095238102
sI13
F72.631578947368425
sI14
F68.888888888888886
sI15
F74.375
sI16
F76
sI17
F77.142857142857153
sI18
F72.857142857142847
sI19
F73.846153846153854
sI20
F83.333333333333343
sssaa(lp893
(dp894
S'subset'
p895
I00
sS'level'
p896
S'behavior'
p897
sS'align'
p898
S'interp'
p899
sS'min_len'
p900
I500
sS'dataset'
p901
S'A'
sS'max_len'
p902
I915
sS'avg_len'
p903
I471
sS'encode'
p904
S'FF'
p905
sS'accuracy'
p906
(dp907
S'poly_svc'
p908
(dp909
I2
F36.909090909090907
sI3
F35.945945945945944
sI4
F35.185185185185183
sI5
F34.545454545454547
sI6
F32.777777777777779
sI7
F32
sI8
F32.307692307692307
sI9
F36.666666666666664
sI10
F35.454545454545453
sI11
F25
sI12
F33.333333333333329
sI13
F36.25
sI14
F34.285714285714285
sI15
F32.857142857142854
sI16
F40
sI17
F33.333333333333329
sI18
F30
sI19
F32
sI20
F24
ssS'svc'
p910
(dp911
I2
F24.545454545454547
sI3
F25.945945945945947
sI4
F28.518518518518519
sI5
F31.363636363636367
sI6
F30
sI7
F29.333333333333332
sI8
F30
sI9
F29.166666666666668
sI10
F29.09090909090909
sI11
F26
sI12
F23.333333333333332
sI13
F36.25
sI14
F30
sI15
F31.428571428571427
sI16
F30
sI17
F31.666666666666664
sI18
F25
sI19
F24
sI20
F20
ssS'rbf_svc'
p912
(dp913
I2
F20.363636363636363
sI3
F19.72972972972973
sI4
F17.407407407407408
sI5
F16.363636363636363
sI6
F17.777777777777779
sI7
F15.333333333333332
sI8
F16.153846153846153
sI9
F13.333333333333334
sI10
F14.545454545454545
sI11
F15
sI12
F15.555555555555555
sI13
F16.25
sI14
F14.285714285714285
sI15
F17.142857142857142
sI16
F15
sI17
F15
sI18
F10
sI19
F12
sI20
F16
ssS'lin_svc'
p914
(dp915
I2
F31.272727272727273
sI3
F32.702702702702702
sI4
F37.037037037037038
sI5
F40.909090909090914
sI6
F36.111111111111107
sI7
F40
sI8
F43.07692307692308
sI9
F39.166666666666664
sI10
F43.636363636363633
sI11
F39
sI12
F40
sI13
F45
sI14
F35.714285714285715
sI15
F38.571428571428577
sI16
F41.666666666666671
sI17
F40
sI18
F33.333333333333329
sI19
F30
sI20
F36
sssa(dp916
g895
I00
sg896
g897
sg898
g899
sg900
I500
sg901
S'B'
sg902
I1995
sg903
I620
sg904
g905
sg906
(dp917
S'poly_svc'
p918
(dp919
I2
F70.05263157894737
sI3
F71.889763779527556
sI4
F74.73684210526315
sI5
F73.15789473684211
sI6
F75.555555555555557
sI7
F73.703703703703709
sI8
F74.255319148936167
sI9
F75.714285714285708
sI10
F75.26315789473685
sI11
F75.882352941176464
sI12
F79.677419354838705
sI13
F74.827586206896555
sI14
F75.555555555555557
sI15
F71.200000000000003
sI16
F72.608695652173921
sI17
F73.181818181818187
sI18
F79.047619047619051
sI19
F76
sI20
F82.631578947368425
ssS'svc'
p920
(dp921
I2
F75.473684210526315
sI3
F75.196850393700785
sI4
F77.15789473684211
sI5
F76.578947368421055
sI6
F74.603174603174608
sI7
F74.074074074074076
sI8
F75.531914893617028
sI9
F76.428571428571416
sI10
F75
sI11
F77.64705882352942
sI12
F79.032258064516128
sI13
F76.206896551724128
sI14
F79.259259259259267
sI15
F76
sI16
F78.695652173913047
sI17
F72.27272727272728
sI18
F72.38095238095238
sI19
F74.5
sI20
F82.631578947368425
ssS'rbf_svc'
p922
(dp923
I2
F53.684210526315788
sI3
F52.834645669291334
sI4
F51.789473684210527
sI5
F54.078947368421048
sI6
F52.857142857142861
sI7
F57.407407407407405
sI8
F53.617021276595743
sI9
F55.476190476190482
sI10
F53.94736842105263
sI11
F54.705882352941181
sI12
F58.064516129032263
sI13
F59.310344827586206
sI14
F52.222222222222229
sI15
F58.799999999999997
sI16
F55.217391304347828
sI17
F52.272727272727273
sI18
F51.904761904761912
sI19
F53.5
sI20
F56.84210526315789
ssS'lin_svc'
p924
(dp925
I2
F71.368421052631575
sI3
F72.125984251968504
sI4
F73.473684210526315
sI5
F73.15789473684211
sI6
F72.38095238095238
sI7
F71.296296296296291
sI8
F70.638297872340431
sI9
F75.476190476190482
sI10
F71.578947368421055
sI11
F74.705882352941174
sI12
F75.161290322580641
sI13
F74.137931034482762
sI14
F76.666666666666671
sI15
F75.200000000000003
sI16
F73.043478260869563
sI17
F70.454545454545453
sI18
F71.428571428571431
sI19
F70.5
sI20
F81.05263157894737
sssa(dp926
g895
I00
sg896
g897
sg898
g899
sg900
I500
sg901
S'C'
sg902
I14446
sg903
I2162
sg904
g905
sg906
(dp927
S'poly_svc'
p928
(dp929
I2
F19.607843137254903
sI3
F17.941176470588236
sI4
F20.399999999999999
sI5
F21
sI6
F18.235294117647058
sI7
F17.142857142857142
sI8
F18.333333333333332
sI9
F17.272727272727273
sI10
F16
sI11
F17.777777777777779
sI12
F7.5
sI13
F18.571428571428573
sI14
F14.285714285714285
sI15
F11.666666666666666
sI16
F15
sI17
F13.333333333333334
sI18
F12
sI19
F14.000000000000002
sI20
F8
ssS'svc'
p930
(dp931
I2
F44.901960784313729
sI3
F48.235294117647058
sI4
F64.799999999999997
sI5
F63.5
sI6
F66.470588235294116
sI7
F61.428571428571431
sI8
F60
sI9
F62.727272727272734
sI10
F60
sI11
F63.333333333333329
sI12
F65
sI13
F61.428571428571431
sI14
F60
sI15
F65
sI16
F66.666666666666657
sI17
F78.333333333333329
sI18
F57.999999999999993
sI19
F64
sI20
F62
ssS'rbf_svc'
p932
(dp933
I2
F36.078431372549019
sI3
F32.941176470588232
sI4
F36.399999999999999
sI5
F35
sI6
F37.647058823529413
sI7
F37.857142857142854
sI8
F34.166666666666664
sI9
F36.363636363636367
sI10
F39
sI11
F34.444444444444443
sI12
F31.25
sI13
F38.571428571428577
sI14
F32.857142857142854
sI15
F41.666666666666671
sI16
F33.333333333333329
sI17
F30
sI18
F28.000000000000004
sI19
F28.000000000000004
sI20
F32
ssS'lin_svc'
p934
(dp935
I2
F50.196078431372548
sI3
F51.764705882352949
sI4
F57.599999999999994
sI5
F59
sI6
F60.588235294117645
sI7
F52.857142857142861
sI8
F62.5
sI9
F60
sI10
F56.999999999999993
sI11
F55.555555555555557
sI12
F58.75
sI13
F57.142857142857139
sI14
F67.142857142857139
sI15
F66.666666666666657
sI16
F61.666666666666671
sI17
F73.333333333333329
sI18
F48
sI19
F62
sI20
F56.000000000000007
sssa(dp936
g895
I00
sg896
g897
sg898
g899
sg900
I500
sg901
S'AC'
p937
sg902
I14446
sg903
I1285
sg904
g905
sg906
(dp938
S'poly_svc'
p939
(dp940
I2
F19.158878504672895
sI3
F21.830985915492956
sI4
F20.566037735849058
sI5
F20
sI6
F20.571428571428569
sI7
F20
sI8
F21.153846153846153
sI9
F16.521739130434781
sI10
F17.61904761904762
sI11
F15.263157894736842
sI12
F17.647058823529413
sI13
F23.75
sI14
F18
sI15
F15.714285714285714
sI16
F18.461538461538463
sI17
F20.833333333333336
sI18
F14.545454545454545
sI19
F16.363636363636363
sI20
F17
ssS'svc'
p941
(dp942
I2
F34.205607476635514
sI3
F41.267605633802816
sI4
F41.320754716981135
sI5
F41.666666666666671
sI6
F43.428571428571431
sI7
F44.666666666666664
sI8
F41.923076923076927
sI9
F41.739130434782609
sI10
F42.857142857142854
sI11
F46.315789473684212
sI12
F41.764705882352942
sI13
F45
sI14
F49.333333333333336
sI15
F45.714285714285715
sI16
F40.769230769230766
sI17
F45
sI18
F46.36363636363636
sI19
F42.727272727272727
sI20
F50
ssS'rbf_svc'
p943
(dp944
I2
F15.981308411214954
sI3
F20.845070422535212
sI4
F21.69811320754717
sI5
F19.761904761904763
sI6
F20.285714285714285
sI7
F17.666666666666668
sI8
F21.53846153846154
sI9
F20.434782608695652
sI10
F20.952380952380953
sI11
F18.947368421052634
sI12
F19.411764705882355
sI13
F18.75
sI14
F16
sI15
F18.571428571428573
sI16
F13.846153846153847
sI17
F18.333333333333332
sI18
F15.454545454545453
sI19
F18.181818181818183
sI20
F17
ssS'lin_svc'
p945
(dp946
I2
F38.13084112149533
sI3
F43.380281690140841
sI4
F42.641509433962263
sI5
F40.952380952380949
sI6
F46.571428571428569
sI7
F42.666666666666671
sI8
F45.384615384615387
sI9
F45.217391304347828
sI10
F47.142857142857139
sI11
F43.15789473684211
sI12
F41.764705882352942
sI13
F47.5
sI14
F46
sI15
F43.571428571428569
sI16
F40.769230769230766
sI17
F50
sI18
F45.454545454545453
sI19
F41.818181818181813
sI20
F51
sssa(dp947
g895
I00
sg896
g897
sg898
g899
sg900
I500
sg901
S'BC'
p948
sg902
I14446
sg903
I948
sg904
g905
sg906
(dp949
S'poly_svc'
p950
(dp951
I2
F52.47933884297521
sI3
F54.534161490683232
sI4
F56.694214876033058
sI5
F56.041666666666664
sI6
F56.999999999999993
sI7
F55.217391304347828
sI8
F55.000000000000007
sI9
F55.849056603773583
sI10
F54.374999999999993
sI11
F60
sI12
F54.75
sI13
F50
sI14
F55.294117647058826
sI15
F55.000000000000007
sI16
F57.666666666666664
sI17
F57.857142857142861
sI18
F53.846153846153847
sI19
F56.799999999999997
sI20
F60.833333333333329
ssS'svc'
p952
(dp953
I2
F68.84297520661157
sI3
F69.627329192546583
sI4
F72.066115702479337
sI5
F71.5625
sI6
F75.375
sI7
F71.884057971014499
sI8
F72.333333333333343
sI9
F69.811320754716974
sI10
F67.916666666666671
sI11
F71.818181818181813
sI12
F71.75
sI13
F70
sI14
F71.764705882352942
sI15
F72.8125
sI16
F72.666666666666671
sI17
F78.571428571428569
sI18
F67.692307692307693
sI19
F75.200000000000003
sI20
F70.416666666666671
ssS'rbf_svc'
p954
(dp955
I2
F39.752066115702476
sI3
F43.167701863354033
sI4
F43.471074380165284
sI5
F42.916666666666664
sI6
F46.875
sI7
F44.05797101449275
sI8
F45.333333333333329
sI9
F43.018867924528301
sI10
F42.916666666666664
sI11
F45
sI12
F46
sI13
F41.891891891891895
sI14
F48.529411764705884
sI15
F46.875
sI16
F48.333333333333336
sI17
F46.428571428571431
sI18
F40.769230769230766
sI19
F48.799999999999997
sI20
F41.666666666666671
ssS'lin_svc'
p956
(dp957
I2
F61.157024793388423
sI3
F63.664596273291927
sI4
F64.214876033057848
sI5
F64.0625
sI6
F66
sI7
F63.04347826086957
sI8
F63.333333333333329
sI9
F64.528301886792448
sI10
F63.125
sI11
F67.045454545454547
sI12
F64.5
sI13
F61.351351351351347
sI14
F63.235294117647058
sI15
F65.9375
sI16
F64.333333333333329
sI17
F64.642857142857153
sI18
F59.615384615384613
sI19
F67.600000000000009
sI20
F67.083333333333329
sssa(dp958
g895
I00
sg896
g897
sg898
g899
sg900
I500
sg901
S'ABC'
p959
sg902
I14446
sg903
I859
sg904
g905
sg906
(dp960
S'poly_svc'
p961
(dp962
I2
F48.484848484848484
sI3
F48.333333333333336
sI4
F49.594594594594597
sI5
F49.747899159663866
sI6
F50.202020202020201
sI7
F50.588235294117645
sI8
F50
sI9
F50.303030303030305
sI10
F48.474576271186443
sI11
F47.407407407407412
sI12
F49.795918367346935
sI13
F47.777777777777779
sI14
F53.571428571428569
sI15
F48.205128205128204
sI16
F50.540540540540533
sI17
F52.285714285714292
sI18
F50.606060606060609
sI19
F48.70967741935484
sI20
F48.620689655172413
ssS'svc'
p963
(dp964
I2
F59.494949494949488
sI3
F59.090909090909093
sI4
F60.472972972972968
sI5
F62.352941176470587
sI6
F61.313131313131308
sI7
F61.647058823529413
sI8
F58.513513513513516
sI9
F61.818181818181813
sI10
F62.711864406779661
sI11
F60.185185185185183
sI12
F60.204081632653065
sI13
F62
sI14
F62.61904761904762
sI15
F58.974358974358978
sI16
F60.540540540540547
sI17
F61.142857142857146
sI18
F64.242424242424249
sI19
F59.354838709677416
sI20
F60
ssS'rbf_svc'
p965
(dp966
I2
F34.175084175084173
sI3
F34.242424242424242
sI4
F36.148648648648653
sI5
F37.647058823529413
sI6
F35.555555555555557
sI7
F36.352941176470587
sI8
F37.972972972972975
sI9
F34.545454545454547
sI10
F37.457627118644069
sI11
F34.25925925925926
sI12
F34.897959183673471
sI13
F35.333333333333336
sI14
F35.476190476190474
sI15
F36.410256410256409
sI16
F38.648648648648646
sI17
F38.285714285714285
sI18
F33.030303030303031
sI19
F34.193548387096776
sI20
F37.586206896551722
ssS'lin_svc'
p967
(dp968
I2
F52.592592592592588
sI3
F53.484848484848477
sI4
F54.864864864864856
sI5
F56.386554621848738
sI6
F54.54545454545454
sI7
F56.588235294117652
sI8
F54.594594594594589
sI9
F55.000000000000007
sI10
F57.627118644067799
sI11
F54.814814814814817
sI12
F52.040816326530617
sI13
F53.777777777777779
sI14
F59.047619047619051
sI15
F55.384615384615387
sI16
F54.594594594594589
sI17
F55.142857142857139
sI18
F58.18181818181818
sI19
F52.258064516129032
sI20
F53.448275862068961
sssaa(lp969
(dp970
S'subset'
p971
I00
sS'min_len'
p972
I1323
sS'align'
p973
S'interp'
p974
sS'level'
p975
S'task'
p976
sS'dataset'
p977
S'A'
sS'max_len'
p978
I2123
sS'avg_len'
p979
I1736
sS'encode'
p980
S'AFF'
p981
sS'accuracy'
p982
(dp983
S'poly_svc'
p984
(dp985
I2
F40
sI3
F44
sI4
F52.857142857142861
sI5
F58.333333333333336
sI6
F50
sI7
F55.000000000000007
sI8
F60
sI9
F60
sI10
F73.333333333333329
sI11
F65
sI12
F50
sI13
F70
sI14
F65
sI15
F60
sI16
F80
sI17
F50
sI18
F60
sI19
F50
sI20
F70
ssS'svc'
p986
(dp987
I2
F83.333333333333343
sI3
F83
sI4
F82.857142857142861
sI5
F88.333333333333329
sI6
F84
sI7
F77.5
sI8
F86.666666666666671
sI9
F90
sI10
F83.333333333333343
sI11
F85
sI12
F85
sI13
F85
sI14
F85
sI15
F85
sI16
F100
sI17
F90
sI18
F100
sI19
F80
sI20
F100
ssS'rbf_svc'
p988
(dp989
I2
F57.999999999999993
sI3
F63
sI4
F57.142857142857139
sI5
F53.333333333333336
sI6
F57.999999999999993
sI7
F45
sI8
F56.666666666666664
sI9
F73.333333333333329
sI10
F43.333333333333336
sI11
F50
sI12
F50
sI13
F65
sI14
F45
sI15
F45
sI16
F50
sI17
F70
sI18
F60
sI19
F50
sI20
F60
ssS'lin_svc'
p990
(dp991
I2
F84.666666666666671
sI3
F86
sI4
F82.857142857142861
sI5
F88.333333333333329
sI6
F86
sI7
F77.5
sI8
F86.666666666666671
sI9
F90
sI10
F83.333333333333343
sI11
F90
sI12
F85
sI13
F85
sI14
F85
sI15
F85
sI16
F100
sI17
F90
sI18
F100
sI19
F80
sI20
F100
sssa(dp992
S'subset'
p993
I00
sS'level'
p994
S'task'
p995
sS'align'
p996
S'interp'
p997
sS'min_len'
p998
I860
sS'dataset'
p999
S'B'
sS'max_len'
p1000
I1995
sS'avg_len'
p1001
I1245
sS'encode'
p1002
S'AFF'
p1003
sS'accuracy'
p1004
(dp1005
S'poly_svc'
p1006
(dp1007
I2
F77.473684210526315
sI3
F78.412698412698418
sI4
F77.446808510638306
sI5
F77.368421052631575
sI6
F76.129032258064512
sI7
F73.333333333333329
sI8
F79.565217391304344
sI9
F76.19047619047619
sI10
F72.631578947368425
sI11
F80
sI12
F82
sI13
F80
sI14
F80.769230769230774
sI15
F75
sI16
F80
sI17
F78.181818181818187
sI18
F80
sI19
F70
sI20
F74.444444444444443
ssS'svc'
p1008
(dp1009
I2
F76.105263157894726
sI3
F73.492063492063494
sI4
F76.382978723404264
sI5
F75.26315789473685
sI6
F75.806451612903231
sI7
F71.111111111111114
sI8
F79.130434782608688
sI9
F76.19047619047619
sI10
F74.210526315789465
sI11
F81.17647058823529
sI12
F80
sI13
F80
sI14
F80
sI15
F75
sI16
F84.545454545454547
sI17
F80
sI18
F79
sI19
F72
sI20
F73.333333333333329
ssS'rbf_svc'
p1010
(dp1011
I2
F80.631578947368425
sI3
F81.428571428571431
sI4
F80.212765957446805
sI5
F81.315789473684205
sI6
F77.741935483870975
sI7
F76.666666666666671
sI8
F80.869565217391298
sI9
F76.666666666666671
sI10
F77.89473684210526
sI11
F81.764705882352942
sI12
F82
sI13
F83.571428571428569
sI14
F83.846153846153854
sI15
F79.166666666666657
sI16
F83.636363636363626
sI17
F87.272727272727266
sI18
F81
sI19
F73
sI20
F75.555555555555557
ssS'lin_svc'
p1012
(dp1013
I2
F75.89473684210526
sI3
F72.38095238095238
sI4
F75.106382978723403
sI5
F75
sI6
F73.225806451612911
sI7
F72.222222222222214
sI8
F76.521739130434781
sI9
F73.333333333333329
sI10
F73.15789473684211
sI11
F77.058823529411768
sI12
F79.333333333333329
sI13
F81.428571428571431
sI14
F78.461538461538467
sI15
F75.833333333333329
sI16
F81.818181818181827
sI17
F70.909090909090907
sI18
F79
sI19
F67
sI20
F74.444444444444443
sssa(dp1014
S'subset'
p1015
I00
sS'min_len'
p1016
I4397
sS'align'
p1017
S'interp'
p1018
sS'level'
p1019
S'task'
p1020
sS'dataset'
p1021
S'C'
sS'max_len'
p1022
I16799
sS'avg_len'
p1023
I6960
sS'encode'
p1024
S'AFF'
p1025
sS'accuracy'
p1026
(dp1027
S'poly_svc'
p1028
(dp1029
I2
F65.625
sI3
F79
sI4
F78.75
sI5
F76.666666666666671
sI6
F82
sI7
F90
sI8
F82.5
sI9
F83.333333333333343
sI10
F83.333333333333343
sI11
F70
sI12
F55.000000000000007
sI13
F80
sI14
F75
sI15
F80
sI16
F65
sI17
F70
sI18
F70
sI19
F80
sI20
F90
ssS'svc'
p1030
(dp1031
I2
F76.25
sI3
F78
sI4
F78.75
sI5
F76.666666666666671
sI6
F84
sI7
F90
sI8
F82.5
sI9
F83.333333333333343
sI10
F83.333333333333343
sI11
F70
sI12
F55.000000000000007
sI13
F80
sI14
F75
sI15
F80
sI16
F65
sI17
F70
sI18
F70
sI19
F80
sI20
F90
ssS'rbf_svc'
p1032
(dp1033
I2
F78.75
sI3
F78
sI4
F78.75
sI5
F76.666666666666671
sI6
F84
sI7
F90
sI8
F82.5
sI9
F83.333333333333343
sI10
F83.333333333333343
sI11
F70
sI12
F55.000000000000007
sI13
F80
sI14
F75
sI15
F80
sI16
F65
sI17
F70
sI18
F70
sI19
F80
sI20
F90
ssS'lin_svc'
p1034
(dp1035
I2
F75.625
sI3
F78
sI4
F78.75
sI5
F76.666666666666671
sI6
F84
sI7
F90
sI8
F82.5
sI9
F83.333333333333343
sI10
F83.333333333333343
sI11
F70
sI12
F55.000000000000007
sI13
F80
sI14
F75
sI15
F80
sI16
F65
sI17
F70
sI18
F70
sI19
F80
sI20
F90
sssa(dp1036
g993
I00
sg994
g995
sg996
g997
sg998
I1323
sg999
S'AC'
p1037
sg1000
I16799
sg1001
I4389
sg1002
g1003
sg1004
(dp1038
S'poly_svc'
p1039
(dp1040
I2
F45.161290322580641
sI3
F51.428571428571423
sI4
F45.333333333333329
sI5
F50.833333333333329
sI6
F49
sI7
F52.222222222222229
sI8
F60
sI9
F45.714285714285715
sI10
F51.666666666666671
sI11
F54
sI12
F48
sI13
F62.5
sI14
F47.5
sI15
F47.5
sI16
F53.333333333333336
sI17
F46.666666666666664
sI18
F53.333333333333336
sI19
F53.333333333333336
sI20
F50
ssS'svc'
p1041
(dp1042
I2
F66.451612903225808
sI3
F73.80952380952381
sI4
F76
sI5
F68.333333333333329
sI6
F83
sI7
F80
sI8
F80
sI9
F68.571428571428569
sI10
F80
sI11
F86
sI12
F90
sI13
F87.5
sI14
F85
sI15
F82.5
sI16
F83.333333333333343
sI17
F80
sI18
F80
sI19
F83.333333333333343
sI20
F73.333333333333329
ssS'rbf_svc'
p1043
(dp1044
I2
F34.193548387096776
sI3
F37.61904761904762
sI4
F36
sI5
F40.833333333333336
sI6
F39
sI7
F45.555555555555557
sI8
F47.142857142857139
sI9
F34.285714285714285
sI10
F35
sI11
F32
sI12
F36
sI13
F57.499999999999993
sI14
F37.5
sI15
F37.5
sI16
F43.333333333333336
sI17
F33.333333333333329
sI18
F40
sI19
F46.666666666666664
sI20
F43.333333333333336
ssS'lin_svc'
p1045
(dp1046
I2
F68.709677419354847
sI3
F77.142857142857153
sI4
F76.666666666666671
sI5
F73.333333333333329
sI6
F82
sI7
F82.222222222222214
sI8
F80
sI9
F67.142857142857139
sI10
F81.666666666666671
sI11
F84
sI12
F90
sI13
F87.5
sI14
F82.5
sI15
F82.5
sI16
F83.333333333333343
sI17
F80
sI18
F80
sI19
F83.333333333333343
sI20
F80
sssa(dp1047
g993
I00
sg994
g995
sg996
g997
sg998
I860
sg999
S'BC'
p1048
sg1000
I16799
sg1001
I2068
sg1002
g1003
sg1004
(dp1049
S'poly_svc'
p1050
(dp1051
I2
F62.522522522522529
sI3
F69.459459459459467
sI4
F71.27272727272728
sI5
F74.318181818181813
sI6
F71.891891891891888
sI7
F71.935483870967744
sI8
F71.481481481481481
sI9
F77.916666666666671
sI10
F71.36363636363636
sI11
F72.5
sI12
F78.333333333333329
sI13
F72.35294117647058
sI14
F71.333333333333343
sI15
F72.857142857142847
sI16
F75.384615384615387
sI17
F70
sI18
F70.833333333333343
sI19
F75.454545454545453
sI20
F70.909090909090907
ssS'svc'
p1052
(dp1053
I2
F74.86486486486487
sI3
F79.054054054054063
sI4
F78.72727272727272
sI5
F81.818181818181827
sI6
F77.567567567567565
sI7
F75.161290322580641
sI8
F72.962962962962962
sI9
F80.416666666666671
sI10
F75.454545454545453
sI11
F73.5
sI12
F82.222222222222214
sI13
F74.117647058823536
sI14
F74
sI15
F76.428571428571416
sI16
F80.769230769230774
sI17
F73.846153846153854
sI18
F73.333333333333329
sI19
F81.818181818181827
sI20
F73.636363636363626
ssS'rbf_svc'
p1054
(dp1055
I2
F70
sI3
F69.054054054054063
sI4
F70.909090909090907
sI5
F69.545454545454547
sI6
F70.540540540540547
sI7
F65.483870967741936
sI8
F65.555555555555557
sI9
F70
sI10
F62.272727272727266
sI11
F67
sI12
F75.555555555555557
sI13
F65.882352941176464
sI14
F70.666666666666671
sI15
F72.142857142857139
sI16
F67.692307692307693
sI17
F67.692307692307693
sI18
F66.666666666666657
sI19
F75.454545454545453
sI20
F61.818181818181813
ssS'lin_svc'
p1056
(dp1057
I2
F72.972972972972968
sI3
F77.162162162162161
sI4
F76.181818181818187
sI5
F80
sI6
F75.675675675675677
sI7
F75.483870967741936
sI8
F72.962962962962962
sI9
F76.25
sI10
F74.545454545454547
sI11
F72
sI12
F79.444444444444443
sI13
F72.35294117647058
sI14
F74
sI15
F72.142857142857139
sI16
F80.769230769230774
sI17
F76.923076923076934
sI18
F72.5
sI19
F79.090909090909093
sI20
F73.636363636363626
sssa(dp1058
g993
I00
sg994
g995
sg996
g997
sg998
I860
sg999
S'ABC'
p1059
sg1000
I16799
sg1001
I2028
sg1002
g1003
sg1004
(dp1060
S'poly_svc'
p1061
(dp1062
I2
F57.539682539682538
sI3
F62.61904761904762
sI4
F66.825396825396822
sI5
F65
sI6
F70.238095238095227
sI7
F69.166666666666671
sI8
F68.387096774193552
sI9
F70.357142857142861
sI10
F67.200000000000003
sI11
F73.043478260869563
sI12
F70.952380952380949
sI13
F71.05263157894737
sI14
F66.111111111111114
sI15
F64.375
sI16
F68.666666666666671
sI17
F71.428571428571431
sI18
F65.714285714285708
sI19
F75.384615384615387
sI20
F68.333333333333329
ssS'svc'
p1063
(dp1064
I2
F75.555555555555557
sI3
F73.80952380952381
sI4
F77.142857142857153
sI5
F78.600000000000009
sI6
F77.38095238095238
sI7
F78.333333333333329
sI8
F77.096774193548384
sI9
F80
sI10
F78.400000000000006
sI11
F83.478260869565219
sI12
F80
sI13
F78.94736842105263
sI14
F73.333333333333329
sI15
F76.875
sI16
F78.666666666666657
sI17
F77.142857142857153
sI18
F75.714285714285708
sI19
F78.461538461538467
sI20
F75.833333333333329
ssS'rbf_svc'
p1065
(dp1066
I2
F60.55555555555555
sI3
F58.69047619047619
sI4
F62.38095238095238
sI5
F59.799999999999997
sI6
F60
sI7
F63.055555555555557
sI8
F55.806451612903231
sI9
F65.714285714285708
sI10
F59.199999999999996
sI11
F65.217391304347828
sI12
F62.857142857142854
sI13
F57.894736842105267
sI14
F55.555555555555557
sI15
F57.499999999999993
sI16
F65.333333333333329
sI17
F60
sI18
F61.428571428571431
sI19
F63.84615384615384
sI20
F66.666666666666657
ssS'lin_svc'
p1067
(dp1068
I2
F74.920634920634924
sI3
F74.404761904761912
sI4
F74.920634920634924
sI5
F77.400000000000006
sI6
F75.714285714285708
sI7
F75.277777777777771
sI8
F77.096774193548384
sI9
F76.785714285714292
sI10
F76.799999999999997
sI11
F83.043478260869563
sI12
F72.857142857142847
sI13
F77.89473684210526
sI14
F71.111111111111114
sI15
F72.5
sI16
F73.333333333333329
sI17
F75.714285714285708
sI18
F74.285714285714292
sI19
F76.923076923076934
sI20
F71.666666666666671
sssaa(lp1069
(dp1070
S'subset'
p1071
I00
sS'level'
p1072
S'behavior'
p1073
sS'align'
p1074
S'interp'
p1075
sS'min_len'
p1076
I500
sS'dataset'
p1077
S'A'
sS'max_len'
p1078
I915
sS'avg_len'
p1079
I471
sS'encode'
p1080
S'AFF'
p1081
sS'accuracy'
p1082
(dp1083
S'poly_svc'
p1084
(dp1085
I2
F35.272727272727273
sI3
F38.378378378378379
sI4
F40.370370370370374
sI5
F34.545454545454547
sI6
F38.888888888888893
sI7
F37.333333333333336
sI8
F33.076923076923073
sI9
F39.166666666666664
sI10
F47.272727272727273
sI11
F39
sI12
F36.666666666666664
sI13
F38.75
sI14
F47.142857142857139
sI15
F44.285714285714285
sI16
F38.333333333333336
sI17
F41.666666666666671
sI18
F46.666666666666664
sI19
F46
sI20
F48
ssS'svc'
p1086
(dp1087
I2
F29.09090909090909
sI3
F31.891891891891895
sI4
F31.851851851851855
sI5
F28.636363636363637
sI6
F36.111111111111107
sI7
F30
sI8
F27.692307692307693
sI9
F32.5
sI10
F39.090909090909093
sI11
F31
sI12
F28.888888888888886
sI13
F33.75
sI14
F40
sI15
F42.857142857142854
sI16
F31.666666666666664
sI17
F38.333333333333336
sI18
F31.666666666666664
sI19
F34
sI20
F42
ssS'rbf_svc'
p1088
(dp1089
I2
F20.18181818181818
sI3
F16.756756756756758
sI4
F17.777777777777779
sI5
F16.818181818181817
sI6
F12.777777777777777
sI7
F10.666666666666668
sI8
F13.846153846153847
sI9
F23.333333333333332
sI10
F9.0909090909090917
sI11
F21
sI12
F17.777777777777779
sI13
F21.25
sI14
F14.285714285714285
sI15
F14.285714285714285
sI16
F11.666666666666666
sI17
F16.666666666666664
sI18
F13.333333333333334
sI19
F24
sI20
F10
ssS'lin_svc'
p1090
(dp1091
I2
F30.363636363636363
sI3
F36.216216216216218
sI4
F33.703703703703702
sI5
F32.727272727272727
sI6
F39.444444444444443
sI7
F33.333333333333329
sI8
F29.230769230769234
sI9
F31.666666666666664
sI10
F36.363636363636367
sI11
F30
sI12
F31.111111111111111
sI13
F35
sI14
F40
sI15
F40
sI16
F28.333333333333332
sI17
F36.666666666666664
sI18
F33.333333333333329
sI19
F34
sI20
F40
sssa(dp1092
g1071
I00
sg1072
g1073
sg1074
g1075
sg1076
I500
sg1077
S'B'
sg1078
I1995
sg1079
I620
sg1080
g1081
sg1082
(dp1093
S'poly_svc'
p1094
(dp1095
I2
F71.473684210526315
sI3
F74.094488188976385
sI4
F73.578947368421055
sI5
F74.473684210526315
sI6
F77.142857142857153
sI7
F75
sI8
F76.382978723404264
sI9
F75.714285714285708
sI10
F78.684210526315795
sI11
F74.705882352941174
sI12
F73.225806451612911
sI13
F77.241379310344826
sI14
F74.444444444444443
sI15
F78.799999999999997
sI16
F78.695652173913047
sI17
F76.818181818181813
sI18
F80
sI19
F79
sI20
F77.368421052631575
ssS'svc'
p1096
(dp1097
I2
F74.526315789473685
sI3
F76.141732283464563
sI4
F73.15789473684211
sI5
F74.342105263157904
sI6
F76.19047619047619
sI7
F72.037037037037038
sI8
F73.191489361702125
sI9
F74.523809523809518
sI10
F78.421052631578945
sI11
F73.82352941176471
sI12
F74.838709677419359
sI13
F78.620689655172413
sI14
F75.18518518518519
sI15
F79.200000000000003
sI16
F80.434782608695656
sI17
F78.63636363636364
sI18
F79.523809523809518
sI19
F78.5
sI20
F76.84210526315789
ssS'rbf_svc'
p1098
(dp1099
I2
F46.05263157894737
sI3
F48.425196850393696
sI4
F46.421052631578945
sI5
F47.763157894736842
sI6
F49.682539682539684
sI7
F48.333333333333336
sI8
F49.148936170212764
sI9
F48.333333333333336
sI10
F44.736842105263158
sI11
F49.705882352941174
sI12
F51.612903225806448
sI13
F48.275862068965516
sI14
F50.74074074074074
sI15
F49.200000000000003
sI16
F48.695652173913047
sI17
F47.272727272727273
sI18
F50.952380952380949
sI19
F48
sI20
F47.89473684210526
ssS'lin_svc'
p1100
(dp1101
I2
F70.05263157894737
sI3
F71.574803149606296
sI4
F69.473684210526315
sI5
F70.65789473684211
sI6
F71.746031746031747
sI7
F70.370370370370367
sI8
F68.085106382978722
sI9
F70.238095238095227
sI10
F75
sI11
F71.17647058823529
sI12
F75.161290322580641
sI13
F71.724137931034477
sI14
F69.629629629629633
sI15
F75.200000000000003
sI16
F77.391304347826079
sI17
F73.636363636363626
sI18
F77.142857142857153
sI19
F74
sI20
F74.210526315789465
sssa(dp1102
g1071
I00
sg1072
g1073
sg1074
g1075
sg1076
I500
sg1077
S'C'
sg1078
I14446
sg1079
I2162
sg1080
g1081
sg1082
(dp1103
S'poly_svc'
p1104
(dp1105
I2
F21.176470588235293
sI3
F22.941176470588236
sI4
F24.399999999999999
sI5
F22
sI6
F20
sI7
F20
sI8
F24.166666666666668
sI9
F19.090909090909093
sI10
F25
sI11
F23.333333333333332
sI12
F32.5
sI13
F21.428571428571427
sI14
F14.285714285714285
sI15
F16.666666666666664
sI16
F18.333333333333332
sI17
F11.666666666666666
sI18
F24
sI19
F16
sI20
F18
ssS'svc'
p1106
(dp1107
I2
F28.03921568627451
sI3
F32.352941176470587
sI4
F38.800000000000004
sI5
F32.5
sI6
F38.82352941176471
sI7
F40
sI8
F35.833333333333336
sI9
F43.636363636363633
sI10
F36
sI11
F33.333333333333329
sI12
F46.25
sI13
F42.857142857142854
sI14
F50
sI15
F36.666666666666664
sI16
F35
sI17
F25
sI18
F38
sI19
F38
sI20
F24
ssS'rbf_svc'
p1108
(dp1109
I2
F19.803921568627452
sI3
F21.470588235294116
sI4
F20.399999999999999
sI5
F13
sI6
F15.882352941176469
sI7
F14.285714285714285
sI8
F16.666666666666664
sI9
F14.545454545454545
sI10
F15
sI11
F15.555555555555555
sI12
F17.5
sI13
F14.285714285714285
sI14
F5.7142857142857144
sI15
F15
sI16
F10
sI17
F15
sI18
F20
sI19
F10
sI20
F10
ssS'lin_svc'
p1110
(dp1111
I2
F28.627450980392155
sI3
F35
sI4
F40.400000000000006
sI5
F32.5
sI6
F40
sI7
F37.857142857142854
sI8
F34.166666666666664
sI9
F40.909090909090914
sI10
F28.999999999999996
sI11
F26.666666666666668
sI12
F36.25
sI13
F40
sI14
F40
sI15
F36.666666666666664
sI16
F33.333333333333329
sI17
F25
sI18
F36
sI19
F38
sI20
F20
sssa(dp1112
g1071
I00
sg1072
g1073
sg1074
g1075
sg1076
I500
sg1077
S'AC'
p1113
sg1078
I14446
sg1079
I1285
sg1080
g1081
sg1082
(dp1114
S'poly_svc'
p1115
(dp1116
I2
F26.168224299065418
sI3
F23.802816901408448
sI4
F27.169811320754718
sI5
F28.571428571428569
sI6
F28.857142857142858
sI7
F29.666666666666668
sI8
F28.846153846153843
sI9
F27.826086956521738
sI10
F33.80952380952381
sI11
F30.526315789473685
sI12
F30
sI13
F31.25
sI14
F29.333333333333332
sI15
F34.285714285714285
sI16
F34.615384615384613
sI17
F28.333333333333332
sI18
F30.909090909090907
sI19
F33.636363636363633
sI20
F30
ssS'svc'
p1117
(dp1118
I2
F32.242990654205606
sI3
F31.690140845070424
sI4
F32.830188679245282
sI5
F36.666666666666664
sI6
F35.714285714285715
sI7
F38.666666666666664
sI8
F42.307692307692307
sI9
F37.826086956521735
sI10
F43.80952380952381
sI11
F44.210526315789473
sI12
F39.411764705882355
sI13
F35
sI14
F35.333333333333336
sI15
F38.571428571428577
sI16
F44.61538461538462
sI17
F41.666666666666671
sI18
F41.818181818181813
sI19
F39.090909090909093
sI20
F39
ssS'rbf_svc'
p1119
(dp1120
I2
F13.271028037383179
sI3
F11.126760563380282
sI4
F12.075471698113208
sI5
F12.142857142857142
sI6
F12
sI7
F10
sI8
F12.307692307692308
sI9
F10
sI10
F6.1904761904761907
sI11
F12.631578947368421
sI12
F10.588235294117647
sI13
F8.75
sI14
F8.6666666666666679
sI15
F9.2857142857142865
sI16
F9.2307692307692317
sI17
F9.1666666666666661
sI18
F7.2727272727272725
sI19
F6.3636363636363633
sI20
F8
ssS'lin_svc'
p1121
(dp1122
I2
F23.457943925233646
sI3
F24.225352112676056
sI4
F25.849056603773583
sI5
F28.095238095238095
sI6
F25.142857142857146
sI7
F30.333333333333336
sI8
F28.46153846153846
sI9
F29.130434782608695
sI10
F33.80952380952381
sI11
F27.368421052631582
sI12
F28.235294117647058
sI13
F29.375
sI14
F28.666666666666668
sI15
F26.428571428571431
sI16
F28.46153846153846
sI17
F25.833333333333336
sI18
F26.36363636363636
sI19
F29.09090909090909
sI20
F28.000000000000004
sssa(dp1123
g1071
I00
sg1072
g1073
sg1074
g1075
sg1076
I500
sg1077
S'BC'
p1124
sg1078
I14446
sg1079
I948
sg1080
g1081
sg1082
(dp1125
S'poly_svc'
p1126
(dp1127
I2
F58.884297520661157
sI3
F60.745341614906835
sI4
F64.132231404958674
sI5
F60.520833333333336
sI6
F62.125
sI7
F60.579710144927532
sI8
F61.5
sI9
F64.15094339622641
sI10
F65.208333333333329
sI11
F64.090909090909093
sI12
F63.5
sI13
F62.702702702702709
sI14
F68.235294117647058
sI15
F64.0625
sI16
F69.666666666666671
sI17
F61.785714285714292
sI18
F63.076923076923073
sI19
F67.200000000000003
sI20
F63.333333333333329
ssS'svc'
p1128
(dp1129
I2
F61.983471074380169
sI3
F58.571428571428577
sI4
F63.966942148760332
sI5
F62.916666666666664
sI6
F63.749999999999993
sI7
F61.884057971014492
sI8
F61.5
sI9
F62.830188679245282
sI10
F66.875
sI11
F64.545454545454547
sI12
F61.250000000000007
sI13
F63.78378378378379
sI14
F66.17647058823529
sI15
F64.0625
sI16
F60.666666666666671
sI17
F66.428571428571431
sI18
F62.692307692307693
sI19
F68
sI20
F61.250000000000007
ssS'rbf_svc'
p1130
(dp1131
I2
F36.859504132231407
sI3
F37.204968944099384
sI4
F39.504132231404959
sI5
F38.75
sI6
F37.875
sI7
F35.797101449275367
sI8
F33.333333333333329
sI9
F37.924528301886795
sI10
F39.166666666666664
sI11
F39.090909090909093
sI12
F36.25
sI13
F36.486486486486484
sI14
F36.470588235294116
sI15
F38.4375
sI16
F38.333333333333336
sI17
F37.857142857142854
sI18
F35.769230769230766
sI19
F38.399999999999999
sI20
F35
ssS'lin_svc'
p1132
(dp1133
I2
F41.776859504132233
sI3
F39.627329192546583
sI4
F41.900826446280995
sI5
F43.958333333333336
sI6
F47.5
sI7
F43.623188405797102
sI8
F46.833333333333336
sI9
F45.660377358490564
sI10
F51.249999999999993
sI11
F47.045454545454547
sI12
F45
sI13
F47.567567567567572
sI14
F45.588235294117645
sI15
F41.5625
sI16
F45.666666666666664
sI17
F47.5
sI18
F47.307692307692307
sI19
F51.200000000000003
sI20
F44.166666666666664
sssa(dp1134
g1071
I00
sg1072
g1073
sg1074
g1075
sg1076
I500
sg1077
S'ABC'
p1135
sg1078
I14446
sg1079
I859
sg1080
g1081
sg1082
(dp1136
S'poly_svc'
p1137
(dp1138
I2
F49.966329966329965
sI3
F54.393939393939391
sI4
F50.810810810810814
sI5
F55.378151260504204
sI6
F56.36363636363636
sI7
F53.058823529411768
sI8
F57.297297297297298
sI9
F52.878787878787882
sI10
F53.728813559322028
sI11
F60.370370370370374
sI12
F52.653061224489797
sI13
F56.666666666666664
sI14
F50.952380952380949
sI15
F60
sI16
F55.67567567567567
sI17
F54.285714285714285
sI18
F55.454545454545453
sI19
F49.354838709677416
sI20
F55.862068965517238
ssS'svc'
p1139
(dp1140
I2
F52.289562289562284
sI3
F56.868686868686865
sI4
F54.729729729729726
sI5
F58.907563025210088
sI6
F56.868686868686865
sI7
F59.411764705882355
sI8
F59.189189189189186
sI9
F57.878787878787875
sI10
F58.983050847457633
sI11
F61.296296296296291
sI12
F57.755102040816332
sI13
F56.666666666666664
sI14
F55.952380952380956
sI15
F63.333333333333329
sI16
F57.567567567567565
sI17
F59.142857142857139
sI18
F58.18181818181818
sI19
F52.258064516129032
sI20
F58.275862068965523
ssS'rbf_svc'
p1141
(dp1142
I2
F30.168350168350166
sI3
F31.616161616161616
sI4
F31.148648648648646
sI5
F32.689075630252098
sI6
F32.020202020202021
sI7
F31.294117647058822
sI8
F32.432432432432435
sI9
F29.848484848484848
sI10
F30
sI11
F32.962962962962962
sI12
F31.22448979591837
sI13
F30.444444444444446
sI14
F30.238095238095237
sI15
F34.615384615384613
sI16
F33.243243243243242
sI17
F30.857142857142854
sI18
F32.121212121212125
sI19
F30.967741935483872
sI20
F31.724137931034484
ssS'lin_svc'
p1143
(dp1144
I2
F33.030303030303031
sI3
F37.828282828282831
sI4
F38.851351351351347
sI5
F41.344537815126046
sI6
F40.606060606060609
sI7
F41.17647058823529
sI8
F43.78378378378379
sI9
F43.787878787878789
sI10
F41.864406779661017
sI11
F44.81481481481481
sI12
F41.632653061224488
sI13
F36.444444444444443
sI14
F42.142857142857146
sI15
F41.282051282051277
sI16
F43.78378378378379
sI17
F40
sI18
F42.121212121212118
sI19
F36.129032258064512
sI20
F35.517241379310342
sssaa.