(lp1
(lp2
(dp3
S'subset'
p4
I00
sS'level'
p5
S'task'
p6
sS'align'
p7
S'extend'
p8
sS'min_len'
p9
I860
sS'dataset'
p10
S'B'
sS'max_len'
p11
I1995
sS'avg_len'
p12
I1244
sS'encode'
p13
S'FF'
p14
sS'accuracy'
p15
(dp16
S'poly_svc'
p17
(dp18
I2
F81.59574468085107
sI3
F79.841269841269849
sI4
F79.148936170212764
sI5
F82.972972972972968
sI6
F79.677419354838705
sI7
F84.074074074074076
sI8
F83.913043478260875
sI9
F78.095238095238102
sI10
F78.333333333333329
sI11
F79.411764705882348
sI12
F77.333333333333329
sI13
F79.285714285714278
sI14
F77.692307692307693
sI15
F80
sI16
F80.909090909090907
sI17
F87.272727272727266
sI18
F85
sI19
F80
sI20
F78.888888888888886
ssS'svc'
p19
(dp20
I2
F81.38297872340425
sI3
F79.206349206349202
sI4
F79.361702127659569
sI5
F82.432432432432435
sI6
F80
sI7
F82.962962962962962
sI8
F84.782608695652172
sI9
F78.095238095238102
sI10
F79.444444444444443
sI11
F79.411764705882348
sI12
F76
sI13
F77.857142857142861
sI14
F78.461538461538467
sI15
F80
sI16
F81.818181818181827
sI17
F89.090909090909093
sI18
F85
sI19
F82.222222222222214
sI20
F77.777777777777786
ssS'rbf_svc'
p21
(dp22
I2
F81.914893617021278
sI3
F80.317460317460316
sI4
F78.723404255319153
sI5
F81.081081081081081
sI6
F80.645161290322577
sI7
F83.333333333333343
sI8
F83.913043478260875
sI9
F78.095238095238102
sI10
F78.333333333333329
sI11
F78.235294117647058
sI12
F76.666666666666671
sI13
F78.571428571428569
sI14
F77.692307692307693
sI15
F78.333333333333329
sI16
F83.636363636363626
sI17
F86.36363636363636
sI18
F84
sI19
F78.888888888888886
sI20
F75.555555555555557
ssS'lin_svc'
p23
(dp24
I2
F80.744680851063833
sI3
F78.730158730158735
sI4
F74.468085106382972
sI5
F82.162162162162161
sI6
F80.322580645161295
sI7
F74.074074074074076
sI8
F79.130434782608688
sI9
F78.095238095238102
sI10
F78.333333333333329
sI11
F77.64705882352942
sI12
F75.333333333333329
sI13
F73.571428571428584
sI14
F78.461538461538467
sI15
F79.166666666666657
sI16
F79.090909090909093
sI17
F80.909090909090907
sI18
F81
sI19
F80
sI20
F73.333333333333329
sssa(dp25
g4
I00
sg5
g6
sg7
g8
sg9
I4397
sg10
S'C'
sg11
I16799
sg12
I6960
sg13
g14
sg15
(dp26
S'poly_svc'
p27
(dp28
I2
F76.875
sI3
F76
sI4
F80
sI5
F75
sI6
F76
sI7
F87.5
sI8
F82.5
sI9
F73.333333333333329
sI10
F80
sI11
F75
sI12
F80
sI13
F75
sI14
F75
sI15
F80
sI16
F85
sI17
F100
sI18
F70
sI19
F80
sI20
F90
ssS'svc'
p29
(dp30
I2
F91.25
sI3
F92
sI4
F100
sI5
F100
sI6
F100
sI7
F100
sI8
F100
sI9
F100
sI10
F100
sI11
F100
sI12
F100
sI13
F100
sI14
F100
sI15
F100
sI16
F100
sI17
F100
sI18
F100
sI19
F100
sI20
F100
ssS'rbf_svc'
p31
(dp32
I2
F76.875
sI3
F76
sI4
F80
sI5
F75
sI6
F76
sI7
F87.5
sI8
F82.5
sI9
F73.333333333333329
sI10
F80
sI11
F75
sI12
F80
sI13
F75
sI14
F75
sI15
F80
sI16
F85
sI17
F100
sI18
F70
sI19
F80
sI20
F90
ssS'lin_svc'
p33
(dp34
I2
F100
sI3
F100
sI4
F100
sI5
F100
sI6
F100
sI7
F100
sI8
F100
sI9
F100
sI10
F100
sI11
F100
sI12
F100
sI13
F100
sI14
F100
sI15
F100
sI16
F100
sI17
F100
sI18
F100
sI19
F100
sI20
F100
sssa(dp35
g4
I00
sg5
g6
sg7
g8
sg9
I860
sg10
S'AB'
p36
sg11
I2123
sg12
I1311
sg13
g14
sg15
(dp37
S'poly_svc'
p38
(dp39
I2
F81.82692307692308
sI3
F83.478260869565219
sI4
F83.846153846153854
sI5
F82.439024390243901
sI6
F80.588235294117652
sI7
F81.034482758620683
sI8
F86.538461538461547
sI9
F83.913043478260875
sI10
F81.5
sI11
F83.333333333333343
sI12
F87.647058823529406
sI13
F83.125
sI14
F85
sI15
F75.384615384615387
sI16
F83.07692307692308
sI17
F85
sI18
F81.818181818181827
sI19
F86
sI20
F85
ssS'svc'
p40
(dp41
I2
F82.211538461538453
sI3
F82.608695652173907
sI4
F83.461538461538467
sI5
F83.170731707317074
sI6
F81.17647058823529
sI7
F81.034482758620683
sI8
F86.92307692307692
sI9
F84.34782608695653
sI10
F80
sI11
F83.888888888888886
sI12
F85.882352941176464
sI13
F82.5
sI14
F85
sI15
F77.692307692307693
sI16
F82.307692307692307
sI17
F85
sI18
F82.727272727272734
sI19
F83
sI20
F86
ssS'rbf_svc'
p42
(dp43
I2
F75.57692307692308
sI3
F75.217391304347828
sI4
F72.884615384615387
sI5
F74.146341463414629
sI6
F70.588235294117652
sI7
F73.103448275862064
sI8
F73.076923076923066
sI9
F73.043478260869563
sI10
F73.5
sI11
F69.444444444444443
sI12
F78.235294117647058
sI13
F73.75
sI14
F76.428571428571416
sI15
F69.230769230769226
sI16
F76.923076923076934
sI17
F70
sI18
F70
sI19
F80
sI20
F78
ssS'lin_svc'
p44
(dp45
I2
F81.15384615384616
sI3
F82.318840579710141
sI4
F82.115384615384613
sI5
F82.195121951219505
sI6
F80.882352941176478
sI7
F81.034482758620683
sI8
F81.92307692307692
sI9
F84.782608695652172
sI10
F83
sI11
F83.888888888888886
sI12
F82.941176470588246
sI13
F81.25
sI14
F83.571428571428569
sI15
F78.461538461538467
sI16
F80.769230769230774
sI17
F85
sI18
F80.909090909090907
sI19
F83
sI20
F83
sssa(dp46
g4
I00
sg5
g6
sg7
g8
sg9
I1365
sg10
S'AC'
p47
sg11
I16799
sg12
I5103
sg13
g14
sg15
(dp48
S'poly_svc'
p49
(dp50
I2
F86.400000000000006
sI3
F84.705882352941174
sI4
F83.333333333333343
sI5
F84
sI6
F85
sI7
F85.714285714285708
sI8
F81.666666666666671
sI9
F80
sI10
F86
sI11
F87.5
sI12
F80
sI13
F86.666666666666671
sI14
F73.333333333333329
sI15
F86.666666666666671
sI16
F90
sI17
F90
sI18
F70
sI19
F85
sI20
F85
ssS'svc'
p51
(dp52
I2
F94
sI3
F94.705882352941174
sI4
F97.5
sI5
F98
sI6
F98.75
sI7
F97.142857142857139
sI8
F95
sI9
F94
sI10
F96
sI11
F97.5
sI12
F97.5
sI13
F100
sI14
F96.666666666666671
sI15
F100
sI16
F96.666666666666671
sI17
F100
sI18
F100
sI19
F100
sI20
F95
ssS'rbf_svc'
p53
(dp54
I2
F47.199999999999996
sI3
F47.058823529411761
sI4
F39.166666666666664
sI5
F51
sI6
F48.75
sI7
F42.857142857142854
sI8
F40
sI9
F42
sI10
F46
sI11
F45
sI12
F37.5
sI13
F46.666666666666664
sI14
F46.666666666666664
sI15
F36.666666666666664
sI16
F50
sI17
F66.666666666666657
sI18
F60
sI19
F45
sI20
F60
ssS'lin_svc'
p55
(dp56
I2
F97.599999999999994
sI3
F97.058823529411768
sI4
F99.166666666666671
sI5
F98
sI6
F98.75
sI7
F97.142857142857139
sI8
F95
sI9
F94
sI10
F96
sI11
F97.5
sI12
F97.5
sI13
F100
sI14
F96.666666666666671
sI15
F100
sI16
F96.666666666666671
sI17
F100
sI18
F100
sI19
F100
sI20
F95
sssa(dp57
g4
I00
sg5
g6
sg7
g8
sg9
I860
sg10
S'BC'
p58
sg11
I16799
sg12
I2072
sg13
g14
sg15
(dp59
S'poly_svc'
p60
(dp61
I2
F80.909090909090907
sI3
F81.917808219178085
sI4
F80.545454545454547
sI5
F85.681818181818187
sI6
F83.333333333333343
sI7
F85.483870967741936
sI8
F80.740740740740748
sI9
F87.5
sI10
F79.545454545454547
sI11
F79
sI12
F87.222222222222229
sI13
F80
sI14
F76.666666666666671
sI15
F80.714285714285722
sI16
F80.769230769230774
sI17
F78.461538461538467
sI18
F75
sI19
F80
sI20
F83.636363636363626
ssS'svc'
p62
(dp63
I2
F82.909090909090907
sI3
F84.657534246575338
sI4
F83.454545454545453
sI5
F86.136363636363626
sI6
F86.666666666666671
sI7
F86.451612903225808
sI8
F84.444444444444443
sI9
F86.666666666666671
sI10
F81.36363636363636
sI11
F81.5
sI12
F86.666666666666671
sI13
F82.941176470588246
sI14
F80.666666666666657
sI15
F85.714285714285708
sI16
F90.769230769230774
sI17
F76.153846153846146
sI18
F80
sI19
F80
sI20
F89.090909090909093
ssS'rbf_svc'
p64
(dp65
I2
F69.27272727272728
sI3
F70
sI4
F69.090909090909093
sI5
F72.5
sI6
F72.222222222222214
sI7
F73.870967741935488
sI8
F67.407407407407405
sI9
F74.583333333333329
sI10
F65.454545454545453
sI11
F69
sI12
F71.666666666666671
sI13
F70
sI14
F68.666666666666671
sI15
F66.428571428571431
sI16
F69.230769230769226
sI17
F66.92307692307692
sI18
F65
sI19
F68.181818181818173
sI20
F70.909090909090907
ssS'lin_svc'
p66
(dp67
I2
F81.909090909090907
sI3
F84.520547945205479
sI4
F83.454545454545453
sI5
F84.318181818181813
sI6
F85.555555555555557
sI7
F85.483870967741936
sI8
F82.962962962962962
sI9
F84.583333333333329
sI10
F81.818181818181827
sI11
F80.5
sI12
F82.222222222222214
sI13
F82.35294117647058
sI14
F80
sI15
F85.714285714285708
sI16
F87.692307692307693
sI17
F75.384615384615387
sI18
F80
sI19
F80
sI20
F86.36363636363636
sssa(dp68
g4
I00
sg5
g6
sg7
g8
sg9
I860
sg10
S'ABC'
p69
sg11
I16799
sg12
I2064
sg13
g14
sg15
(dp70
S'poly_svc'
p71
(dp72
I2
F81
sI3
F83
sI4
F82.166666666666671
sI5
F82.708333333333329
sI6
F85.5
sI7
F80.882352941176478
sI8
F81
sI9
F80.769230769230774
sI10
F83.75
sI11
F86.19047619047619
sI12
F82.5
sI13
F83.333333333333343
sI14
F83.529411764705884
sI15
F83.125
sI16
F84.666666666666671
sI17
F86.428571428571431
sI18
F85.384615384615387
sI19
F85.833333333333329
sI20
F80.833333333333329
ssS'svc'
p73
(dp74
I2
F83.333333333333343
sI3
F83.25
sI4
F81.5
sI5
F83.333333333333343
sI6
F85.75
sI7
F82.941176470588246
sI8
F82.333333333333343
sI9
F85.384615384615387
sI10
F86.666666666666671
sI11
F89.047619047619037
sI12
F83
sI13
F83.888888888888886
sI14
F87.058823529411768
sI15
F82.5
sI16
F86.666666666666671
sI17
F83.571428571428569
sI18
F89.230769230769241
sI19
F85.833333333333329
sI20
F87.5
ssS'rbf_svc'
p75
(dp76
I2
F65.25
sI3
F62.125
sI4
F62.833333333333329
sI5
F62.291666666666664
sI6
F67
sI7
F63.823529411764703
sI8
F65.333333333333329
sI9
F60.769230769230766
sI10
F62.5
sI11
F64.761904761904759
sI12
F63
sI13
F65.555555555555557
sI14
F65.294117647058826
sI15
F61.875
sI16
F64
sI17
F62.142857142857146
sI18
F71.538461538461533
sI19
F60.833333333333329
sI20
F64.166666666666671
ssS'lin_svc'
p77
(dp78
I2
F82.75
sI3
F83.875
sI4
F82.166666666666671
sI5
F83.125
sI6
F85.5
sI7
F83.235294117647058
sI8
F84
sI9
F83.461538461538467
sI10
F85.833333333333329
sI11
F87.142857142857139
sI12
F83.5
sI13
F82.777777777777771
sI14
F85.882352941176464
sI15
F80.625
sI16
F87.333333333333329
sI17
F82.857142857142861
sI18
F86.92307692307692
sI19
F84.166666666666671
sI20
F82.5
sssaa(lp79
(dp80
S'subset'
p81
I00
sS'level'
p82
S'behavior'
p83
sS'align'
p84
S'extend'
p85
sS'min_len'
p86
I500
sS'dataset'
p87
S'A'
sS'max_len'
p88
I915
sS'avg_len'
p89
I536
sS'encode'
p90
S'FF'
p91
sS'accuracy'
p92
(dp93
S'poly_svc'
p94
(dp95
I2
F49.117647058823529
sI3
F50
sI4
F44.705882352941181
sI5
F46.153846153846153
sI6
F40.909090909090914
sI7
F34.444444444444443
sI8
F47.5
sI9
F42.857142857142854
sI10
F30
sI11
F43.333333333333336
sI12
F44
sI13
F34
sI14
F37.5
sI15
F35
sI16
F40
sI17
F30
sI18
F23.333333333333332
sI19
F33.333333333333329
sI20
F26.666666666666668
ssS'svc'
p96
(dp97
I2
F60.882352941176464
sI3
F60.869565217391312
sI4
F58.82352941176471
sI5
F64.615384615384613
sI6
F61.818181818181813
sI7
F58.888888888888893
sI8
F67.5
sI9
F58.571428571428577
sI10
F63.333333333333329
sI11
F65
sI12
F52
sI13
F64
sI14
F60
sI15
F75
sI16
F62.5
sI17
F62.5
sI18
F63.333333333333329
sI19
F63.333333333333329
sI20
F60
ssS'rbf_svc'
p98
(dp99
I2
F23.823529411764703
sI3
F23.043478260869566
sI4
F21.764705882352942
sI5
F25.384615384615383
sI6
F17.272727272727273
sI7
F10
sI8
F23.75
sI9
F12.857142857142856
sI10
F6.666666666666667
sI11
F11.666666666666666
sI12
F10
sI13
F4
sI14
F12.5
sI15
F22.5
sI16
F10
sI17
F0
sI18
F0
sI19
F0
sI20
F6.666666666666667
ssS'lin_svc'
p100
(dp101
I2
F72.647058823529406
sI3
F74.782608695652172
sI4
F71.17647058823529
sI5
F68.461538461538467
sI6
F76.363636363636374
sI7
F71.111111111111114
sI8
F72.5
sI9
F75.714285714285708
sI10
F76.666666666666671
sI11
F75
sI12
F68
sI13
F62
sI14
F77.5
sI15
F70
sI16
F75
sI17
F82.5
sI18
F83.333333333333343
sI19
F76.666666666666671
sI20
F80
sssa(dp102
S'subset'
p103
I00
sS'level'
p104
S'behavior'
p105
sS'align'
p106
S'extend'
p107
sS'min_len'
p108
I500
sS'dataset'
p109
S'B'
sS'max_len'
p110
I1995
sS'avg_len'
p111
I620
sS'encode'
p112
S'FF'
p113
sS'accuracy'
p114
(dp115
S'poly_svc'
p116
(dp117
I2
F79.523809523809518
sI3
F79.841269841269849
sI4
F79.468085106382986
sI5
F81.200000000000003
sI6
F79.523809523809518
sI7
F79.074074074074076
sI8
F79.148936170212764
sI9
F84.761904761904759
sI10
F81.891891891891888
sI11
F76.764705882352942
sI12
F79.354838709677423
sI13
F85.862068965517253
sI14
F83.333333333333343
sI15
F85.200000000000003
sI16
F80.434782608695656
sI17
F81.36363636363636
sI18
F80.476190476190482
sI19
F86.31578947368422
sI20
F84.444444444444443
ssS'svc'
p118
(dp119
I2
F76.031746031746025
sI3
F76.19047619047619
sI4
F74.361702127659584
sI5
F77.200000000000003
sI6
F74.444444444444443
sI7
F72.962962962962962
sI8
F74.042553191489361
sI9
F76.904761904761912
sI10
F76.486486486486484
sI11
F72.647058823529406
sI12
F77.41935483870968
sI13
F79.65517241379311
sI14
F80
sI15
F79.600000000000009
sI16
F74.34782608695653
sI17
F80
sI18
F78.571428571428569
sI19
F78.421052631578945
sI20
F82.777777777777771
ssS'rbf_svc'
p120
(dp121
I2
F43.968253968253968
sI3
F46.111111111111114
sI4
F45
sI5
F48.399999999999999
sI6
F47.619047619047613
sI7
F46.481481481481481
sI8
F46.382978723404257
sI9
F48.571428571428569
sI10
F49.45945945945946
sI11
F42.941176470588232
sI12
F45.483870967741936
sI13
F50.344827586206897
sI14
F47.407407407407412
sI15
F46.800000000000004
sI16
F46.956521739130437
sI17
F46.81818181818182
sI18
F46.666666666666664
sI19
F50.526315789473685
sI20
F49.444444444444443
ssS'lin_svc'
p122
(dp123
I2
F76.296296296296291
sI3
F76.19047619047619
sI4
F75.851063829787236
sI5
F77.466666666666669
sI6
F74.603174603174608
sI7
F74.259259259259252
sI8
F75.106382978723403
sI9
F78.095238095238102
sI10
F77.027027027027032
sI11
F74.117647058823536
sI12
F78.387096774193537
sI13
F80.689655172413794
sI14
F79.629629629629633
sI15
F80
sI16
F75.217391304347828
sI17
F81.36363636363636
sI18
F79.523809523809518
sI19
F78.421052631578945
sI20
F82.222222222222214
sssa(dp124
S'subset'
p125
I00
sS'level'
p126
S'behavior'
p127
sS'align'
p128
S'extend'
p129
sS'min_len'
p130
I500
sS'dataset'
p131
S'C'
sS'max_len'
p132
I14446
sS'avg_len'
p133
I2162
sS'encode'
p134
S'FF'
p135
sS'accuracy'
p136
(dp137
S'poly_svc'
p138
(dp139
I2
F22.549019607843139
sI3
F22.058823529411764
sI4
F21.199999999999999
sI5
F21
sI6
F18.235294117647058
sI7
F16.428571428571427
sI8
F20.833333333333336
sI9
F14.545454545454545
sI10
F10
sI11
F15.555555555555555
sI12
F6.25
sI13
F15.714285714285714
sI14
F21.428571428571427
sI15
F18.333333333333332
sI16
F11.666666666666666
sI17
F13.333333333333334
sI18
F14.000000000000002
sI19
F12
sI20
F18
ssS'svc'
p140
(dp141
I2
F76.078431372549019
sI3
F82.058823529411768
sI4
F89.200000000000003
sI5
F88
sI6
F78.82352941176471
sI7
F86.428571428571431
sI8
F82.5
sI9
F82.727272727272734
sI10
F91
sI11
F84.444444444444443
sI12
F88.75
sI13
F88.571428571428569
sI14
F81.428571428571431
sI15
F80
sI16
F91.666666666666657
sI17
F85
sI18
F78
sI19
F92
sI20
F94
ssS'rbf_svc'
p142
(dp143
I2
F24.313725490196077
sI3
F23.52941176470588
sI4
F20.399999999999999
sI5
F22.5
sI6
F25.294117647058822
sI7
F18.571428571428573
sI8
F23.333333333333332
sI9
F17.272727272727273
sI10
F15
sI11
F13.333333333333334
sI12
F18.75
sI13
F12.857142857142856
sI14
F27.142857142857142
sI15
F21.666666666666668
sI16
F13.333333333333334
sI17
F20
sI18
F16
sI19
F16
sI20
F28.000000000000004
ssS'lin_svc'
p144
(dp145
I2
F74.117647058823536
sI3
F78.82352941176471
sI4
F83.599999999999994
sI5
F84.5
sI6
F76.470588235294116
sI7
F81.428571428571431
sI8
F75.833333333333329
sI9
F80
sI10
F88
sI11
F82.222222222222214
sI12
F82.5
sI13
F81.428571428571431
sI14
F74.285714285714292
sI15
F81.666666666666671
sI16
F88.333333333333329
sI17
F80
sI18
F74
sI19
F86
sI20
F82
sssa(dp146
S'subset'
p147
I00
sS'level'
p148
S'behavior'
p149
sS'align'
p150
S'extend'
p151
sS'min_len'
p152
I500
sS'dataset'
p153
S'AB'
p154
sS'max_len'
p155
I1995
sS'avg_len'
p156
I607
sS'encode'
p157
S'FF'
p158
sS'accuracy'
p159
(dp160
S'poly_svc'
p161
(dp162
I2
F70.178571428571416
sI3
F72.68456375838926
sI4
F71.25
sI5
F72.13483146067415
sI6
F72.972972972972968
sI7
F72.34375
sI8
F75
sI9
F73.265306122448976
sI10
F77.045454545454547
sI11
F74.25
sI12
F71.351351351351354
sI13
F75
sI14
F74.375
sI15
F72.41379310344827
sI16
F76.428571428571416
sI17
F70.384615384615387
sI18
F73.333333333333329
sI19
F70.434782608695656
sI20
F71.36363636363636
ssS'svc'
p163
(dp164
I2
F66.607142857142847
sI3
F69.597315436241615
sI4
F68.839285714285708
sI5
F69.101123595505626
sI6
F71.351351351351354
sI7
F68.59375
sI8
F70.357142857142861
sI9
F71.224489795918373
sI10
F77.045454545454547
sI11
F70.5
sI12
F66.756756756756758
sI13
F73.529411764705884
sI14
F70
sI15
F71.034482758620683
sI16
F72.857142857142847
sI17
F70.384615384615387
sI18
F72.5
sI19
F71.304347826086953
sI20
F68.63636363636364
ssS'rbf_svc'
p165
(dp166
I2
F37.589285714285715
sI3
F39.194630872483224
sI4
F40.803571428571431
sI5
F39.325842696629216
sI6
F39.864864864864863
sI7
F38.75
sI8
F42.142857142857146
sI9
F43.061224489795919
sI10
F40.909090909090914
sI11
F42.25
sI12
F38.918918918918919
sI13
F40
sI14
F42.5
sI15
F41.03448275862069
sI16
F40
sI17
F38.846153846153847
sI18
F40.833333333333336
sI19
F39.565217391304344
sI20
F42.272727272727273
ssS'lin_svc'
p167
(dp168
I2
F67.857142857142861
sI3
F69.597315436241615
sI4
F69.017857142857139
sI5
F68.202247191011239
sI6
F70
sI7
F68.125
sI8
F71.428571428571431
sI9
F71.836734693877546
sI10
F75.227272727272734
sI11
F69.25
sI12
F68.108108108108112
sI13
F72.941176470588232
sI14
F69.6875
sI15
F71.724137931034477
sI16
F73.571428571428584
sI17
F68.07692307692308
sI18
F74.583333333333329
sI19
F71.739130434782609
sI20
F69.090909090909093
sssa(dp169
S'subset'
p170
I00
sS'level'
p171
S'behavior'
p172
sS'align'
p173
S'extend'
p174
sS'min_len'
p175
I500
sS'dataset'
p176
S'AC'
p177
sS'max_len'
p178
I14446
sS'avg_len'
p179
I1509
sS'encode'
p180
S'FF'
p181
sS'accuracy'
p182
(dp183
S'poly_svc'
p184
(dp185
I2
F23.488372093023255
sI3
F22.280701754385966
sI4
F22.093023255813954
sI5
F20.294117647058822
sI6
F18.214285714285712
sI7
F26.666666666666668
sI8
F21.428571428571427
sI9
F21.578947368421055
sI10
F23.52941176470588
sI11
F20
sI12
F16.428571428571427
sI13
F15.384615384615385
sI14
F24.166666666666668
sI15
F19.090909090909093
sI16
F20
sI17
F28.999999999999996
sI18
F13.333333333333334
sI19
F21.111111111111111
sI20
F17.5
ssS'svc'
p186
(dp187
I2
F62.558139534883715
sI3
F61.228070175438596
sI4
F65.813953488372093
sI5
F69.705882352941174
sI6
F65.357142857142861
sI7
F67.5
sI8
F65.714285714285708
sI9
F67.89473684210526
sI10
F71.764705882352942
sI11
F66
sI12
F66.428571428571431
sI13
F68.461538461538467
sI14
F67.5
sI15
F70.909090909090907
sI16
F69
sI17
F79
sI18
F57.777777777777771
sI19
F70
sI20
F55.000000000000007
ssS'rbf_svc'
p188
(dp189
I2
F13.023255813953488
sI3
F14.035087719298245
sI4
F14.186046511627906
sI5
F16.176470588235293
sI6
F12.142857142857142
sI7
F15
sI8
F15.238095238095239
sI9
F14.210526315789473
sI10
F14.117647058823529
sI11
F8.6666666666666679
sI12
F11.428571428571429
sI13
F10
sI14
F9.1666666666666661
sI15
F9.0909090909090917
sI16
F8
sI17
F9
sI18
F8.8888888888888893
sI19
F10
sI20
F11.25
ssS'lin_svc'
p190
(dp191
I2
F65
sI3
F63.508771929824562
sI4
F63.953488372093027
sI5
F66.764705882352942
sI6
F63.214285714285708
sI7
F70.416666666666671
sI8
F65.714285714285708
sI9
F68.421052631578945
sI10
F64.705882352941174
sI11
F65.333333333333329
sI12
F65.714285714285708
sI13
F61.53846153846154
sI14
F67.5
sI15
F69.090909090909093
sI16
F73
sI17
F71
sI18
F56.666666666666664
sI19
F70
sI20
F55.000000000000007
sssa(dp192
S'subset'
p193
I00
sS'max_len'
p194
I14446
sS'avg_len'
p195
I949
sS'accuracy'
p196
(dp197
S'poly_svc'
p198
(dp199
I2
F64.190871369294612
sI3
F63.812500000000007
sI4
F62.416666666666664
sI5
F64.0625
sI6
F63.749999999999993
sI7
F64.117647058823536
sI8
F64
sI9
F64.339622641509436
sI10
F65.833333333333329
sI11
F66.279069767441854
sI12
F64.25
sI13
F64.86486486486487
sI14
F62.352941176470587
sI15
F60.3125
sI16
F59.333333333333336
sI17
F69.285714285714278
sI18
F66.92307692307692
sI19
F63.600000000000001
sI20
F68.75
ssS'svc'
p200
(dp201
I2
F69.834024896265561
sI3
F71.9375
sI4
F70.916666666666657
sI5
F71.875
sI6
F70.75
sI7
F67.941176470588232
sI8
F72.833333333333343
sI9
F72.641509433962256
sI10
F73.75
sI11
F70
sI12
F71
sI13
F74.594594594594597
sI14
F74.117647058823536
sI15
F71.5625
sI16
F74
sI17
F74.642857142857139
sI18
F75
sI19
F75.599999999999994
sI20
F70.416666666666671
ssS'rbf_svc'
p202
(dp203
I2
F36.099585062240664
sI3
F39
sI4
F37.833333333333336
sI5
F37.1875
sI6
F36.375
sI7
F38.382352941176471
sI8
F40.166666666666664
sI9
F39.056603773584911
sI10
F37.708333333333336
sI11
F38.372093023255815
sI12
F38
sI13
F38.108108108108105
sI14
F36.470588235294116
sI15
F38.125
sI16
F36
sI17
F38.928571428571431
sI18
F39.615384615384613
sI19
F40.799999999999997
sI20
F40.833333333333336
ssS'lin_svc'
p204
(dp205
I2
F70.248962655601659
sI3
F70.375
sI4
F70.666666666666671
sI5
F70.625
sI6
F71.25
sI7
F67.5
sI8
F73.166666666666671
sI9
F73.396226415094333
sI10
F75.208333333333329
sI11
F70.232558139534888
sI12
F70
sI13
F74.86486486486487
sI14
F74.411764705882348
sI15
F69.6875
sI16
F71.666666666666671
sI17
F73.571428571428584
sI18
F77.307692307692307
sI19
F74.400000000000006
sI20
F70
sssS'level'
p206
S'behavior'
p207
sS'encode'
p208
S'FF'
p209
sS'align'
p210
S'extend'
p211
sS'min_len'
p212
I500
sS'dataset'
p213
S'BC'
p214
sa(dp215
g193
I00
sg194
I14446
sg195
I897
sg196
(dp216
S'poly_svc'
p217
(dp218
I2
F57.345454545454544
sI3
F58.579234972677597
sI4
F60.21897810218978
sI5
F57.909090909090907
sI6
F58.461538461538467
sI7
F56.794871794871796
sI8
F57.205882352941174
sI9
F61.803278688524586
sI10
F57.818181818181813
sI11
F61
sI12
F59.55555555555555
sI13
F60
sI14
F59.487179487179489
sI15
F59.722222222222221
sI16
F56.764705882352942
sI17
F60.624999999999993
sI18
F59.666666666666671
sI19
F61.03448275862069
sI20
F61.481481481481481
ssS'svc'
p219
(dp220
I2
F65.018181818181816
sI3
F66.120218579234972
sI4
F68.9051094890511
sI5
F67
sI6
F69.230769230769226
sI7
F64.358974358974365
sI8
F67.058823529411754
sI9
F71.47540983606558
sI10
F69.63636363636364
sI11
F69.399999999999991
sI12
F72.666666666666671
sI13
F66.666666666666657
sI14
F68.205128205128204
sI15
F73.055555555555557
sI16
F73.235294117647058
sI17
F65.9375
sI18
F68.333333333333329
sI19
F68.965517241379317
sI20
F71.111111111111114
ssS'rbf_svc'
p221
(dp222
I2
F30.909090909090907
sI3
F31.912568306010929
sI4
F32.627737226277368
sI5
F31.363636363636367
sI6
F32.967032967032964
sI7
F31.666666666666664
sI8
F33.235294117647058
sI9
F31.967213114754102
sI10
F35.090909090909086
sI11
F33.399999999999999
sI12
F35.555555555555557
sI13
F32.38095238095238
sI14
F34.871794871794869
sI15
F35.555555555555557
sI16
F31.176470588235293
sI17
F33.75
sI18
F28.000000000000004
sI19
F32.758620689655174
sI20
F33.703703703703702
ssS'lin_svc'
p223
(dp224
I2
F65.709090909090904
sI3
F65.300546448087431
sI4
F68.248175182481745
sI5
F65.818181818181813
sI6
F67.582417582417591
sI7
F64.358974358974365
sI8
F67.5
sI9
F72.131147540983605
sI10
F68.909090909090907
sI11
F68.200000000000003
sI12
F71.111111111111114
sI13
F67.142857142857139
sI14
F68.974358974358978
sI15
F71.944444444444443
sI16
F73.529411764705884
sI17
F64.6875
sI18
F66
sI19
F67.931034482758619
sI20
F68.888888888888886
sssg206
g207
sg208
g209
sg210
g211
sg212
I500
sg213
S'ABC'
p225
saa(lp226
(dp227
g193
I00
sg194
I1995
sg195
I1244
sg196
(dp228
S'poly_svc'
p229
(dp230
I2
F80.638297872340431
sI3
F82.539682539682531
sI4
F78.510638297872333
sI5
F81.081081081081081
sI6
F82.58064516129032
sI7
F82.222222222222214
sI8
F87.826086956521749
sI9
F85.714285714285708
sI10
F80
sI11
F81.764705882352942
sI12
F87.333333333333329
sI13
F81.428571428571431
sI14
F81.538461538461533
sI15
F80.833333333333329
sI16
F80
sI17
F83.636363636363626
sI18
F85
sI19
F78.888888888888886
sI20
F86.666666666666671
ssS'svc'
p231
(dp232
I2
F81.38297872340425
sI3
F82.063492063492063
sI4
F78.085106382978722
sI5
F81.621621621621614
sI6
F81.935483870967744
sI7
F82.592592592592595
sI8
F87.391304347826079
sI9
F85.714285714285708
sI10
F81.666666666666671
sI11
F82.35294117647058
sI12
F87.333333333333329
sI13
F82.142857142857139
sI14
F81.538461538461533
sI15
F81.666666666666671
sI16
F79.090909090909093
sI17
F83.636363636363626
sI18
F85
sI19
F76.666666666666671
sI20
F86.666666666666671
ssS'rbf_svc'
p233
(dp234
I2
F80.851063829787222
sI3
F82.38095238095238
sI4
F77.872340425531917
sI5
F80.810810810810807
sI6
F82.903225806451601
sI7
F82.592592592592595
sI8
F87.826086956521749
sI9
F83.80952380952381
sI10
F78.333333333333329
sI11
F79.411764705882348
sI12
F86.666666666666671
sI13
F77.857142857142861
sI14
F78.461538461538467
sI15
F81.666666666666671
sI16
F80.909090909090907
sI17
F82.727272727272734
sI18
F84
sI19
F77.777777777777786
sI20
F83.333333333333343
ssS'lin_svc'
p235
(dp236
I2
F79.574468085106389
sI3
F81.269841269841265
sI4
F75.319148936170208
sI5
F78.918918918918919
sI6
F83.225806451612911
sI7
F78.518518518518519
sI8
F83.913043478260875
sI9
F85.238095238095241
sI10
F82.222222222222214
sI11
F76.470588235294116
sI12
F86
sI13
F75.714285714285708
sI14
F80.769230769230774
sI15
F83.333333333333343
sI16
F81.818181818181827
sI17
F82.727272727272734
sI18
F82
sI19
F78.888888888888886
sI20
F83.333333333333343
sssg206
S'task'
p237
sg208
S'AFF'
p238
sg210
g211
sg212
I860
sg213
S'B'
sa(dp239
g193
I00
sg194
I16799
sg195
I6960
sg196
(dp240
S'poly_svc'
p241
(dp242
I2
F90
sI3
F90
sI4
F96.25
sI5
F80
sI6
F90
sI7
F95
sI8
F95
sI9
F96.666666666666671
sI10
F83.333333333333343
sI11
F90
sI12
F95
sI13
F95
sI14
F95
sI15
F90
sI16
F95
sI17
F90
sI18
F100
sI19
F90
sI20
F100
ssS'svc'
p243
(dp244
I2
F91.25
sI3
F92
sI4
F97.5
sI5
F81.666666666666671
sI6
F92
sI7
F97.5
sI8
F97.5
sI9
F100
sI10
F96.666666666666671
sI11
F95
sI12
F95
sI13
F100
sI14
F95
sI15
F95
sI16
F100
sI17
F100
sI18
F100
sI19
F100
sI20
F100
ssS'rbf_svc'
p245
(dp246
I2
F78.125
sI3
F81
sI4
F80
sI5
F73.333333333333329
sI6
F78
sI7
F72.5
sI8
F85
sI9
F90
sI10
F76.666666666666671
sI11
F65
sI12
F90
sI13
F90
sI14
F80
sI15
F75
sI16
F85
sI17
F80
sI18
F90
sI19
F80
sI20
F90
ssS'lin_svc'
p247
(dp248
I2
F89.375
sI3
F92
sI4
F96.25
sI5
F80
sI6
F92
sI7
F97.5
sI8
F97.5
sI9
F100
sI10
F96.666666666666671
sI11
F95
sI12
F95
sI13
F100
sI14
F95
sI15
F95
sI16
F100
sI17
F100
sI18
F100
sI19
F100
sI20
F100
sssg206
g237
sg208
g238
sg210
g211
sg212
I4397
sg213
S'C'
sa(dp249
g193
I00
sg194
I2123
sg195
I1311
sg196
(dp250
S'poly_svc'
p251
(dp252
I2
F81.25
sI3
F82.173913043478265
sI4
F84.807692307692307
sI5
F84.634146341463406
sI6
F78.235294117647058
sI7
F85.172413793103459
sI8
F85.384615384615387
sI9
F79.565217391304344
sI10
F83.5
sI11
F85
sI12
F87.058823529411768
sI13
F81.875
sI14
F76.428571428571416
sI15
F86.92307692307692
sI16
F83.846153846153854
sI17
F85
sI18
F83.636363636363626
sI19
F84
sI20
F80
ssS'svc'
p253
(dp254
I2
F80.57692307692308
sI3
F82.318840579710141
sI4
F84.230769230769226
sI5
F85.121951219512198
sI6
F78.235294117647058
sI7
F85.172413793103459
sI8
F85
sI9
F78.695652173913047
sI10
F83
sI11
F85
sI12
F86.470588235294116
sI13
F81.25
sI14
F77.142857142857153
sI15
F87.692307692307693
sI16
F83.846153846153854
sI17
F84.166666666666671
sI18
F83.636363636363626
sI19
F84
sI20
F80
ssS'rbf_svc'
p255
(dp256
I2
F73.75
sI3
F75.072463768115938
sI4
F77.692307692307693
sI5
F71.951219512195124
sI6
F71.17647058823529
sI7
F74.137931034482762
sI8
F74.615384615384613
sI9
F68.260869565217391
sI10
F76.5
sI11
F77.777777777777786
sI12
F75.882352941176464
sI13
F74.375
sI14
F66.428571428571431
sI15
F75.384615384615387
sI16
F79.230769230769226
sI17
F75.833333333333329
sI18
F74.545454545454547
sI19
F71
sI20
F76
ssS'lin_svc'
p257
(dp258
I2
F80.769230769230774
sI3
F82.173913043478265
sI4
F83.846153846153854
sI5
F84.146341463414629
sI6
F78.82352941176471
sI7
F84.827586206896555
sI8
F80.384615384615387
sI9
F78.695652173913047
sI10
F78
sI11
F84.444444444444443
sI12
F83.529411764705884
sI13
F81.875
sI14
F77.857142857142861
sI15
F87.692307692307693
sI16
F83.07692307692308
sI17
F85
sI18
F82.727272727272734
sI19
F82
sI20
F78
sssg206
g237
sg208
g238
sg210
g211
sg212
I860
sg213
S'AB'
p259
sa(dp260
g193
I00
sg194
I16799
sg195
I5103
sg196
(dp261
S'poly_svc'
p262
(dp263
I2
F84.399999999999991
sI3
F89.411764705882362
sI4
F85.833333333333329
sI5
F93
sI6
F93.75
sI7
F87.142857142857139
sI8
F96.666666666666671
sI9
F98
sI10
F86
sI11
F95
sI12
F87.5
sI13
F93.333333333333329
sI14
F100
sI15
F96.666666666666671
sI16
F96.666666666666671
sI17
F90
sI18
F95
sI19
F90
sI20
F95
ssS'svc'
p264
(dp265
I2
F94.799999999999997
sI3
F92.941176470588232
sI4
F90
sI5
F95
sI6
F95
sI7
F91.428571428571431
sI8
F96.666666666666671
sI9
F98
sI10
F92
sI11
F100
sI12
F95
sI13
F96.666666666666671
sI14
F100
sI15
F100
sI16
F96.666666666666671
sI17
F93.333333333333329
sI18
F95
sI19
F90
sI20
F100
ssS'rbf_svc'
p266
(dp267
I2
F46.800000000000004
sI3
F45.882352941176471
sI4
F42.5
sI5
F49
sI6
F51.249999999999993
sI7
F48.571428571428569
sI8
F50
sI9
F57.999999999999993
sI10
F46
sI11
F52.5
sI12
F42.5
sI13
F40
sI14
F53.333333333333336
sI15
F66.666666666666657
sI16
F50
sI17
F40
sI18
F45
sI19
F45
sI20
F55.000000000000007
ssS'lin_svc'
p268
(dp269
I2
F94.799999999999997
sI3
F93.529411764705884
sI4
F90.833333333333329
sI5
F95
sI6
F95
sI7
F92.857142857142861
sI8
F98.333333333333329
sI9
F98
sI10
F92
sI11
F100
sI12
F97.5
sI13
F96.666666666666671
sI14
F100
sI15
F100
sI16
F96.666666666666671
sI17
F96.666666666666671
sI18
F95
sI19
F95
sI20
F100
sssg206
g237
sg208
g238
sg210
g211
sg212
I1365
sg213
S'AC'
p270
sa(dp271
g193
I00
sg194
I16799
sg195
I2072
sg196
(dp272
S'poly_svc'
p273
(dp274
I2
F79.818181818181827
sI3
F82.465753424657535
sI4
F83.454545454545453
sI5
F84.545454545454547
sI6
F80.833333333333329
sI7
F85.483870967741936
sI8
F84.444444444444443
sI9
F80.416666666666671
sI10
F84.545454545454547
sI11
F76
sI12
F87.777777777777771
sI13
F85.294117647058826
sI14
F79.333333333333329
sI15
F82.142857142857139
sI16
F81.538461538461533
sI17
F86.92307692307692
sI18
F83.333333333333343
sI19
F76.363636363636374
sI20
F88.181818181818187
ssS'svc'
p275
(dp276
I2
F80
sI3
F83.561643835616437
sI4
F83.818181818181813
sI5
F84.545454545454547
sI6
F82.777777777777771
sI7
F87.096774193548384
sI8
F84.074074074074076
sI9
F80.833333333333329
sI10
F83.636363636363626
sI11
F78
sI12
F87.777777777777771
sI13
F84.117647058823536
sI14
F80
sI15
F82.142857142857139
sI16
F81.538461538461533
sI17
F85.384615384615387
sI18
F84.166666666666671
sI19
F78.181818181818187
sI20
F89.090909090909093
ssS'rbf_svc'
p277
(dp278
I2
F68.181818181818173
sI3
F68.904109589041099
sI4
F66.545454545454547
sI5
F69.318181818181827
sI6
F68.333333333333329
sI7
F70.322580645161295
sI8
F70
sI9
F69.166666666666671
sI10
F68.181818181818173
sI11
F63
sI12
F74.444444444444443
sI13
F68.82352941176471
sI14
F66.666666666666657
sI15
F71.428571428571431
sI16
F63.84615384615384
sI17
F74.615384615384613
sI18
F66.666666666666657
sI19
F63.636363636363633
sI20
F75.454545454545453
ssS'lin_svc'
p279
(dp280
I2
F79.72727272727272
sI3
F82.876712328767127
sI4
F84.545454545454547
sI5
F82.045454545454547
sI6
F82.222222222222214
sI7
F86.129032258064512
sI8
F83.703703703703695
sI9
F80
sI10
F84.090909090909093
sI11
F78
sI12
F87.222222222222229
sI13
F84.117647058823536
sI14
F81.333333333333329
sI15
F81.428571428571431
sI16
F80.769230769230774
sI17
F86.15384615384616
sI18
F85
sI19
F77.272727272727266
sI20
F88.181818181818187
sssg206
g237
sg208
g238
sg210
g211
sg212
I860
sg213
g214
sa(dp281
g193
I00
sg194
I16799
sg195
I2064
sg196
(dp282
S'poly_svc'
p283
(dp284
I2
F82.5
sI3
F82.125
sI4
F84
sI5
F85.833333333333329
sI6
F83.5
sI7
F85.882352941176464
sI8
F82.333333333333343
sI9
F82.307692307692307
sI10
F83.75
sI11
F85.238095238095241
sI12
F81.5
sI13
F82.222222222222214
sI14
F84.705882352941174
sI15
F83.125
sI16
F80.666666666666657
sI17
F87.142857142857139
sI18
F84.615384615384613
sI19
F84.166666666666671
sI20
F73.333333333333329
ssS'svc'
p285
(dp286
I2
F83.083333333333329
sI3
F83
sI4
F85.333333333333343
sI5
F85.625
sI6
F83.5
sI7
F86.176470588235304
sI8
F83.666666666666671
sI9
F82.692307692307693
sI10
F84.583333333333329
sI11
F87.142857142857139
sI12
F81.5
sI13
F81.111111111111114
sI14
F85.294117647058826
sI15
F83.125
sI16
F81.333333333333329
sI17
F88.571428571428569
sI18
F85.384615384615387
sI19
F85
sI20
F75.833333333333329
ssS'rbf_svc'
p287
(dp288
I2
F64
sI3
F62.5
sI4
F64.5
sI5
F64.583333333333343
sI6
F64.75
sI7
F62.647058823529413
sI8
F62.333333333333329
sI9
F60.769230769230766
sI10
F63.749999999999993
sI11
F60.952380952380956
sI12
F65
sI13
F62.222222222222221
sI14
F61.764705882352942
sI15
F58.125000000000007
sI16
F66.666666666666657
sI17
F63.571428571428569
sI18
F66.92307692307692
sI19
F56.666666666666664
sI20
F57.499999999999993
ssS'lin_svc'
p289
(dp290
I2
F83.5
sI3
F82.25
sI4
F83.833333333333343
sI5
F86.458333333333343
sI6
F84.5
sI7
F86.470588235294116
sI8
F84
sI9
F83.461538461538467
sI10
F81.666666666666671
sI11
F87.61904761904762
sI12
F82.5
sI13
F80
sI14
F86.470588235294116
sI15
F82.5
sI16
F82.666666666666671
sI17
F85
sI18
F86.92307692307692
sI19
F85
sI20
F76.666666666666671
sssg206
g237
sg208
g238
sg210
g211
sg212
I860
sg213
g225
saa(lp291
(dp292
S'subset'
p293
I00
sS'level'
p294
S'behavior'
p295
sS'align'
p296
S'extend'
p297
sS'min_len'
p298
I500
sS'dataset'
p299
S'A'
sS'max_len'
p300
I915
sS'avg_len'
p301
I471
sS'encode'
p302
S'AFF'
p303
sS'accuracy'
p304
(dp305
S'poly_svc'
p306
(dp307
I2
F45.636363636363633
sI3
F50.270270270270267
sI4
F48.888888888888886
sI5
F47.727272727272727
sI6
F51.666666666666671
sI7
F52.666666666666664
sI8
F47.692307692307693
sI9
F49.166666666666664
sI10
F54.54545454545454
sI11
F41
sI12
F50
sI13
F43.75
sI14
F42.857142857142854
sI15
F51.428571428571423
sI16
F46.666666666666664
sI17
F45
sI18
F48.333333333333336
sI19
F62
sI20
F48
ssS'svc'
p308
(dp309
I2
F30.181818181818183
sI3
F34.864864864864863
sI4
F33.703703703703702
sI5
F33.181818181818187
sI6
F35
sI7
F36
sI8
F36.923076923076927
sI9
F35.833333333333336
sI10
F41.818181818181813
sI11
F34
sI12
F41.111111111111107
sI13
F35
sI14
F28.571428571428569
sI15
F44.285714285714285
sI16
F33.333333333333329
sI17
F35
sI18
F35
sI19
F46
sI20
F44
ssS'rbf_svc'
p310
(dp311
I2
F20
sI3
F16.756756756756758
sI4
F17.407407407407408
sI5
F14.09090909090909
sI6
F15
sI7
F18.666666666666668
sI8
F12.307692307692308
sI9
F12.5
sI10
F16.363636363636363
sI11
F10
sI12
F12.222222222222221
sI13
F12.5
sI14
F11.428571428571429
sI15
F14.285714285714285
sI16
F11.666666666666666
sI17
F6.666666666666667
sI18
F5
sI19
F10
sI20
F12
ssS'lin_svc'
p312
(dp313
I2
F33.272727272727273
sI3
F31.621621621621621
sI4
F29.629629629629626
sI5
F34.090909090909086
sI6
F35
sI7
F38.666666666666664
sI8
F34.615384615384613
sI9
F36.666666666666664
sI10
F37.272727272727273
sI11
F37
sI12
F41.111111111111107
sI13
F32.5
sI14
F27.142857142857142
sI15
F44.285714285714285
sI16
F35
sI17
F38.333333333333336
sI18
F31.666666666666664
sI19
F42
sI20
F36
sssa(dp314
S'subset'
p315
I00
sS'level'
p316
S'behavior'
p317
sS'align'
p318
S'extend'
p319
sS'min_len'
p320
I500
sS'dataset'
p321
S'B'
sS'max_len'
p322
I1995
sS'avg_len'
p323
I620
sS'encode'
p324
S'AFF'
p325
sS'accuracy'
p326
(dp327
S'poly_svc'
p328
(dp329
I2
F79.473684210526315
sI3
F80.078740157480311
sI4
F80.526315789473685
sI5
F81.973684210526315
sI6
F81.428571428571431
sI7
F79.259259259259267
sI8
F81.276595744680847
sI9
F79.285714285714278
sI10
F82.10526315789474
sI11
F79.411764705882348
sI12
F81.612903225806448
sI13
F82.068965517241381
sI14
F81.481481481481481
sI15
F80
sI16
F81.304347826086953
sI17
F79.545454545454547
sI18
F82.38095238095238
sI19
F85.5
sI20
F84.210526315789465
ssS'svc'
p330
(dp331
I2
F75.31578947368422
sI3
F75.354330708661422
sI4
F75.26315789473685
sI5
F75.657894736842096
sI6
F76.825396825396837
sI7
F75.555555555555557
sI8
F77.021276595744681
sI9
F76.666666666666671
sI10
F77.368421052631575
sI11
F75.882352941176464
sI12
F77.096774193548384
sI13
F79.310344827586206
sI14
F77.037037037037038
sI15
F76.799999999999997
sI16
F76.08695652173914
sI17
F75.454545454545453
sI18
F77.61904761904762
sI19
F80.5
sI20
F73.68421052631578
ssS'rbf_svc'
p332
(dp333
I2
F45.10526315789474
sI3
F47.086614173228348
sI4
F47.684210526315788
sI5
F47.10526315789474
sI6
F46.666666666666664
sI7
F48.888888888888886
sI8
F49.574468085106382
sI9
F45.952380952380949
sI10
F48.157894736842103
sI11
F50
sI12
F49.032258064516128
sI13
F53.448275862068961
sI14
F47.407407407407412
sI15
F45.200000000000003
sI16
F45.652173913043477
sI17
F46.81818181818182
sI18
F45.714285714285715
sI19
F52
sI20
F43.684210526315795
ssS'lin_svc'
p334
(dp335
I2
F72
sI3
F73.228346456692918
sI4
F74.210526315789465
sI5
F70.263157894736835
sI6
F73.492063492063494
sI7
F72.962962962962962
sI8
F74.468085106382972
sI9
F73.80952380952381
sI10
F73.94736842105263
sI11
F74.117647058823536
sI12
F72.58064516129032
sI13
F76.896551724137936
sI14
F75.18518518518519
sI15
F77.200000000000003
sI16
F69.565217391304344
sI17
F67.72727272727272
sI18
F76.19047619047619
sI19
F71.5
sI20
F73.15789473684211
sssa(dp336
S'subset'
p337
I00
sS'level'
p338
S'behavior'
p339
sS'align'
p340
S'extend'
p341
sS'min_len'
p342
I500
sS'dataset'
p343
S'C'
sS'max_len'
p344
I14446
sS'avg_len'
p345
I2162
sS'encode'
p346
S'AFF'
p347
sS'accuracy'
p348
(dp349
S'poly_svc'
p350
(dp351
I2
F24.509803921568626
sI3
F24.705882352941178
sI4
F27.600000000000001
sI5
F31.5
sI6
F35.882352941176471
sI7
F31.428571428571427
sI8
F26.666666666666668
sI9
F26.36363636363636
sI10
F34
sI11
F34.444444444444443
sI12
F35
sI13
F21.428571428571427
sI14
F32.857142857142854
sI15
F36.666666666666664
sI16
F35
sI17
F28.333333333333332
sI18
F32
sI19
F20
sI20
F36
ssS'svc'
p352
(dp353
I2
F45.882352941176471
sI3
F49.705882352941174
sI4
F49.600000000000001
sI5
F52
sI6
F50.588235294117645
sI7
F43.571428571428569
sI8
F54.166666666666664
sI9
F43.636363636363633
sI10
F48
sI11
F55.555555555555557
sI12
F52.5
sI13
F44.285714285714285
sI14
F45.714285714285715
sI15
F53.333333333333336
sI16
F61.666666666666671
sI17
F53.333333333333336
sI18
F44
sI19
F56.000000000000007
sI20
F54
ssS'rbf_svc'
p354
(dp355
I2
F21.176470588235293
sI3
F18.823529411764707
sI4
F20
sI5
F21.5
sI6
F19.411764705882355
sI7
F13.571428571428571
sI8
F9.1666666666666661
sI9
F10
sI10
F15
sI11
F13.333333333333334
sI12
F15
sI13
F11.428571428571429
sI14
F15.714285714285714
sI15
F10
sI16
F10
sI17
F16.666666666666664
sI18
F6
sI19
F12
sI20
F12
ssS'lin_svc'
p356
(dp357
I2
F47.254901960784309
sI3
F48.823529411764703
sI4
F46
sI5
F54.500000000000007
sI6
F48.823529411764703
sI7
F43.571428571428569
sI8
F50.833333333333329
sI9
F44.545454545454547
sI10
F46
sI11
F52.222222222222229
sI12
F56.25
sI13
F44.285714285714285
sI14
F45.714285714285715
sI15
F53.333333333333336
sI16
F63.333333333333329
sI17
F51.666666666666671
sI18
F42
sI19
F52
sI20
F52
sssa(dp358
g193
I00
sg194
I1995
sg195
I607
sg196
(dp359
S'poly_svc'
p360
(dp361
I2
F72.008928571428584
sI3
F71.073825503355707
sI4
F72.321428571428569
sI5
F75.056179775280896
sI6
F70.675675675675677
sI7
F73.75
sI8
F75.892857142857139
sI9
F73.673469387755091
sI10
F68.63636363636364
sI11
F72.75
sI12
F70
sI13
F70.882352941176478
sI14
F72.1875
sI15
F72.41379310344827
sI16
F73.214285714285708
sI17
F67.692307692307693
sI18
F70.416666666666671
sI19
F75.65217391304347
sI20
F76.363636363636374
ssS'svc'
p362
(dp363
I2
F69.866071428571431
sI3
F69.261744966442947
sI4
F69.910714285714278
sI5
F70.898876404494388
sI6
F69.729729729729726
sI7
F71.875
sI8
F71.607142857142861
sI9
F69.183673469387756
sI10
F67.5
sI11
F71
sI12
F69.459459459459467
sI13
F67.941176470588232
sI14
F68.125
sI15
F71.379310344827587
sI16
F73.928571428571431
sI17
F67.307692307692307
sI18
F70.833333333333343
sI19
F74.782608695652172
sI20
F73.181818181818187
ssS'rbf_svc'
p364
(dp365
I2
F38.303571428571431
sI3
F37.919463087248324
sI4
F43.839285714285715
sI5
F41.91011235955056
sI6
F41.216216216216218
sI7
F41.25
sI8
F41.607142857142861
sI9
F38.775510204081634
sI10
F41.590909090909086
sI11
F39.5
sI12
F40.270270270270267
sI13
F39.411764705882355
sI14
F38.125
sI15
F42.413793103448278
sI16
F42.857142857142854
sI17
F35.769230769230766
sI18
F38.75
sI19
F40.434782608695649
sI20
F40
ssS'lin_svc'
p366
(dp367
I2
F64.955357142857139
sI3
F66.107382550335572
sI4
F65
sI5
F70.224719101123597
sI6
F64.594594594594597
sI7
F63.125
sI8
F65
sI9
F66.530612244897952
sI10
F63.636363636363633
sI11
F67.5
sI12
F64.324324324324323
sI13
F68.529411764705884
sI14
F64.375
sI15
F72.758620689655174
sI16
F71.071428571428569
sI17
F66.153846153846146
sI18
F65.416666666666671
sI19
F72.608695652173921
sI20
F69.545454545454547
sssg206
g207
sg208
g238
sg210
g211
sg212
I500
sg213
g259
sa(dp368
S'subset'
p369
I00
sS'level'
p370
S'behavior'
p371
sS'align'
p372
S'extend'
p373
sS'min_len'
p374
I500
sS'dataset'
p375
S'AC'
p376
sS'max_len'
p377
I14446
sS'avg_len'
p378
I1285
sS'encode'
p379
S'AFF'
p380
sS'accuracy'
p381
(dp382
S'poly_svc'
p383
(dp384
I2
F21.682242990654206
sI3
F22.95774647887324
sI4
F22.830188679245282
sI5
F25.238095238095237
sI6
F27.142857142857142
sI7
F28.000000000000004
sI8
F25
sI9
F28.260869565217391
sI10
F20.952380952380953
sI11
F31.578947368421051
sI12
F23.52941176470588
sI13
F24.375
sI14
F28.666666666666668
sI15
F22.142857142857142
sI16
F27.692307692307693
sI17
F35
sI18
F21.818181818181817
sI19
F20.909090909090907
sI20
F30
ssS'svc'
p385
(dp386
I2
F34.859813084112155
sI3
F37.74647887323944
sI4
F37.735849056603776
sI5
F36.19047619047619
sI6
F42
sI7
F36.333333333333336
sI8
F36.538461538461533
sI9
F42.608695652173914
sI10
F37.142857142857146
sI11
F42.631578947368418
sI12
F41.17647058823529
sI13
F36.25
sI14
F45.333333333333329
sI15
F44.285714285714285
sI16
F39.230769230769234
sI17
F48.333333333333336
sI18
F44.545454545454547
sI19
F38.181818181818187
sI20
F40
ssS'rbf_svc'
p387
(dp388
I2
F12.242990654205608
sI3
F13.380281690140844
sI4
F10.943396226415095
sI5
F10.476190476190476
sI6
F11.714285714285715
sI7
F11
sI8
F8.4615384615384617
sI9
F7.8260869565217401
sI10
F8.0952380952380949
sI11
F12.631578947368421
sI12
F8.235294117647058
sI13
F6.25
sI14
F8.6666666666666679
sI15
F7.1428571428571423
sI16
F6.1538461538461542
sI17
F10.833333333333334
sI18
F7.2727272727272725
sI19
F7.2727272727272725
sI20
F10
ssS'lin_svc'
p389
(dp390
I2
F29.813084112149536
sI3
F31.26760563380282
sI4
F31.320754716981131
sI5
F30.952380952380953
sI6
F26.285714285714285
sI7
F26.666666666666668
sI8
F26.53846153846154
sI9
F30.869565217391305
sI10
F25.714285714285712
sI11
F35.789473684210527
sI12
F30.588235294117649
sI13
F25.624999999999996
sI14
F41.333333333333336
sI15
F33.571428571428569
sI16
F33.076923076923073
sI17
F34.166666666666664
sI18
F33.636363636363633
sI19
F26.36363636363636
sI20
F33
sssa(dp391
S'subset'
p392
I00
sS'level'
p393
S'behavior'
p394
sS'align'
p395
S'extend'
p396
sS'min_len'
p397
I500
sS'dataset'
p398
S'BC'
p399
sS'max_len'
p400
I14446
sS'avg_len'
p401
I948
sS'encode'
p402
S'AFF'
p403
sS'accuracy'
p404
(dp405
S'poly_svc'
p406
(dp407
I2
F63.512396694214878
sI3
F62.670807453416145
sI4
F63.801652892561989
sI5
F65.520833333333329
sI6
F64.75
sI7
F62.608695652173921
sI8
F63.333333333333329
sI9
F64.905660377358487
sI10
F60.416666666666664
sI11
F64.318181818181813
sI12
F64.25
sI13
F65.945945945945951
sI14
F67.058823529411754
sI15
F62.5
sI16
F63
sI17
F61.428571428571431
sI18
F58.846153846153847
sI19
F64
sI20
F61.666666666666671
ssS'svc'
p408
(dp409
I2
F63.966942148760332
sI3
F64.409937888198755
sI4
F62.148760330578511
sI5
F64.791666666666671
sI6
F68
sI7
F62.89855072463768
sI8
F67.166666666666657
sI9
F70
sI10
F66.458333333333329
sI11
F67.272727272727266
sI12
F65.25
sI13
F69.729729729729726
sI14
F68.82352941176471
sI15
F63.4375
sI16
F67
sI17
F67.142857142857139
sI18
F65
sI19
F68.799999999999997
sI20
F67.083333333333329
ssS'rbf_svc'
p410
(dp411
I2
F35.371900826446279
sI3
F38.633540372670808
sI4
F35.702479338842977
sI5
F37.5
sI6
F38.75
sI7
F36.666666666666664
sI8
F37.333333333333336
sI9
F41.509433962264154
sI10
F38.75
sI11
F38.86363636363636
sI12
F35.75
sI13
F39.45945945945946
sI14
F40.882352941176471
sI15
F39.375
sI16
F38.333333333333336
sI17
F35.357142857142861
sI18
F35.769230769230766
sI19
F36
sI20
F37.5
ssS'lin_svc'
p412
(dp413
I2
F52.024793388429757
sI3
F45.093167701863351
sI4
F49.504132231404959
sI5
F46.25
sI6
F53
sI7
F46.231884057971016
sI8
F54.500000000000007
sI9
F52.264150943396224
sI10
F51.249999999999993
sI11
F51.81818181818182
sI12
F52.5
sI13
F58.378378378378379
sI14
F54.117647058823529
sI15
F51.249999999999993
sI16
F47.666666666666671
sI17
F48.571428571428569
sI18
F56.92307692307692
sI19
F59.199999999999996
sI20
F47.916666666666671
sssa(dp414
S'subset'
p415
I00
sS'level'
p416
S'behavior'
p417
sS'align'
p418
S'extend'
p419
sS'min_len'
p420
I500
sS'dataset'
p421
S'ABC'
p422
sS'max_len'
p423
I14446
sS'avg_len'
p424
I859
sS'encode'
p425
S'AFF'
p426
sS'accuracy'
p427
(dp428
S'poly_svc'
p429
(dp430
I2
F54.646464646464644
sI3
F54.949494949494948
sI4
F55.270270270270274
sI5
F56.638655462184872
sI6
F56.767676767676768
sI7
F56.941176470588239
sI8
F56.351351351351354
sI9
F53.939393939393945
sI10
F56.779661016949156
sI11
F55.740740740740748
sI12
F56.12244897959183
sI13
F56.444444444444443
sI14
F55.476190476190482
sI15
F60.512820512820511
sI16
F51.891891891891895
sI17
F53.714285714285715
sI18
F58.484848484848484
sI19
F54.838709677419352
sI20
F52.758620689655174
ssS'svc'
p431
(dp432
I2
F54.343434343434339
sI3
F56.464646464646464
sI4
F56.148648648648646
sI5
F57.983193277310932
sI6
F56.060606060606055
sI7
F58.352941176470587
sI8
F57.027027027027025
sI9
F57.727272727272727
sI10
F59.322033898305079
sI11
F56.851851851851855
sI12
F60.408163265306122
sI13
F61.777777777777779
sI14
F57.142857142857139
sI15
F63.333333333333329
sI16
F55.945945945945944
sI17
F59.142857142857139
sI18
F60.303030303030305
sI19
F56.774193548387096
sI20
F55.517241379310342
ssS'rbf_svc'
p433
(dp434
I2
F29.393939393939394
sI3
F31.313131313131315
sI4
F32.027027027027025
sI5
F32.100840336134453
sI6
F32.525252525252526
sI7
F32.235294117647058
sI8
F33.783783783783782
sI9
F31.212121212121215
sI10
F30.847457627118647
sI11
F32.037037037037038
sI12
F32.448979591836732
sI13
F32.888888888888893
sI14
F32.142857142857146
sI15
F33.333333333333329
sI16
F28.648648648648649
sI17
F32
sI18
F33.030303030303031
sI19
F31.93548387096774
sI20
F26.896551724137929
ssS'lin_svc'
p435
(dp436
I2
F30.505050505050509
sI3
F34.595959595959599
sI4
F28.310810810810811
sI5
F26.806722689075631
sI6
F30.707070707070706
sI7
F21.882352941176471
sI8
F26.486486486486488
sI9
F25.454545454545453
sI10
F26.779661016949152
sI11
F22.592592592592592
sI12
F27.755102040816325
sI13
F25.555555555555554
sI14
F25.476190476190474
sI15
F26.923076923076923
sI16
F24.054054054054056
sI17
F29.714285714285715
sI18
F26.060606060606062
sI19
F21.612903225806452
sI20
F22.068965517241381
sssaa(lp437
(dp438
g193
I00
sg194
I1995
sg195
I1244
sg196
(dp439
S'poly_svc'
p440
(dp441
I2
F80
sI3
F78.253968253968253
sI4
F79.574468085106389
sI5
F79.189189189189193
sI6
F85.161290322580641
sI7
F79.259259259259267
sI8
F81.739130434782609
sI9
F81.904761904761898
sI10
F80
sI11
F80
sI12
F78.666666666666657
sI13
F83.571428571428569
sI14
F80
sI15
F86.666666666666671
sI16
F81.818181818181827
sI17
F81.818181818181827
sI18
F75
sI19
F75.555555555555557
sI20
F77.777777777777786
ssS'svc'
p442
(dp443
I2
F79.787234042553195
sI3
F78.888888888888886
sI4
F79.787234042553195
sI5
F79.459459459459453
sI6
F84.838709677419359
sI7
F78.518518518518519
sI8
F82.173913043478265
sI9
F81.428571428571431
sI10
F80.555555555555557
sI11
F81.17647058823529
sI12
F78
sI13
F84.285714285714292
sI14
F80
sI15
F86.666666666666671
sI16
F80.909090909090907
sI17
F80.909090909090907
sI18
F76
sI19
F74.444444444444443
sI20
F76.666666666666671
ssS'rbf_svc'
p444
(dp445
I2
F81.808510638297875
sI3
F79.047619047619051
sI4
F78.723404255319153
sI5
F78.918918918918919
sI6
F85.806451612903217
sI7
F79.629629629629633
sI8
F81.739130434782609
sI9
F82.857142857142861
sI10
F79.444444444444443
sI11
F82.941176470588246
sI12
F81.333333333333329
sI13
F82.857142857142861
sI14
F79.230769230769226
sI15
F85
sI16
F79.090909090909093
sI17
F80
sI18
F78
sI19
F72.222222222222214
sI20
F76.666666666666671
ssS'lin_svc'
p446
(dp447
I2
F79.680851063829778
sI3
F79.523809523809518
sI4
F79.787234042553195
sI5
F72.972972972972968
sI6
F85.161290322580641
sI7
F80
sI8
F78.260869565217391
sI9
F80.952380952380949
sI10
F78.333333333333329
sI11
F80
sI12
F80
sI13
F82.142857142857139
sI14
F77.692307692307693
sI15
F86.666666666666671
sI16
F79.090909090909093
sI17
F76.363636363636374
sI18
F75
sI19
F76.666666666666671
sI20
F75.555555555555557
sssg206
g237
sg208
g209
sg210
S'cut'
p448
sg212
I860
sg213
S'B'
sa(dp449
g193
I00
sg194
I16799
sg195
I6960
sg196
(dp450
S'poly_svc'
p451
(dp452
I2
F60
sI3
F75
sI4
F73.75
sI5
F85
sI6
F66
sI7
F87.5
sI8
F75
sI9
F66.666666666666657
sI10
F80
sI11
F80
sI12
F85
sI13
F80
sI14
F75
sI15
F65
sI16
F80
sI17
F80
sI18
F80
sI19
F90
sI20
F80
ssS'svc'
p453
(dp454
I2
F92.5
sI3
F99
sI4
F97.5
sI5
F100
sI6
F100
sI7
F100
sI8
F100
sI9
F100
sI10
F100
sI11
F100
sI12
F100
sI13
F100
sI14
F100
sI15
F100
sI16
F100
sI17
F100
sI18
F100
sI19
F100
sI20
F100
ssS'rbf_svc'
p455
(dp456
I2
F77.5
sI3
F82
sI4
F73.75
sI5
F85
sI6
F66
sI7
F87.5
sI8
F75
sI9
F66.666666666666657
sI10
F80
sI11
F80
sI12
F85
sI13
F80
sI14
F75
sI15
F65
sI16
F80
sI17
F80
sI18
F80
sI19
F90
sI20
F80
ssS'lin_svc'
p457
(dp458
I2
F100
sI3
F100
sI4
F100
sI5
F100
sI6
F100
sI7
F100
sI8
F100
sI9
F100
sI10
F100
sI11
F100
sI12
F100
sI13
F100
sI14
F100
sI15
F100
sI16
F100
sI17
F100
sI18
F100
sI19
F100
sI20
F100
sssg206
g237
sg208
g209
sg210
g448
sg212
I4397
sg213
S'C'
sa(dp459
g193
I00
sg194
I2123
sg195
I1311
sg196
(dp460
S'poly_svc'
p461
(dp462
I2
F78.365384615384613
sI3
F81.449275362318843
sI4
F81.730769230769226
sI5
F81.463414634146332
sI6
F82.647058823529406
sI7
F83.103448275862064
sI8
F81.538461538461533
sI9
F78.260869565217391
sI10
F76.5
sI11
F82.777777777777771
sI12
F82.35294117647058
sI13
F78.125
sI14
F82.142857142857139
sI15
F85.384615384615387
sI16
F76.153846153846146
sI17
F77.5
sI18
F83.636363636363626
sI19
F80
sI20
F87
ssS'svc'
p463
(dp464
I2
F78.269230769230774
sI3
F81.014492753623188
sI4
F82.307692307692307
sI5
F81.463414634146332
sI6
F82.941176470588246
sI7
F83.103448275862064
sI8
F81.538461538461533
sI9
F77.826086956521735
sI10
F76.5
sI11
F84.444444444444443
sI12
F82.35294117647058
sI13
F77.5
sI14
F82.857142857142861
sI15
F86.15384615384616
sI16
F75.384615384615387
sI17
F78.333333333333329
sI18
F83.636363636363626
sI19
F80
sI20
F88
ssS'rbf_svc'
p465
(dp466
I2
F72.884615384615387
sI3
F74.05797101449275
sI4
F74.615384615384613
sI5
F74.634146341463421
sI6
F72.941176470588232
sI7
F78.275862068965523
sI8
F72.692307692307693
sI9
F71.739130434782609
sI10
F69.5
sI11
F71.666666666666671
sI12
F75.294117647058826
sI13
F73.75
sI14
F71.428571428571431
sI15
F73.076923076923066
sI16
F70.769230769230774
sI17
F70.833333333333343
sI18
F66.363636363636374
sI19
F74
sI20
F81
ssS'lin_svc'
p467
(dp468
I2
F78.461538461538467
sI3
F80.869565217391298
sI4
F81.15384615384616
sI5
F81.463414634146332
sI6
F83.235294117647058
sI7
F82.068965517241381
sI8
F80.384615384615387
sI9
F79.565217391304344
sI10
F75.5
sI11
F80.555555555555557
sI12
F84.117647058823536
sI13
F79.375
sI14
F81.428571428571431
sI15
F85.384615384615387
sI16
F76.153846153846146
sI17
F77.5
sI18
F86.36363636363636
sI19
F81
sI20
F81
sssg206
g237
sg208
g209
sg210
g448
sg212
I860
sg213
g259
sa(dp469
g193
I00
sg194
I16799
sg195
I5103
sg196
(dp470
S'poly_svc'
p471
(dp472
I2
F83.599999999999994
sI3
F85.294117647058826
sI4
F83.333333333333343
sI5
F84
sI6
F93.75
sI7
F91.428571428571431
sI8
F93.333333333333329
sI9
F98
sI10
F90
sI11
F95
sI12
F90
sI13
F96.666666666666671
sI14
F96.666666666666671
sI15
F96.666666666666671
sI16
F100
sI17
F86.666666666666671
sI18
F90
sI19
F100
sI20
F95
ssS'svc'
p473
(dp474
I2
F97.599999999999994
sI3
F97.647058823529406
sI4
F95.833333333333343
sI5
F97
sI6
F100
sI7
F98.571428571428584
sI8
F96.666666666666671
sI9
F98
sI10
F98
sI11
F100
sI12
F100
sI13
F96.666666666666671
sI14
F100
sI15
F96.666666666666671
sI16
F100
sI17
F93.333333333333329
sI18
F90
sI19
F100
sI20
F100
ssS'rbf_svc'
p475
(dp476
I2
F45.200000000000003
sI3
F48.823529411764703
sI4
F57.499999999999993
sI5
F55.000000000000007
sI6
F65
sI7
F61.428571428571431
sI8
F48.333333333333336
sI9
F46
sI10
F68
sI11
F72.5
sI12
F55.000000000000007
sI13
F63.333333333333329
sI14
F70
sI15
F63.333333333333329
sI16
F46.666666666666664
sI17
F60
sI18
F55.000000000000007
sI19
F50
sI20
F50
ssS'lin_svc'
p477
(dp478
I2
F97.599999999999994
sI3
F97.647058823529406
sI4
F95.833333333333343
sI5
F97
sI6
F100
sI7
F98.571428571428584
sI8
F96.666666666666671
sI9
F98
sI10
F98
sI11
F100
sI12
F100
sI13
F96.666666666666671
sI14
F100
sI15
F96.666666666666671
sI16
F100
sI17
F93.333333333333329
sI18
F90
sI19
F100
sI20
F100
sssg206
g237
sg208
g209
sg210
g448
sg212
I1365
sg213
g270
sa(dp479
g193
I00
sg194
I16799
sg195
I2072
sg196
(dp480
S'poly_svc'
p481
(dp482
I2
F78.545454545454547
sI3
F81.232876712328775
sI4
F82
sI5
F82.045454545454547
sI6
F79.444444444444443
sI7
F80.322580645161295
sI8
F76.666666666666671
sI9
F84.166666666666671
sI10
F80.454545454545453
sI11
F81.5
sI12
F79.444444444444443
sI13
F81.17647058823529
sI14
F77.333333333333329
sI15
F80
sI16
F86.15384615384616
sI17
F81.538461538461533
sI18
F76.666666666666671
sI19
F78.181818181818187
sI20
F79.090909090909093
ssS'svc'
p483
(dp484
I2
F81.818181818181827
sI3
F83.972602739726028
sI4
F84.181818181818187
sI5
F84.318181818181813
sI6
F81.666666666666671
sI7
F83.548387096774192
sI8
F81.111111111111114
sI9
F85.833333333333329
sI10
F83.181818181818173
sI11
F85
sI12
F83.333333333333343
sI13
F84.705882352941174
sI14
F81.333333333333329
sI15
F82.857142857142861
sI16
F86.15384615384616
sI17
F85.384615384615387
sI18
F81.666666666666671
sI19
F82.727272727272734
sI20
F84.545454545454547
ssS'rbf_svc'
p485
(dp486
I2
F69.36363636363636
sI3
F71.095890410958901
sI4
F72
sI5
F69.318181818181827
sI6
F69.722222222222214
sI7
F70.645161290322577
sI8
F66.296296296296305
sI9
F73.75
sI10
F71.818181818181813
sI11
F72
sI12
F70
sI13
F71.17647058823529
sI14
F72
sI15
F65
sI16
F73.846153846153854
sI17
F70
sI18
F74.166666666666671
sI19
F74.545454545454547
sI20
F72.727272727272734
ssS'lin_svc'
p487
(dp488
I2
F79.818181818181827
sI3
F84.38356164383562
sI4
F84.36363636363636
sI5
F83.636363636363626
sI6
F81.944444444444443
sI7
F83.225806451612911
sI8
F81.111111111111114
sI9
F85.833333333333329
sI10
F81.818181818181827
sI11
F85
sI12
F82.222222222222214
sI13
F85.882352941176464
sI14
F83.333333333333343
sI15
F82.857142857142861
sI16
F85.384615384615387
sI17
F87.692307692307693
sI18
F84.166666666666671
sI19
F84.545454545454547
sI20
F86.36363636363636
sssg206
g237
sg208
g209
sg210
g448
sg212
I860
sg213
g214
sa(dp489
g193
I00
sg194
I16799
sg195
I2064
sg196
(dp490
S'poly_svc'
p491
(dp492
I2
F79.083333333333343
sI3
F80.875
sI4
F79.666666666666657
sI5
F79.375
sI6
F80.25
sI7
F81.764705882352942
sI8
F78.666666666666657
sI9
F76.153846153846146
sI10
F81.666666666666671
sI11
F81.428571428571431
sI12
F84
sI13
F82.222222222222214
sI14
F84.117647058823536
sI15
F83.75
sI16
F79.333333333333329
sI17
F80.714285714285722
sI18
F85.384615384615387
sI19
F86.666666666666671
sI20
F88.333333333333329
ssS'svc'
p493
(dp494
I2
F81.916666666666671
sI3
F84.375
sI4
F82.666666666666671
sI5
F82.708333333333329
sI6
F83.25
sI7
F84.411764705882348
sI8
F82.666666666666671
sI9
F80.384615384615387
sI10
F87.5
sI11
F86.666666666666671
sI12
F86.5
sI13
F85
sI14
F88.235294117647058
sI15
F83.75
sI16
F82.666666666666671
sI17
F82.857142857142861
sI18
F90.769230769230774
sI19
F88.333333333333329
sI20
F90
ssS'rbf_svc'
p495
(dp496
I2
F63
sI3
F62.875
sI4
F66
sI5
F62.708333333333336
sI6
F65
sI7
F67.941176470588232
sI8
F61.666666666666671
sI9
F59.230769230769234
sI10
F70.416666666666671
sI11
F67.61904761904762
sI12
F66
sI13
F64.444444444444443
sI14
F65.294117647058826
sI15
F65.625
sI16
F62
sI17
F67.142857142857139
sI18
F64.615384615384613
sI19
F67.5
sI20
F70.833333333333343
ssS'lin_svc'
p497
(dp498
I2
F82.416666666666671
sI3
F84.75
sI4
F83.333333333333343
sI5
F82.5
sI6
F84
sI7
F84.705882352941174
sI8
F83.333333333333343
sI9
F80.384615384615387
sI10
F86.666666666666671
sI11
F86.19047619047619
sI12
F86
sI13
F85
sI14
F87.647058823529406
sI15
F83.75
sI16
F82.666666666666671
sI17
F81.428571428571431
sI18
F90.769230769230774
sI19
F87.5
sI20
F90
sssg206
g237
sg208
g209
sg210
g448
sg212
I860
sg213
g225
saa(lp499
(dp500
g193
I00
sg194
I915
sg195
I536
sg196
(dp501
S'poly_svc'
p502
(dp503
I2
F48.529411764705884
sI3
F45.217391304347828
sI4
F47.058823529411761
sI5
F40.769230769230766
sI6
F42.727272727272727
sI7
F45.555555555555557
sI8
F42.5
sI9
F37.142857142857146
sI10
F40
sI11
F36.666666666666664
sI12
F34
sI13
F48
sI14
F37.5
sI15
F45
sI16
F35
sI17
F37.5
sI18
F36.666666666666664
sI19
F43.333333333333336
sI20
F33.333333333333329
ssS'svc'
p504
(dp505
I2
F50.588235294117645
sI3
F43.913043478260875
sI4
F50
sI5
F40.769230769230766
sI6
F45.454545454545453
sI7
F44.444444444444443
sI8
F46.25
sI9
F45.714285714285715
sI10
F41.666666666666671
sI11
F36.666666666666664
sI12
F42
sI13
F50
sI14
F55.000000000000007
sI15
F55.000000000000007
sI16
F60
sI17
F47.5
sI18
F40
sI19
F56.666666666666664
sI20
F53.333333333333336
ssS'rbf_svc'
p506
(dp507
I2
F48.529411764705884
sI3
F46.086956521739133
sI4
F47.058823529411761
sI5
F41.53846153846154
sI6
F43.636363636363633
sI7
F45.555555555555557
sI8
F42.5
sI9
F37.142857142857146
sI10
F40
sI11
F40
sI12
F34
sI13
F50
sI14
F37.5
sI15
F45
sI16
F35
sI17
F37.5
sI18
F36.666666666666664
sI19
F43.333333333333336
sI20
F33.333333333333329
ssS'lin_svc'
p508
(dp509
I2
F50.882352941176464
sI3
F46.086956521739133
sI4
F50.588235294117645
sI5
F41.53846153846154
sI6
F44.545454545454547
sI7
F45.555555555555557
sI8
F47.5
sI9
F45.714285714285715
sI10
F38.333333333333336
sI11
F38.333333333333336
sI12
F40
sI13
F50
sI14
F57.499999999999993
sI15
F52.5
sI16
F52.5
sI17
F47.5
sI18
F40
sI19
F56.666666666666664
sI20
F53.333333333333336
sssg206
g207
sg208
g209
sg210
g448
sg212
I500
sg213
S'A'
sa(dp510
g193
I00
sg194
I1995
sg195
I620
sg196
(dp511
S'poly_svc'
p512
(dp513
I2
F80.211640211640216
sI3
F80.714285714285722
sI4
F82.659574468085111
sI5
F80.666666666666657
sI6
F81.904761904761898
sI7
F79.259259259259267
sI8
F80.851063829787222
sI9
F77.61904761904762
sI10
F80.540540540540533
sI11
F80.294117647058826
sI12
F81.290322580645153
sI13
F82.41379310344827
sI14
F81.481481481481481
sI15
F80.800000000000011
sI16
F80.869565217391298
sI17
F81.36363636363636
sI18
F82.38095238095238
sI19
F80.526315789473685
sI20
F78.333333333333329
ssS'svc'
p514
(dp515
I2
F76.296296296296291
sI3
F76.666666666666671
sI4
F80.106382978723403
sI5
F78.666666666666657
sI6
F78.888888888888886
sI7
F75.740740740740748
sI8
F78.297872340425528
sI9
F74.047619047619051
sI10
F78.648648648648646
sI11
F76.470588235294116
sI12
F80
sI13
F77.58620689655173
sI14
F80.370370370370367
sI15
F78.799999999999997
sI16
F77.391304347826079
sI17
F79.090909090909093
sI18
F80
sI19
F77.89473684210526
sI20
F72.777777777777771
ssS'rbf_svc'
p516
(dp517
I2
F80.899470899470899
sI3
F80.317460317460316
sI4
F82.446808510638306
sI5
F81.733333333333334
sI6
F82.063492063492063
sI7
F79.259259259259267
sI8
F80.851063829787222
sI9
F77.142857142857153
sI10
F80.810810810810807
sI11
F80.882352941176478
sI12
F82.58064516129032
sI13
F81.034482758620683
sI14
F81.111111111111114
sI15
F80.400000000000006
sI16
F80.434782608695656
sI17
F80.909090909090907
sI18
F82.857142857142861
sI19
F82.631578947368425
sI20
F76.111111111111114
ssS'lin_svc'
p518
(dp519
I2
F75.661375661375658
sI3
F72.063492063492063
sI4
F69.680851063829792
sI5
F70.399999999999991
sI6
F72.698412698412696
sI7
F68.333333333333329
sI8
F66.170212765957444
sI9
F67.61904761904762
sI10
F63.513513513513509
sI11
F63.823529411764703
sI12
F73.548387096774192
sI13
F74.482758620689665
sI14
F75.925925925925924
sI15
F69.199999999999989
sI16
F72.608695652173921
sI17
F77.72727272727272
sI18
F76.666666666666671
sI19
F69.473684210526315
sI20
F68.333333333333329
sssg206
g207
sg208
g209
sg210
g448
sg212
I500
sg213
S'B'
sa(dp520
g193
I00
sg194
I14446
sg195
I2162
sg196
(dp521
S'poly_svc'
p522
(dp523
I2
F26.078431372549023
sI3
F23.52941176470588
sI4
F25.199999999999999
sI5
F23
sI6
F22.941176470588236
sI7
F20.714285714285715
sI8
F19.166666666666668
sI9
F20
sI10
F34
sI11
F15.555555555555555
sI12
F16.25
sI13
F22.857142857142858
sI14
F20
sI15
F18.333333333333332
sI16
F15
sI17
F20
sI18
F16
sI19
F10
sI20
F8
ssS'svc'
p524
(dp525
I2
F64.313725490196077
sI3
F66.764705882352942
sI4
F72.399999999999991
sI5
F71.5
sI6
F74.117647058823536
sI7
F77.857142857142861
sI8
F65.833333333333329
sI9
F72.727272727272734
sI10
F78
sI11
F68.888888888888886
sI12
F78.75
sI13
F70
sI14
F77.142857142857153
sI15
F75
sI16
F83.333333333333343
sI17
F80
sI18
F82
sI19
F72
sI20
F82
ssS'rbf_svc'
p526
(dp527
I2
F40.588235294117645
sI3
F42.352941176470587
sI4
F46
sI5
F46
sI6
F49.411764705882355
sI7
F46.428571428571431
sI8
F37.5
sI9
F40
sI10
F48
sI11
F48.888888888888886
sI12
F48.75
sI13
F45.714285714285715
sI14
F57.142857142857139
sI15
F61.666666666666671
sI16
F53.333333333333336
sI17
F55.000000000000007
sI18
F52
sI19
F64
sI20
F52
ssS'lin_svc'
p528
(dp529
I2
F68.235294117647058
sI3
F71.764705882352942
sI4
F73.599999999999994
sI5
F74.5
sI6
F75.882352941176464
sI7
F75.714285714285708
sI8
F72.5
sI9
F72.727272727272734
sI10
F71
sI11
F72.222222222222214
sI12
F83.75
sI13
F70
sI14
F78.571428571428569
sI15
F71.666666666666671
sI16
F80
sI17
F81.666666666666671
sI18
F78
sI19
F70
sI20
F82
sssg206
g207
sg208
g209
sg210
g448
sg212
I500
sg213
S'C'
sa(dp530
g193
I00
sg194
I1995
sg195
I607
sg196
(dp531
S'poly_svc'
p532
(dp533
I2
F67.767857142857153
sI3
F66.979865771812086
sI4
F68.303571428571431
sI5
F67.078651685393254
sI6
F67.972972972972983
sI7
F70.3125
sI8
F63.392857142857139
sI9
F67.346938775510196
sI10
F65.681818181818187
sI11
F67.75
sI12
F68.378378378378386
sI13
F60.882352941176464
sI14
F68.75
sI15
F63.448275862068968
sI16
F62.142857142857146
sI17
F69.615384615384613
sI18
F63.333333333333329
sI19
F71.304347826086953
sI20
F69.545454545454547
ssS'svc'
p534
(dp535
I2
F63.482142857142854
sI3
F63.624161073825505
sI4
F64.642857142857153
sI5
F62.696629213483149
sI6
F66.351351351351354
sI7
F67.1875
sI8
F59.464285714285715
sI9
F63.673469387755098
sI10
F60.454545454545453
sI11
F64
sI12
F63.513513513513509
sI13
F59.411764705882355
sI14
F65
sI15
F60
sI16
F62.857142857142854
sI17
F63.46153846153846
sI18
F60.416666666666664
sI19
F65.65217391304347
sI20
F66.818181818181827
ssS'rbf_svc'
p536
(dp537
I2
F68.214285714285722
sI3
F67.919463087248317
sI4
F69.017857142857139
sI5
F66.853932584269657
sI6
F68.783783783783775
sI7
F70
sI8
F63.571428571428569
sI9
F67.551020408163268
sI10
F64.772727272727266
sI11
F67.25
sI12
F67.297297297297291
sI13
F62.058823529411768
sI14
F68.75
sI15
F63.793103448275865
sI16
F64.285714285714292
sI17
F69.615384615384613
sI18
F63.749999999999993
sI19
F71.739130434782609
sI20
F70
ssS'lin_svc'
p538
(dp539
I2
F62.633928571428577
sI3
F63.758389261744966
sI4
F60.267857142857139
sI5
F55.730337078651679
sI6
F60.13513513513513
sI7
F62.031250000000007
sI8
F52.5
sI9
F58.571428571428577
sI10
F55.227272727272727
sI11
F62.5
sI12
F64.86486486486487
sI13
F48.235294117647058
sI14
F60.624999999999993
sI15
F56.551724137931039
sI16
F61.071428571428577
sI17
F58.461538461538467
sI18
F53.75
sI19
F65.217391304347828
sI20
F63.181818181818187
sssg206
g207
sg208
g209
sg210
g448
sg212
I500
sg213
g259
sa(dp540
g193
I00
sg194
I14446
sg195
I1509
sg196
(dp541
S'poly_svc'
p542
(dp543
I2
F21.976744186046513
sI3
F24.912280701754387
sI4
F23.720930232558139
sI5
F25
sI6
F19.642857142857142
sI7
F27.083333333333332
sI8
F23.809523809523807
sI9
F25.789473684210527
sI10
F21.176470588235293
sI11
F20.666666666666668
sI12
F28.571428571428569
sI13
F19.230769230769234
sI14
F17.5
sI15
F20
sI16
F21
sI17
F21
sI18
F18.888888888888889
sI19
F16.666666666666664
sI20
F21.25
ssS'svc'
p544
(dp545
I2
F51.162790697674424
sI3
F55.78947368421052
sI4
F52.558139534883722
sI5
F57.647058823529406
sI6
F52.5
sI7
F57.916666666666671
sI8
F59.523809523809526
sI9
F57.894736842105267
sI10
F54.705882352941181
sI11
F57.999999999999993
sI12
F52.142857142857146
sI13
F55.384615384615387
sI14
F54.166666666666664
sI15
F55.454545454545453
sI16
F63
sI17
F50
sI18
F66.666666666666657
sI19
F52.222222222222229
sI20
F57.499999999999993
ssS'rbf_svc'
p546
(dp547
I2
F28.953488372093023
sI3
F34.385964912280706
sI4
F40.465116279069768
sI5
F37.352941176470587
sI6
F34.642857142857139
sI7
F42.083333333333336
sI8
F40
sI9
F35.789473684210527
sI10
F41.764705882352942
sI11
F36.666666666666664
sI12
F41.428571428571431
sI13
F38.461538461538467
sI14
F37.5
sI15
F34.545454545454547
sI16
F48
sI17
F33
sI18
F43.333333333333336
sI19
F42.222222222222221
sI20
F32.5
ssS'lin_svc'
p548
(dp549
I2
F52.906976744186053
sI3
F56.84210526315789
sI4
F53.023255813953483
sI5
F56.176470588235297
sI6
F55.000000000000007
sI7
F59.583333333333336
sI8
F60
sI9
F61.05263157894737
sI10
F51.764705882352949
sI11
F57.999999999999993
sI12
F51.428571428571423
sI13
F56.92307692307692
sI14
F54.166666666666664
sI15
F54.54545454545454
sI16
F62
sI17
F50
sI18
F66.666666666666657
sI19
F50
sI20
F53.75
sssg206
g207
sg208
g209
sg210
g448
sg212
I500
sg213
g270
sa(dp550
g193
I00
sg194
I14446
sg195
I949
sg196
(dp551
S'poly_svc'
p552
(dp553
I2
F64.232365145228215
sI3
F63
sI4
F62.666666666666671
sI5
F61.979166666666664
sI6
F61.5
sI7
F65.441176470588232
sI8
F62.5
sI9
F65.094339622641513
sI10
F63.541666666666664
sI11
F68.604651162790702
sI12
F63
sI13
F61.891891891891895
sI14
F64.705882352941174
sI15
F65
sI16
F66.333333333333329
sI17
F63.571428571428569
sI18
F66.153846153846146
sI19
F63.600000000000001
sI20
F64.166666666666671
ssS'svc'
p554
(dp555
I2
F69.585062240663902
sI3
F68.5
sI4
F70.416666666666671
sI5
F71.145833333333329
sI6
F69.625
sI7
F71.17647058823529
sI8
F72.666666666666671
sI9
F69.811320754716974
sI10
F68.75
sI11
F74.186046511627907
sI12
F67.75
sI13
F71.891891891891888
sI14
F73.235294117647058
sI15
F70.9375
sI16
F73.666666666666671
sI17
F70.357142857142861
sI18
F71.538461538461533
sI19
F76.400000000000006
sI20
F71.666666666666671
ssS'rbf_svc'
p556
(dp557
I2
F65.850622406639005
sI3
F65.75
sI4
F65.75
sI5
F65.104166666666657
sI6
F64
sI7
F66.764705882352942
sI8
F65
sI9
F66.603773584905653
sI10
F65.208333333333329
sI11
F70.697674418604649
sI12
F64.25
sI13
F65.13513513513513
sI14
F67.352941176470594
sI15
F67.1875
sI16
F69.666666666666671
sI17
F65
sI18
F69.230769230769226
sI19
F66.799999999999997
sI20
F66.25
ssS'lin_svc'
p558
(dp559
I2
F64.190871369294612
sI3
F63.125
sI4
F66.333333333333329
sI5
F66.041666666666671
sI6
F65.625
sI7
F67.058823529411754
sI8
F60
sI9
F68.301886792452819
sI10
F66.666666666666657
sI11
F68.604651162790702
sI12
F60.25
sI13
F65.13513513513513
sI14
F67.352941176470594
sI15
F63.4375
sI16
F69
sI17
F63.214285714285708
sI18
F60.769230769230766
sI19
F65.600000000000009
sI20
F66.25
sssg206
g207
sg208
g209
sg210
g448
sg212
I500
sg213
g214
sa(dp560
g193
I00
sg194
I14446
sg195
I897
sg196
(dp561
S'poly_svc'
p562
(dp563
I2
F55.709090909090911
sI3
F56.939890710382514
sI4
F54.598540145985396
sI5
F54
sI6
F56.81318681318681
sI7
F56.153846153846153
sI8
F57.647058823529406
sI9
F57.704918032786892
sI10
F55.63636363636364
sI11
F57.799999999999997
sI12
F56.000000000000007
sI13
F54.761904761904766
sI14
F56.410256410256409
sI15
F53.611111111111107
sI16
F52.647058823529413
sI17
F52.1875
sI18
F56.333333333333336
sI19
F53.103448275862064
sI20
F57.037037037037038
ssS'svc'
p564
(dp565
I2
F59.527272727272731
sI3
F60.546448087431692
sI4
F59.416058394160586
sI5
F59.545454545454547
sI6
F62.197802197802197
sI7
F60.641025641025635
sI8
F60.441176470588232
sI9
F62.295081967213115
sI10
F62.18181818181818
sI11
F61
sI12
F60.444444444444443
sI13
F58.095238095238102
sI14
F59.487179487179489
sI15
F58.333333333333336
sI16
F60.294117647058819
sI17
F60.624999999999993
sI18
F59.666666666666671
sI19
F59.655172413793103
sI20
F56.296296296296298
ssS'rbf_svc'
p566
(dp567
I2
F56.690909090909095
sI3
F57.868852459016395
sI4
F56.496350364963497
sI5
F54.81818181818182
sI6
F59.340659340659343
sI7
F58.205128205128212
sI8
F57.941176470588239
sI9
F60.491803278688529
sI10
F57.999999999999993
sI11
F59.799999999999997
sI12
F58.444444444444443
sI13
F56.428571428571431
sI14
F60.256410256410255
sI15
F55.277777777777779
sI16
F56.176470588235297
sI17
F55.000000000000007
sI18
F57.999999999999993
sI19
F54.827586206896548
sI20
F61.111111111111114
ssS'lin_svc'
p568
(dp569
I2
F59.927272727272729
sI3
F58.032786885245905
sI4
F56.058394160583944
sI5
F54.727272727272727
sI6
F57.362637362637358
sI7
F56.53846153846154
sI8
F56.470588235294116
sI9
F63.114754098360656
sI10
F55.81818181818182
sI11
F56.599999999999994
sI12
F54.666666666666664
sI13
F53.571428571428569
sI14
F52.564102564102569
sI15
F49.444444444444443
sI16
F58.235294117647065
sI17
F57.499999999999993
sI18
F54.666666666666664
sI19
F54.137931034482754
sI20
F54.444444444444443
sssg206
g207
sg208
g209
sg210
g448
sg212
I500
sg213
g225
saa(lp570
(dp571
g193
I00
sg194
I1995
sg195
I1244
sg196
(dp572
S'poly_svc'
p573
(dp574
I2
F76.59574468085107
sI3
F80.317460317460316
sI4
F81.702127659574458
sI5
F79.459459459459453
sI6
F80.322580645161295
sI7
F81.111111111111114
sI8
F78.260869565217391
sI9
F87.61904761904762
sI10
F82.777777777777771
sI11
F76.470588235294116
sI12
F81.333333333333329
sI13
F77.857142857142861
sI14
F83.07692307692308
sI15
F87.5
sI16
F80.909090909090907
sI17
F77.272727272727266
sI18
F76
sI19
F78.888888888888886
sI20
F81.111111111111114
ssS'svc'
p575
(dp576
I2
F77.659574468085097
sI3
F81.111111111111114
sI4
F82.127659574468083
sI5
F80.540540540540533
sI6
F81.612903225806448
sI7
F82.222222222222214
sI8
F78.695652173913047
sI9
F88.095238095238088
sI10
F83.888888888888886
sI11
F77.058823529411768
sI12
F82.666666666666671
sI13
F80
sI14
F82.307692307692307
sI15
F87.5
sI16
F80.909090909090907
sI17
F77.272727272727266
sI18
F76
sI19
F78.888888888888886
sI20
F82.222222222222214
ssS'rbf_svc'
p577
(dp578
I2
F81.702127659574458
sI3
F81.904761904761898
sI4
F82.978723404255319
sI5
F81.621621621621614
sI6
F80.322580645161295
sI7
F83.333333333333343
sI8
F79.565217391304344
sI9
F86.666666666666671
sI10
F80.555555555555557
sI11
F78.82352941176471
sI12
F77.333333333333329
sI13
F78.571428571428569
sI14
F81.538461538461533
sI15
F84.166666666666671
sI16
F82.727272727272734
sI17
F79.090909090909093
sI18
F75
sI19
F83.333333333333343
sI20
F83.333333333333343
ssS'lin_svc'
p579
(dp580
I2
F78.297872340425528
sI3
F80.158730158730165
sI4
F81.914893617021278
sI5
F74.594594594594597
sI6
F81.612903225806448
sI7
F82.962962962962962
sI8
F77.826086956521735
sI9
F85.238095238095241
sI10
F83.333333333333343
sI11
F75.294117647058826
sI12
F81.333333333333329
sI13
F75.714285714285708
sI14
F73.846153846153854
sI15
F81.666666666666671
sI16
F80.909090909090907
sI17
F72.727272727272734
sI18
F77
sI19
F78.888888888888886
sI20
F75.555555555555557
sssg206
g237
sg208
g238
sg210
g448
sg212
I860
sg213
S'B'
sa(dp581
g193
I00
sg194
I16799
sg195
I6960
sg196
(dp582
S'poly_svc'
p583
(dp584
I2
F73.75
sI3
F86
sI4
F90
sI5
F88.333333333333329
sI6
F96
sI7
F82.5
sI8
F90
sI9
F70
sI10
F83.333333333333343
sI11
F85
sI12
F95
sI13
F85
sI14
F90
sI15
F90
sI16
F90
sI17
F70
sI18
F100
sI19
F90
sI20
F90
ssS'svc'
p585
(dp586
I2
F78.125
sI3
F95
sI4
F97.5
sI5
F95
sI6
F100
sI7
F92.5
sI8
F100
sI9
F90
sI10
F100
sI11
F100
sI12
F100
sI13
F100
sI14
F100
sI15
F100
sI16
F100
sI17
F100
sI18
F100
sI19
F100
sI20
F100
ssS'rbf_svc'
p587
(dp588
I2
F73.75
sI3
F80
sI4
F82.5
sI5
F81.666666666666671
sI6
F80
sI7
F75
sI8
F90
sI9
F60
sI10
F80
sI11
F80
sI12
F85
sI13
F65
sI14
F80
sI15
F90
sI16
F90
sI17
F70
sI18
F80
sI19
F70
sI20
F80
ssS'lin_svc'
p589
(dp590
I2
F78.75
sI3
F95
sI4
F97.5
sI5
F95
sI6
F100
sI7
F92.5
sI8
F100
sI9
F90
sI10
F100
sI11
F100
sI12
F100
sI13
F100
sI14
F100
sI15
F100
sI16
F100
sI17
F100
sI18
F100
sI19
F100
sI20
F100
sssg206
g237
sg208
g238
sg210
g448
sg212
I4397
sg213
S'C'
sa(dp591
g193
I00
sg194
I2123
sg195
I1311
sg196
(dp592
S'poly_svc'
p593
(dp594
I2
F80.769230769230774
sI3
F82.608695652173907
sI4
F80.384615384615387
sI5
F81.463414634146332
sI6
F81.764705882352942
sI7
F82.41379310344827
sI8
F83.07692307692308
sI9
F84.782608695652172
sI10
F85.5
sI11
F82.222222222222214
sI12
F83.529411764705884
sI13
F86.25
sI14
F80
sI15
F84.615384615384613
sI16
F78.461538461538467
sI17
F82.5
sI18
F81.818181818181827
sI19
F81
sI20
F83
ssS'svc'
p595
(dp596
I2
F80.961538461538467
sI3
F82.173913043478265
sI4
F81.92307692307692
sI5
F81.463414634146332
sI6
F82.058823529411768
sI7
F83.103448275862064
sI8
F83.07692307692308
sI9
F85.652173913043484
sI10
F86
sI11
F82.222222222222214
sI12
F83.529411764705884
sI13
F86.875
sI14
F80.714285714285722
sI15
F85.384615384615387
sI16
F79.230769230769226
sI17
F82.5
sI18
F82.727272727272734
sI19
F82
sI20
F83
ssS'rbf_svc'
p597
(dp598
I2
F73.942307692307693
sI3
F75.072463768115938
sI4
F72.884615384615387
sI5
F70.975609756097555
sI6
F73.529411764705884
sI7
F73.448275862068968
sI8
F74.615384615384613
sI9
F76.08695652173914
sI10
F78
sI11
F73.888888888888886
sI12
F71.764705882352942
sI13
F80
sI14
F73.571428571428584
sI15
F76.153846153846146
sI16
F73.076923076923066
sI17
F75
sI18
F74.545454545454547
sI19
F71
sI20
F80
ssS'lin_svc'
p599
(dp600
I2
F79.519230769230759
sI3
F82.463768115942031
sI4
F80
sI5
F82.682926829268283
sI6
F80.294117647058826
sI7
F82.758620689655174
sI8
F82.692307692307693
sI9
F86.956521739130437
sI10
F85
sI11
F83.888888888888886
sI12
F83.529411764705884
sI13
F82.5
sI14
F80.714285714285722
sI15
F83.07692307692308
sI16
F79.230769230769226
sI17
F83.333333333333343
sI18
F83.636363636363626
sI19
F82
sI20
F81
sssg206
g237
sg208
g238
sg210
g448
sg212
I860
sg213
g259
sa(dp601
g193
I00
sg194
I16799
sg195
I5103
sg196
(dp602
S'poly_svc'
p603
(dp604
I2
F93.600000000000009
sI3
F94.117647058823522
sI4
F90.833333333333329
sI5
F96
sI6
F98.75
sI7
F95.714285714285722
sI8
F95
sI9
F100
sI10
F90
sI11
F100
sI12
F80
sI13
F100
sI14
F96.666666666666671
sI15
F100
sI16
F96.666666666666671
sI17
F96.666666666666671
sI18
F100
sI19
F90
sI20
F100
ssS'svc'
p605
(dp606
I2
F97.599999999999994
sI3
F96.470588235294116
sI4
F97.5
sI5
F98
sI6
F98.75
sI7
F98.571428571428584
sI8
F96.666666666666671
sI9
F100
sI10
F94
sI11
F100
sI12
F95
sI13
F100
sI14
F96.666666666666671
sI15
F100
sI16
F96.666666666666671
sI17
F96.666666666666671
sI18
F100
sI19
F90
sI20
F100
ssS'rbf_svc'
p607
(dp608
I2
F52
sI3
F54.117647058823529
sI4
F50.833333333333329
sI5
F50
sI6
F65
sI7
F55.714285714285715
sI8
F46.666666666666664
sI9
F56.000000000000007
sI10
F57.999999999999993
sI11
F67.5
sI12
F42.5
sI13
F70
sI14
F46.666666666666664
sI15
F53.333333333333336
sI16
F70
sI17
F60
sI18
F60
sI19
F30
sI20
F70
ssS'lin_svc'
p609
(dp610
I2
F97.599999999999994
sI3
F96.470588235294116
sI4
F97.5
sI5
F98
sI6
F98.75
sI7
F98.571428571428584
sI8
F96.666666666666671
sI9
F100
sI10
F94
sI11
F100
sI12
F95
sI13
F100
sI14
F96.666666666666671
sI15
F100
sI16
F96.666666666666671
sI17
F96.666666666666671
sI18
F100
sI19
F90
sI20
F100
sssg206
g237
sg208
g238
sg210
g448
sg212
I1365
sg213
g270
sa(dp611
g193
I00
sg194
I16799
sg195
I2072
sg196
(dp612
S'poly_svc'
p613
(dp614
I2
F77.090909090909093
sI3
F79.041095890410958
sI4
F77.818181818181813
sI5
F81.13636363636364
sI6
F79.166666666666657
sI7
F81.290322580645153
sI8
F79.259259259259267
sI9
F77.916666666666671
sI10
F76.818181818181813
sI11
F78.5
sI12
F76.666666666666671
sI13
F79.411764705882348
sI14
F82.666666666666671
sI15
F78.571428571428569
sI16
F83.846153846153854
sI17
F73.076923076923066
sI18
F80
sI19
F81.818181818181827
sI20
F80.909090909090907
ssS'svc'
p615
(dp616
I2
F79.090909090909093
sI3
F81.095890410958901
sI4
F79.454545454545453
sI5
F81.36363636363636
sI6
F82.222222222222214
sI7
F84.193548387096769
sI8
F80.370370370370367
sI9
F80.833333333333329
sI10
F79.545454545454547
sI11
F82.5
sI12
F76.666666666666671
sI13
F82.941176470588246
sI14
F84
sI15
F82.857142857142861
sI16
F83.846153846153854
sI17
F75.384615384615387
sI18
F85.833333333333329
sI19
F80
sI20
F82.727272727272734
ssS'rbf_svc'
p617
(dp618
I2
F72.545454545454547
sI3
F73.835616438356169
sI4
F73.27272727272728
sI5
F74.318181818181813
sI6
F75.277777777777771
sI7
F76.451612903225808
sI8
F71.111111111111114
sI9
F75.833333333333329
sI10
F71.818181818181813
sI11
F75
sI12
F69.444444444444443
sI13
F75.882352941176464
sI14
F79.333333333333329
sI15
F70.714285714285722
sI16
F82.307692307692307
sI17
F70
sI18
F74.166666666666671
sI19
F77.272727272727266
sI20
F80
ssS'lin_svc'
p619
(dp620
I2
F47.36363636363636
sI3
F62.602739726027401
sI4
F58.909090909090914
sI5
F62.5
sI6
F53.333333333333336
sI7
F70.322580645161295
sI8
F78.518518518518519
sI9
F68.75
sI10
F64.090909090909093
sI11
F70.5
sI12
F71.111111111111114
sI13
F53.529411764705884
sI14
F76.666666666666671
sI15
F62.857142857142854
sI16
F77.692307692307693
sI17
F70
sI18
F75.833333333333329
sI19
F74.545454545454547
sI20
F59.090909090909093
sssg206
g237
sg208
g238
sg210
g448
sg212
I860
sg213
g214
sa(dp621
g193
I00
sg194
I16799
sg195
I2064
sg196
(dp622
S'poly_svc'
p623
(dp624
I2
F78.166666666666657
sI3
F80.625
sI4
F81.166666666666671
sI5
F75.416666666666671
sI6
F84.25
sI7
F77.941176470588232
sI8
F80.333333333333329
sI9
F80.384615384615387
sI10
F79.583333333333329
sI11
F82.38095238095238
sI12
F84.5
sI13
F84.444444444444443
sI14
F78.82352941176471
sI15
F76.875
sI16
F78.666666666666657
sI17
F80.714285714285722
sI18
F83.07692307692308
sI19
F83.333333333333343
sI20
F78.333333333333329
ssS'svc'
p625
(dp626
I2
F79.833333333333329
sI3
F82.75
sI4
F84.166666666666671
sI5
F78.75
sI6
F85.75
sI7
F82.941176470588246
sI8
F81.666666666666671
sI9
F83.07692307692308
sI10
F81.25
sI11
F82.38095238095238
sI12
F86.5
sI13
F86.666666666666671
sI14
F80
sI15
F80
sI16
F78.666666666666657
sI17
F82.142857142857139
sI18
F86.15384615384616
sI19
F85.833333333333329
sI20
F78.333333333333329
ssS'rbf_svc'
p627
(dp628
I2
F67
sI3
F67.75
sI4
F69
sI5
F65
sI6
F68.25
sI7
F68.82352941176471
sI8
F68.666666666666671
sI9
F68.07692307692308
sI10
F70.416666666666671
sI11
F71.428571428571431
sI12
F65.5
sI13
F73.333333333333329
sI14
F60.588235294117645
sI15
F66.875
sI16
F61.333333333333329
sI17
F70
sI18
F64.615384615384613
sI19
F71.666666666666671
sI20
F72.5
ssS'lin_svc'
p629
(dp630
I2
F55.083333333333329
sI3
F62.5
sI4
F65.333333333333329
sI5
F49.583333333333336
sI6
F70.5
sI7
F62.058823529411768
sI8
F70.333333333333343
sI9
F68.461538461538467
sI10
F64.583333333333343
sI11
F74.761904761904759
sI12
F63.5
sI13
F80.555555555555557
sI14
F67.64705882352942
sI15
F72.5
sI16
F72.666666666666671
sI17
F68.571428571428569
sI18
F77.692307692307693
sI19
F75.833333333333329
sI20
F65
sssg206
g237
sg208
g238
sg210
g448
sg212
I860
sg213
g225
saa(lp631
(dp632
S'subset'
p633
I00
sS'level'
p634
S'behavior'
p635
sS'align'
p636
S'cut'
p637
sS'min_len'
p638
I500
sS'dataset'
p639
S'A'
sS'max_len'
p640
I915
sS'avg_len'
p641
I471
sS'encode'
p642
S'AFF'
p643
sS'accuracy'
p644
(dp645
S'poly_svc'
p646
(dp647
I2
F48.545454545454547
sI3
F47.027027027027032
sI4
F48.888888888888886
sI5
F45.909090909090914
sI6
F50.555555555555557
sI7
F50
sI8
F46.153846153846153
sI9
F57.499999999999993
sI10
F50
sI11
F56.999999999999993
sI12
F54.444444444444443
sI13
F48.75
sI14
F52.857142857142861
sI15
F50
sI16
F55.000000000000007
sI17
F55.000000000000007
sI18
F48.333333333333336
sI19
F42
sI20
F50
ssS'svc'
p648
(dp649
I2
F36.909090909090907
sI3
F38.108108108108105
sI4
F42.592592592592595
sI5
F37.727272727272727
sI6
F41.666666666666671
sI7
F36.666666666666664
sI8
F40.769230769230766
sI9
F44.166666666666664
sI10
F42.727272727272727
sI11
F46
sI12
F45.555555555555557
sI13
F36.25
sI14
F42.857142857142854
sI15
F38.571428571428577
sI16
F50
sI17
F46.666666666666664
sI18
F36.666666666666664
sI19
F48
sI20
F44
ssS'rbf_svc'
p650
(dp651
I2
F34.727272727272727
sI3
F38.378378378378379
sI4
F33.333333333333329
sI5
F34.545454545454547
sI6
F33.888888888888893
sI7
F31.333333333333336
sI8
F32.307692307692307
sI9
F33.333333333333329
sI10
F31.818181818181817
sI11
F30
sI12
F31.111111111111111
sI13
F23.75
sI14
F28.571428571428569
sI15
F28.571428571428569
sI16
F33.333333333333329
sI17
F33.333333333333329
sI18
F28.333333333333332
sI19
F26
sI20
F36
ssS'lin_svc'
p652
(dp653
I2
F28.000000000000004
sI3
F21.351351351351351
sI4
F30.37037037037037
sI5
F22.272727272727273
sI6
F32.777777777777779
sI7
F26.666666666666668
sI8
F26.923076923076923
sI9
F33.333333333333329
sI10
F30
sI11
F33
sI12
F33.333333333333329
sI13
F37.5
sI14
F34.285714285714285
sI15
F37.142857142857146
sI16
F38.333333333333336
sI17
F35
sI18
F25
sI19
F50
sI20
F40
sssa(dp654
S'subset'
p655
I00
sS'level'
p656
S'behavior'
p657
sS'align'
p658
S'cut'
p659
sS'min_len'
p660
I500
sS'dataset'
p661
S'B'
sS'max_len'
p662
I1995
sS'avg_len'
p663
I620
sS'encode'
p664
S'AFF'
p665
sS'accuracy'
p666
(dp667
S'poly_svc'
p668
(dp669
I2
F79.684210526315795
sI3
F80.314960629921259
sI4
F80.421052631578945
sI5
F80.131578947368425
sI6
F79.682539682539684
sI7
F82.407407407407405
sI8
F81.276595744680847
sI9
F77.142857142857153
sI10
F84.473684210526315
sI11
F81.764705882352942
sI12
F80
sI13
F83.448275862068968
sI14
F77.407407407407405
sI15
F81.200000000000003
sI16
F79.565217391304344
sI17
F78.63636363636364
sI18
F80.952380952380949
sI19
F78.5
sI20
F76.31578947368422
ssS'svc'
p670
(dp671
I2
F76.684210526315795
sI3
F75.433070866141733
sI4
F76.526315789473685
sI5
F76.18421052631578
sI6
F76.031746031746025
sI7
F77.407407407407405
sI8
F77.446808510638306
sI9
F73.80952380952381
sI10
F80.526315789473685
sI11
F79.705882352941188
sI12
F76.451612903225808
sI13
F76.896551724137936
sI14
F73.703703703703709
sI15
F74.400000000000006
sI16
F74.782608695652172
sI17
F74.545454545454547
sI18
F74.761904761904759
sI19
F73.5
sI20
F75.26315789473685
ssS'rbf_svc'
p672
(dp673
I2
F80.21052631578948
sI3
F80.551181102362207
sI4
F80.631578947368425
sI5
F80.65789473684211
sI6
F80.158730158730165
sI7
F82.777777777777771
sI8
F81.702127659574458
sI9
F79.047619047619051
sI10
F83.421052631578945
sI11
F84.411764705882348
sI12
F79.677419354838705
sI13
F83.793103448275858
sI14
F78.518518518518519
sI15
F80
sI16
F80
sI17
F79.090909090909093
sI18
F81.428571428571431
sI19
F80
sI20
F77.89473684210526
ssS'lin_svc'
p674
(dp675
I2
F70.368421052631575
sI3
F72.598425196850386
sI4
F72.526315789473685
sI5
F70.263157894736835
sI6
F68.095238095238102
sI7
F68.333333333333329
sI8
F68.085106382978722
sI9
F65.714285714285708
sI10
F75.526315789473685
sI11
F66.17647058823529
sI12
F75.806451612903231
sI13
F72.068965517241381
sI14
F72.962962962962962
sI15
F68.799999999999997
sI16
F73.91304347826086
sI17
F66.363636363636374
sI18
F69.523809523809518
sI19
F67
sI20
F68.421052631578945
sssa(dp676
S'subset'
p677
I00
sS'level'
p678
S'behavior'
p679
sS'align'
p680
S'cut'
p681
sS'min_len'
p682
I500
sS'dataset'
p683
S'C'
sS'max_len'
p684
I14446
sS'avg_len'
p685
I2162
sS'encode'
p686
S'AFF'
p687
sS'accuracy'
p688
(dp689
S'poly_svc'
p690
(dp691
I2
F23.921568627450981
sI3
F22.647058823529413
sI4
F29.199999999999999
sI5
F30.5
sI6
F31.176470588235293
sI7
F25.714285714285712
sI8
F34.166666666666664
sI9
F23.636363636363637
sI10
F34
sI11
F20
sI12
F31.25
sI13
F15.714285714285714
sI14
F35.714285714285715
sI15
F31.666666666666664
sI16
F30
sI17
F35
sI18
F22
sI19
F34
sI20
F28.000000000000004
ssS'svc'
p692
(dp693
I2
F34.901960784313722
sI3
F43.529411764705884
sI4
F45.600000000000001
sI5
F41.5
sI6
F39.411764705882355
sI7
F44.285714285714285
sI8
F45
sI9
F40.909090909090914
sI10
F50
sI11
F47.777777777777779
sI12
F46.25
sI13
F38.571428571428577
sI14
F35.714285714285715
sI15
F48.333333333333336
sI16
F43.333333333333336
sI17
F53.333333333333336
sI18
F42
sI19
F60
sI20
F46
ssS'rbf_svc'
p694
(dp695
I2
F39.803921568627452
sI3
F38.82352941176471
sI4
F37.600000000000001
sI5
F42.5
sI6
F37.647058823529413
sI7
F37.857142857142854
sI8
F34.166666666666664
sI9
F34.545454545454547
sI10
F35
sI11
F34.444444444444443
sI12
F32.5
sI13
F40
sI14
F34.285714285714285
sI15
F25
sI16
F35
sI17
F36.666666666666664
sI18
F28.000000000000004
sI19
F38
sI20
F32
ssS'lin_svc'
p696
(dp697
I2
F37.058823529411768
sI3
F44.117647058823529
sI4
F44.800000000000004
sI5
F41
sI6
F39.411764705882355
sI7
F42.142857142857146
sI8
F46.666666666666664
sI9
F41.818181818181813
sI10
F49
sI11
F48.888888888888886
sI12
F45
sI13
F42.857142857142854
sI14
F44.285714285714285
sI15
F43.333333333333336
sI16
F43.333333333333336
sI17
F56.666666666666664
sI18
F36
sI19
F56.000000000000007
sI20
F52
sssa(dp698
g193
I00
sg194
I1995
sg195
I607
sg196
(dp699
S'poly_svc'
p700
(dp701
I2
F67.991071428571431
sI3
F68.456375838926178
sI4
F65.892857142857139
sI5
F67.415730337078656
sI6
F61.486486486486491
sI7
F66.40625
sI8
F68.035714285714292
sI9
F63.673469387755098
sI10
F65
sI11
F64
sI12
F63.513513513513509
sI13
F67.352941176470594
sI14
F66.5625
sI15
F67.58620689655173
sI16
F66.785714285714278
sI17
F65.384615384615387
sI18
F68.75
sI19
F63.913043478260867
sI20
F66.363636363636374
ssS'svc'
p702
(dp703
I2
F64.732142857142861
sI3
F63.154362416107382
sI4
F61.517857142857146
sI5
F62.921348314606739
sI6
F59.189189189189186
sI7
F63.125
sI8
F63.392857142857139
sI9
F60.816326530612244
sI10
F60.68181818181818
sI11
F59.25
sI12
F61.081081081081081
sI13
F61.764705882352942
sI14
F64.0625
sI15
F63.103448275862071
sI16
F64.285714285714292
sI17
F57.692307692307686
sI18
F65
sI19
F60.434782608695649
sI20
F61.363636363636367
ssS'rbf_svc'
p704
(dp705
I2
F68.303571428571431
sI3
F68.724832214765101
sI4
F65.982142857142861
sI5
F67.640449438202239
sI6
F62.567567567567572
sI7
F66.5625
sI8
F67.857142857142861
sI9
F63.877551020408163
sI10
F65
sI11
F63.5
sI12
F65.13513513513513
sI13
F67.058823529411754
sI14
F66.875
sI15
F67.58620689655173
sI16
F67.142857142857139
sI17
F64.615384615384613
sI18
F69.166666666666671
sI19
F63.913043478260867
sI20
F67.72727272727272
ssS'lin_svc'
p706
(dp707
I2
F52.008928571428569
sI3
F62.617449664429529
sI4
F57.321428571428569
sI5
F57.078651685393254
sI6
F48.108108108108112
sI7
F57.343750000000007
sI8
F56.428571428571431
sI9
F55.510204081632651
sI10
F46.81818181818182
sI11
F52.75
sI12
F54.864864864864856
sI13
F59.117647058823529
sI14
F55.625
sI15
F54.137931034482754
sI16
F56.071428571428569
sI17
F56.92307692307692
sI18
F54.583333333333329
sI19
F61.739130434782609
sI20
F61.363636363636367
sssg206
g207
sg208
g238
sg210
g448
sg212
I500
sg213
g259
sa(dp708
S'subset'
p709
I00
sS'level'
p710
S'behavior'
p711
sS'align'
p712
S'cut'
p713
sS'min_len'
p714
I500
sS'dataset'
p715
S'AC'
p716
sS'max_len'
p717
I14446
sS'avg_len'
p718
I1285
sS'encode'
p719
S'AFF'
p720
sS'accuracy'
p721
(dp722
S'poly_svc'
p723
(dp724
I2
F24.67289719626168
sI3
F28.028169014084508
sI4
F25.849056603773583
sI5
F22.61904761904762
sI6
F26.571428571428573
sI7
F23.333333333333332
sI8
F27.307692307692307
sI9
F36.95652173913043
sI10
F31.904761904761902
sI11
F27.89473684210526
sI12
F28.823529411764703
sI13
F28.749999999999996
sI14
F28.666666666666668
sI15
F27.857142857142858
sI16
F25.384615384615383
sI17
F30.833333333333336
sI18
F24.545454545454547
sI19
F26.36363636363636
sI20
F32
ssS'svc'
p725
(dp726
I2
F30.747663551401871
sI3
F37.605633802816904
sI4
F34.716981132075468
sI5
F33.80952380952381
sI6
F38.857142857142854
sI7
F32.666666666666664
sI8
F35
sI9
F44.782608695652179
sI10
F40
sI11
F36.315789473684212
sI12
F41.17647058823529
sI13
F40
sI14
F34
sI15
F37.857142857142854
sI16
F40
sI17
F34.166666666666664
sI18
F28.18181818181818
sI19
F38.181818181818187
sI20
F42
ssS'rbf_svc'
p727
(dp728
I2
F28.411214953271031
sI3
F29.718309859154928
sI4
F27.358490566037734
sI5
F24.523809523809522
sI6
F27.428571428571431
sI7
F25
sI8
F26.53846153846154
sI9
F30.434782608695656
sI10
F28.095238095238095
sI11
F25.789473684210527
sI12
F26.47058823529412
sI13
F24.375
sI14
F25.333333333333336
sI15
F30.714285714285715
sI16
F18.461538461538463
sI17
F20.833333333333336
sI18
F20
sI19
F26.36363636363636
sI20
F26
ssS'lin_svc'
p729
(dp730
I2
F22.616822429906541
sI3
F24.647887323943664
sI4
F26.60377358490566
sI5
F26.190476190476193
sI6
F31.714285714285712
sI7
F27.333333333333332
sI8
F27.307692307692307
sI9
F35.652173913043477
sI10
F30.476190476190478
sI11
F28.421052631578945
sI12
F32.352941176470587
sI13
F34.375
sI14
F25.333333333333336
sI15
F34.285714285714285
sI16
F31.538461538461537
sI17
F27.500000000000004
sI18
F23.636363636363637
sI19
F29.09090909090909
sI20
F34
sssa(dp731
S'subset'
p732
I00
sS'level'
p733
S'behavior'
p734
sS'align'
p735
S'cut'
p736
sS'min_len'
p737
I500
sS'dataset'
p738
S'BC'
p739
sS'max_len'
p740
I14446
sS'avg_len'
p741
I948
sS'encode'
p742
S'AFF'
p743
sS'accuracy'
p744
(dp745
S'poly_svc'
p746
(dp747
I2
F63.801652892561989
sI3
F64.347826086956516
sI4
F64.214876033057848
sI5
F64.166666666666671
sI6
F65
sI7
F64.05797101449275
sI8
F67.666666666666657
sI9
F61.509433962264147
sI10
F66.25
sI11
F60.227272727272727
sI12
F67
sI13
F63.78378378378379
sI14
F62.941176470588232
sI15
F64.6875
sI16
F58.666666666666664
sI17
F67.5
sI18
F69.615384615384613
sI19
F71.200000000000003
sI20
F66.25
ssS'svc'
p748
(dp749
I2
F52.066115702479344
sI3
F55.155279503105589
sI4
F56.859504132231407
sI5
F57.604166666666664
sI6
F58.5
sI7
F55.217391304347828
sI8
F61.833333333333329
sI9
F59.433962264150942
sI10
F58.541666666666671
sI11
F55.909090909090907
sI12
F60.25
sI13
F61.621621621621628
sI14
F59.411764705882355
sI15
F56.562500000000007
sI16
F59.333333333333336
sI17
F58.928571428571431
sI18
F64.230769230769241
sI19
F66
sI20
F61.250000000000007
ssS'rbf_svc'
p750
(dp751
I2
F66.074380165289256
sI3
F66.397515527950318
sI4
F65.619834710743802
sI5
F66.354166666666671
sI6
F67.875
sI7
F65.94202898550725
sI8
F70
sI9
F65.849056603773576
sI10
F67.291666666666671
sI11
F63.409090909090907
sI12
F68.75
sI13
F69.729729729729726
sI14
F64.411764705882362
sI15
F65.3125
sI16
F62.333333333333329
sI17
F69.642857142857139
sI18
F69.230769230769226
sI19
F74.400000000000006
sI20
F69.583333333333329
ssS'lin_svc'
p752
(dp753
I2
F42.396694214876035
sI3
F40
sI4
F43.305785123966942
sI5
F32.1875
sI6
F33.75
sI7
F29.710144927536231
sI8
F38.666666666666664
sI9
F35.660377358490564
sI10
F38.541666666666671
sI11
F45.681818181818187
sI12
F47.25
sI13
F44.594594594594597
sI14
F32.352941176470587
sI15
F42.1875
sI16
F44.666666666666664
sI17
F45.357142857142854
sI18
F37.307692307692307
sI19
F51.600000000000001
sI20
F34.583333333333336
sssa(dp754
S'subset'
p755
I00
sS'level'
p756
S'behavior'
p757
sS'align'
p758
S'cut'
p759
sS'min_len'
p760
I500
sS'dataset'
p761
S'ABC'
p762
sS'max_len'
p763
I14446
sS'avg_len'
p764
I859
sS'encode'
p765
S'AFF'
p766
sS'accuracy'
p767
(dp768
S'poly_svc'
p769
(dp770
I2
F54.208754208754208
sI3
F53.63636363636364
sI4
F51.689189189189186
sI5
F51.596638655462193
sI6
F51.616161616161612
sI7
F49.647058823529413
sI8
F53.378378378378379
sI9
F50.606060606060609
sI10
F50.847457627118644
sI11
F53.148148148148145
sI12
F48.367346938775512
sI13
F53.555555555555557
sI14
F52.142857142857146
sI15
F52.820512820512825
sI16
F51.081081081081081
sI17
F51.142857142857146
sI18
F50.606060606060609
sI19
F52.258064516129032
sI20
F54.137931034482754
ssS'svc'
p771
(dp772
I2
F45.622895622895619
sI3
F47.474747474747474
sI4
F46.283783783783782
sI5
F44.621848739495803
sI6
F47.37373737373737
sI7
F48.823529411764703
sI8
F49.054054054054049
sI9
F46.666666666666664
sI10
F48.644067796610166
sI11
F48.703703703703702
sI12
F46.122448979591837
sI13
F49.333333333333336
sI14
F47.38095238095238
sI15
F50.256410256410255
sI16
F45.135135135135137
sI17
F51.142857142857146
sI18
F46.666666666666664
sI19
F48.387096774193552
sI20
F48.96551724137931
ssS'rbf_svc'
p773
(dp774
I2
F55.959595959595966
sI3
F55.101010101010104
sI4
F53.851351351351354
sI5
F52.857142857142861
sI6
F52.929292929292927
sI7
F52.470588235294116
sI8
F54.729729729729726
sI9
F50.757575757575758
sI10
F53.389830508474581
sI11
F52.777777777777779
sI12
F50.204081632653065
sI13
F53.111111111111107
sI14
F52.380952380952387
sI15
F54.871794871794876
sI16
F52.972972972972975
sI17
F53.428571428571423
sI18
F50
sI19
F55.483870967741936
sI20
F54.137931034482754
ssS'lin_svc'
p775
(dp776
I2
F28.249158249158253
sI3
F26.313131313131311
sI4
F29.054054054054053
sI5
F26.05042016806723
sI6
F25.959595959595958
sI7
F23.52941176470588
sI8
F23.108108108108109
sI9
F22.272727272727273
sI10
F24.745762711864408
sI11
F26.666666666666668
sI12
F17.755102040816325
sI13
F21.777777777777775
sI14
F21.904761904761905
sI15
F27.179487179487179
sI16
F19.189189189189189
sI17
F28.285714285714285
sI18
F22.727272727272727
sI19
F26.7741935483871
sI20
F27.586206896551722
sssaa(lp777
(dp778
S'subset'
p779
I00
sS'level'
p780
S'task'
p781
sS'align'
p782
S'interp'
p783
sS'min_len'
p784
I860
sS'dataset'
p785
S'B'
sS'max_len'
p786
I1995
sS'avg_len'
p787
I1245
sS'encode'
p788
S'FF'
p789
sS'accuracy'
p790
(dp791
S'poly_svc'
p792
(dp793
I2
F75.89473684210526
sI3
F78.412698412698418
sI4
F80.212765957446805
sI5
F76.05263157894737
sI6
F76.129032258064512
sI7
F81.481481481481481
sI8
F76.956521739130437
sI9
F77.61904761904762
sI10
F76.84210526315789
sI11
F77.058823529411768
sI12
F78.666666666666657
sI13
F77.857142857142861
sI14
F80
sI15
F80
sI16
F70.909090909090907
sI17
F80.909090909090907
sI18
F71
sI19
F80
sI20
F81.111111111111114
ssS'svc'
p794
(dp795
I2
F72.631578947368425
sI3
F75.396825396825392
sI4
F76.808510638297875
sI5
F75.526315789473685
sI6
F74.516129032258064
sI7
F78.148148148148138
sI8
F76.521739130434781
sI9
F77.61904761904762
sI10
F76.31578947368422
sI11
F75.882352941176464
sI12
F78
sI13
F74.285714285714292
sI14
F76.923076923076934
sI15
F76.666666666666671
sI16
F70
sI17
F83.636363636363626
sI18
F68
sI19
F76
sI20
F78.888888888888886
ssS'rbf_svc'
p796
(dp797
I2
F80.21052631578948
sI3
F80.317460317460316
sI4
F82.340425531914889
sI5
F80.78947368421052
sI6
F80.645161290322577
sI7
F85.925925925925924
sI8
F78.695652173913047
sI9
F81.904761904761898
sI10
F78.421052631578945
sI11
F78.82352941176471
sI12
F78
sI13
F80.714285714285722
sI14
F83.07692307692308
sI15
F85
sI16
F76.363636363636374
sI17
F85.454545454545453
sI18
F76
sI19
F80
sI20
F83.333333333333343
ssS'lin_svc'
p798
(dp799
I2
F71.684210526315795
sI3
F75.714285714285708
sI4
F75.531914893617028
sI5
F74.73684210526315
sI6
F73.225806451612911
sI7
F77.407407407407405
sI8
F75.65217391304347
sI9
F75.714285714285708
sI10
F76.31578947368422
sI11
F72.941176470588232
sI12
F76
sI13
F75
sI14
F76.153846153846146
sI15
F76.666666666666671
sI16
F68.181818181818173
sI17
F80.909090909090907
sI18
F66
sI19
F74
sI20
F75.555555555555557
sssa(dp800
S'subset'
p801
I00
sS'level'
p802
S'task'
p803
sS'align'
p804
S'interp'
p805
sS'min_len'
p806
I4397
sS'dataset'
p807
S'C'
sS'max_len'
p808
I16799
sS'avg_len'
p809
I6960
sS'encode'
p810
S'FF'
p811
sS'accuracy'
p812
(dp813
S'poly_svc'
p814
(dp815
I2
F80
sI3
F81
sI4
F82.5
sI5
F80
sI6
F72
sI7
F85
sI8
F80
sI9
F80
sI10
F86.666666666666671
sI11
F75
sI12
F90
sI13
F90
sI14
F80
sI15
F55.000000000000007
sI16
F95
sI17
F90
sI18
F80
sI19
F80
sI20
F80
ssS'svc'
p816
(dp817
I2
F80
sI3
F81
sI4
F82.5
sI5
F80
sI6
F72
sI7
F85
sI8
F80
sI9
F80
sI10
F86.666666666666671
sI11
F75
sI12
F90
sI13
F90
sI14
F80
sI15
F55.000000000000007
sI16
F95
sI17
F90
sI18
F80
sI19
F80
sI20
F80
ssS'rbf_svc'
p818
(dp819
I2
F80
sI3
F81
sI4
F82.5
sI5
F80
sI6
F72
sI7
F85
sI8
F80
sI9
F80
sI10
F86.666666666666671
sI11
F75
sI12
F90
sI13
F90
sI14
F80
sI15
F55.000000000000007
sI16
F95
sI17
F90
sI18
F80
sI19
F80
sI20
F80
ssS'lin_svc'
p820
(dp821
I2
F81.875
sI3
F82
sI4
F82.5
sI5
F83.333333333333343
sI6
F72
sI7
F85
sI8
F80
sI9
F80
sI10
F86.666666666666671
sI11
F75
sI12
F90
sI13
F90
sI14
F80
sI15
F55.000000000000007
sI16
F95
sI17
F90
sI18
F80
sI19
F80
sI20
F80
sssa(dp822
g193
I00
sg194
I2123
sg195
I1311
sg196
(dp823
S'poly_svc'
p824
(dp825
I2
F73.269230769230759
sI3
F74.05797101449275
sI4
F76.153846153846146
sI5
F77.073170731707322
sI6
F74.411764705882348
sI7
F77.58620689655173
sI8
F78.461538461538467
sI9
F71.304347826086953
sI10
F77.5
sI11
F75.555555555555557
sI12
F76.470588235294116
sI13
F73.125
sI14
F77.857142857142861
sI15
F78.461538461538467
sI16
F73.076923076923066
sI17
F71.666666666666671
sI18
F77.272727272727266
sI19
F78
sI20
F78
ssS'svc'
p826
(dp827
I2
F75.57692307692308
sI3
F74.782608695652172
sI4
F76.538461538461533
sI5
F77.073170731707322
sI6
F79.117647058823522
sI7
F78.275862068965523
sI8
F77.307692307692307
sI9
F74.782608695652172
sI10
F78
sI11
F72.777777777777771
sI12
F76.470588235294116
sI13
F75.625
sI14
F80
sI15
F76.923076923076934
sI16
F77.692307692307693
sI17
F70.833333333333343
sI18
F79.090909090909093
sI19
F77
sI20
F78
ssS'rbf_svc'
p828
(dp829
I2
F72.59615384615384
sI3
F73.043478260869563
sI4
F74.230769230769226
sI5
F73.658536585365852
sI6
F72.941176470588232
sI7
F73.448275862068968
sI8
F74.230769230769226
sI9
F70
sI10
F74
sI11
F73.888888888888886
sI12
F71.764705882352942
sI13
F71.25
sI14
F73.571428571428584
sI15
F73.076923076923066
sI16
F70.769230769230774
sI17
F67.5
sI18
F71.818181818181813
sI19
F78
sI20
F75
ssS'lin_svc'
p830
(dp831
I2
F76.442307692307693
sI3
F72.753623188405797
sI4
F75.384615384615387
sI5
F76.341463414634148
sI6
F75.882352941176464
sI7
F77.241379310344826
sI8
F75.769230769230774
sI9
F73.91304347826086
sI10
F77
sI11
F71.111111111111114
sI12
F77.058823529411768
sI13
F75.625
sI14
F78.571428571428569
sI15
F77.692307692307693
sI16
F77.692307692307693
sI17
F67.5
sI18
F78.181818181818187
sI19
F79
sI20
F78
sssg206
g237
sg208
g209
sg210
S'interp'
p832
sg212
I860
sg213
g259
sa(dp833
S'subset'
p834
I00
sS'level'
p835
S'task'
p836
sS'align'
p837
S'interp'
p838
sS'min_len'
p839
I1323
sS'dataset'
p840
S'AC'
p841
sS'max_len'
p842
I16799
sS'avg_len'
p843
I4389
sS'encode'
p844
S'FF'
p845
sS'accuracy'
p846
(dp847
S'poly_svc'
p848
(dp849
I2
F40.967741935483872
sI3
F40.952380952380949
sI4
F47.333333333333336
sI5
F49.166666666666664
sI6
F37
sI7
F48.888888888888886
sI8
F37.142857142857146
sI9
F51.428571428571423
sI10
F50
sI11
F32
sI12
F44
sI13
F47.5
sI14
F50
sI15
F52.5
sI16
F36.666666666666664
sI17
F60
sI18
F43.333333333333336
sI19
F46.666666666666664
sI20
F50
ssS'svc'
p850
(dp851
I2
F71.290322580645153
sI3
F76.19047619047619
sI4
F80
sI5
F81.666666666666671
sI6
F73
sI7
F80
sI8
F75.714285714285708
sI9
F80
sI10
F85
sI11
F72
sI12
F80
sI13
F75
sI14
F70
sI15
F82.5
sI16
F93.333333333333329
sI17
F90
sI18
F86.666666666666671
sI19
F73.333333333333329
sI20
F80
ssS'rbf_svc'
p852
(dp853
I2
F35.483870967741936
sI3
F33.80952380952381
sI4
F42
sI5
F42.5
sI6
F32
sI7
F40
sI8
F24.285714285714285
sI9
F47.142857142857139
sI10
F46.666666666666664
sI11
F28.000000000000004
sI12
F36
sI13
F45
sI14
F42.5
sI15
F45
sI16
F30
sI17
F50
sI18
F40
sI19
F43.333333333333336
sI20
F43.333333333333336
ssS'lin_svc'
p854
(dp855
I2
F77.096774193548384
sI3
F79.523809523809518
sI4
F84.666666666666671
sI5
F85
sI6
F77
sI7
F83.333333333333343
sI8
F81.428571428571431
sI9
F84.285714285714292
sI10
F86.666666666666671
sI11
F80
sI12
F84
sI13
F77.5
sI14
F77.5
sI15
F85
sI16
F93.333333333333329
sI17
F90
sI18
F90
sI19
F80
sI20
F80
sssa(dp856
S'subset'
p857
I00
sS'level'
p858
S'task'
p859
sS'align'
p860
S'interp'
p861
sS'min_len'
p862
I860
sS'dataset'
p863
S'BC'
p864
sS'max_len'
p865
I16799
sS'avg_len'
p866
I2068
sS'encode'
p867
S'FF'
p868
sS'accuracy'
p869
(dp870
S'poly_svc'
p871
(dp872
I2
F44.32432432432433
sI3
F48.108108108108112
sI4
F54
sI5
F55.909090909090907
sI6
F52.162162162162161
sI7
F58.387096774193544
sI8
F62.962962962962962
sI9
F63.333333333333329
sI10
F53.181818181818187
sI11
F59
sI12
F52.777777777777779
sI13
F62.352941176470587
sI14
F59.333333333333336
sI15
F55.000000000000007
sI16
F56.153846153846153
sI17
F68.461538461538467
sI18
F55.833333333333336
sI19
F62.727272727272734
sI20
F60.909090909090914
ssS'svc'
p873
(dp874
I2
F77.747747747747752
sI3
F75.945945945945951
sI4
F78.72727272727272
sI5
F75.454545454545453
sI6
F78.648648648648646
sI7
F76.451612903225808
sI8
F80.370370370370367
sI9
F80.833333333333329
sI10
F73.636363636363626
sI11
F77.5
sI12
F73.333333333333329
sI13
F76.470588235294116
sI14
F74
sI15
F72.857142857142847
sI16
F79.230769230769226
sI17
F87.692307692307693
sI18
F78.333333333333329
sI19
F81.818181818181827
sI20
F77.272727272727266
ssS'rbf_svc'
p875
(dp876
I2
F69.819819819819813
sI3
F69.864864864864856
sI4
F68.545454545454547
sI5
F65.454545454545453
sI6
F69.189189189189193
sI7
F69.354838709677423
sI8
F67.037037037037038
sI9
F72.083333333333329
sI10
F72.727272727272734
sI11
F69.5
sI12
F67.777777777777786
sI13
F60.588235294117645
sI14
F68.666666666666671
sI15
F67.142857142857139
sI16
F69.230769230769226
sI17
F75.384615384615387
sI18
F66.666666666666657
sI19
F66.363636363636374
sI20
F74.545454545454547
ssS'lin_svc'
p877
(dp878
I2
F74.054054054054049
sI3
F72.567567567567565
sI4
F74
sI5
F73.86363636363636
sI6
F75.945945945945951
sI7
F73.548387096774192
sI8
F78.148148148148138
sI9
F77.5
sI10
F74.090909090909093
sI11
F76
sI12
F70
sI13
F70.588235294117652
sI14
F70.666666666666671
sI15
F70
sI16
F76.923076923076934
sI17
F80.769230769230774
sI18
F76.666666666666671
sI19
F74.545454545454547
sI20
F72.727272727272734
sssa(dp879
S'subset'
p880
I00
sS'level'
p881
S'task'
p882
sS'align'
p883
S'interp'
p884
sS'min_len'
p885
I860
sS'dataset'
p886
S'ABC'
p887
sS'max_len'
p888
I16799
sS'avg_len'
p889
I2028
sS'encode'
p890
S'FF'
p891
sS'accuracy'
p892
(dp893
S'poly_svc'
p894
(dp895
I2
F40.714285714285715
sI3
F47.023809523809526
sI4
F52.539682539682545
sI5
F50.200000000000003
sI6
F52.380952380952387
sI7
F52.222222222222229
sI8
F57.41935483870968
sI9
F50.714285714285708
sI10
F51.200000000000003
sI11
F56.086956521739125
sI12
F64.285714285714292
sI13
F60
sI14
F53.888888888888886
sI15
F55.000000000000007
sI16
F61.333333333333329
sI17
F55.000000000000007
sI18
F56.428571428571431
sI19
F58.461538461538467
sI20
F66.666666666666657
ssS'svc'
p896
(dp897
I2
F73.412698412698404
sI3
F74.285714285714292
sI4
F76.666666666666671
sI5
F74.599999999999994
sI6
F75.714285714285708
sI7
F76.388888888888886
sI8
F74.838709677419359
sI9
F76.071428571428569
sI10
F70.799999999999997
sI11
F77.826086956521735
sI12
F80.952380952380949
sI13
F81.578947368421055
sI14
F72.222222222222214
sI15
F75.625
sI16
F78.666666666666657
sI17
F81.428571428571431
sI18
F77.142857142857153
sI19
F78.461538461538467
sI20
F83.333333333333343
ssS'rbf_svc'
p898
(dp899
I2
F60.714285714285708
sI3
F60.833333333333329
sI4
F60.476190476190474
sI5
F61.600000000000001
sI6
F59.047619047619051
sI7
F64.166666666666671
sI8
F60
sI9
F57.857142857142861
sI10
F58.399999999999999
sI11
F63.913043478260867
sI12
F62.857142857142854
sI13
F57.368421052631582
sI14
F57.777777777777771
sI15
F57.499999999999993
sI16
F64
sI17
F67.857142857142861
sI18
F59.285714285714285
sI19
F60
sI20
F61.666666666666671
ssS'lin_svc'
p900
(dp901
I2
F70.952380952380949
sI3
F70.11904761904762
sI4
F74.285714285714292
sI5
F70.799999999999997
sI6
F72.61904761904762
sI7
F73.888888888888886
sI8
F73.870967741935488
sI9
F73.214285714285708
sI10
F68.799999999999997
sI11
F73.91304347826086
sI12
F78.095238095238102
sI13
F72.631578947368425
sI14
F68.888888888888886
sI15
F74.375
sI16
F76
sI17
F77.142857142857153
sI18
F72.857142857142847
sI19
F73.846153846153854
sI20
F83.333333333333343
sssaa(lp902
(dp903
S'subset'
p904
I00
sS'level'
p905
S'behavior'
p906
sS'align'
p907
S'interp'
p908
sS'min_len'
p909
I500
sS'dataset'
p910
S'A'
sS'max_len'
p911
I915
sS'avg_len'
p912
I471
sS'encode'
p913
S'FF'
p914
sS'accuracy'
p915
(dp916
S'poly_svc'
p917
(dp918
I2
F36.909090909090907
sI3
F35.945945945945944
sI4
F35.185185185185183
sI5
F34.545454545454547
sI6
F32.777777777777779
sI7
F32
sI8
F32.307692307692307
sI9
F36.666666666666664
sI10
F35.454545454545453
sI11
F25
sI12
F33.333333333333329
sI13
F36.25
sI14
F34.285714285714285
sI15
F32.857142857142854
sI16
F40
sI17
F33.333333333333329
sI18
F30
sI19
F32
sI20
F24
ssS'svc'
p919
(dp920
I2
F24.545454545454547
sI3
F25.945945945945947
sI4
F28.518518518518519
sI5
F31.363636363636367
sI6
F30
sI7
F29.333333333333332
sI8
F30
sI9
F29.166666666666668
sI10
F29.09090909090909
sI11
F26
sI12
F23.333333333333332
sI13
F36.25
sI14
F30
sI15
F31.428571428571427
sI16
F30
sI17
F31.666666666666664
sI18
F25
sI19
F24
sI20
F20
ssS'rbf_svc'
p921
(dp922
I2
F20.363636363636363
sI3
F19.72972972972973
sI4
F17.407407407407408
sI5
F16.363636363636363
sI6
F17.777777777777779
sI7
F15.333333333333332
sI8
F16.153846153846153
sI9
F13.333333333333334
sI10
F14.545454545454545
sI11
F15
sI12
F15.555555555555555
sI13
F16.25
sI14
F14.285714285714285
sI15
F17.142857142857142
sI16
F15
sI17
F15
sI18
F10
sI19
F12
sI20
F16
ssS'lin_svc'
p923
(dp924
I2
F31.272727272727273
sI3
F32.702702702702702
sI4
F37.037037037037038
sI5
F40.909090909090914
sI6
F36.111111111111107
sI7
F40
sI8
F43.07692307692308
sI9
F39.166666666666664
sI10
F43.636363636363633
sI11
F39
sI12
F40
sI13
F45
sI14
F35.714285714285715
sI15
F38.571428571428577
sI16
F41.666666666666671
sI17
F40
sI18
F33.333333333333329
sI19
F30
sI20
F36
sssa(dp925
S'subset'
p926
I00
sS'level'
p927
S'behavior'
p928
sS'align'
p929
S'interp'
p930
sS'min_len'
p931
I500
sS'dataset'
p932
S'B'
sS'max_len'
p933
I1995
sS'avg_len'
p934
I620
sS'encode'
p935
S'FF'
p936
sS'accuracy'
p937
(dp938
S'poly_svc'
p939
(dp940
I2
F70.05263157894737
sI3
F71.889763779527556
sI4
F74.73684210526315
sI5
F73.15789473684211
sI6
F75.555555555555557
sI7
F73.703703703703709
sI8
F74.255319148936167
sI9
F75.714285714285708
sI10
F75.26315789473685
sI11
F75.882352941176464
sI12
F79.677419354838705
sI13
F74.827586206896555
sI14
F75.555555555555557
sI15
F71.200000000000003
sI16
F72.608695652173921
sI17
F73.181818181818187
sI18
F79.047619047619051
sI19
F76
sI20
F82.631578947368425
ssS'svc'
p941
(dp942
I2
F75.473684210526315
sI3
F75.196850393700785
sI4
F77.15789473684211
sI5
F76.578947368421055
sI6
F74.603174603174608
sI7
F74.074074074074076
sI8
F75.531914893617028
sI9
F76.428571428571416
sI10
F75
sI11
F77.64705882352942
sI12
F79.032258064516128
sI13
F76.206896551724128
sI14
F79.259259259259267
sI15
F76
sI16
F78.695652173913047
sI17
F72.27272727272728
sI18
F72.38095238095238
sI19
F74.5
sI20
F82.631578947368425
ssS'rbf_svc'
p943
(dp944
I2
F53.684210526315788
sI3
F52.834645669291334
sI4
F51.789473684210527
sI5
F54.078947368421048
sI6
F52.857142857142861
sI7
F57.407407407407405
sI8
F53.617021276595743
sI9
F55.476190476190482
sI10
F53.94736842105263
sI11
F54.705882352941181
sI12
F58.064516129032263
sI13
F59.310344827586206
sI14
F52.222222222222229
sI15
F58.799999999999997
sI16
F55.217391304347828
sI17
F52.272727272727273
sI18
F51.904761904761912
sI19
F53.5
sI20
F56.84210526315789
ssS'lin_svc'
p945
(dp946
I2
F71.368421052631575
sI3
F72.125984251968504
sI4
F73.473684210526315
sI5
F73.15789473684211
sI6
F72.38095238095238
sI7
F71.296296296296291
sI8
F70.638297872340431
sI9
F75.476190476190482
sI10
F71.578947368421055
sI11
F74.705882352941174
sI12
F75.161290322580641
sI13
F74.137931034482762
sI14
F76.666666666666671
sI15
F75.200000000000003
sI16
F73.043478260869563
sI17
F70.454545454545453
sI18
F71.428571428571431
sI19
F70.5
sI20
F81.05263157894737
sssa(dp947
S'subset'
p948
I00
sS'level'
p949
S'behavior'
p950
sS'align'
p951
S'interp'
p952
sS'min_len'
p953
I500
sS'dataset'
p954
S'C'
sS'max_len'
p955
I14446
sS'avg_len'
p956
I2162
sS'encode'
p957
S'FF'
p958
sS'accuracy'
p959
(dp960
S'poly_svc'
p961
(dp962
I2
F19.607843137254903
sI3
F17.941176470588236
sI4
F20.399999999999999
sI5
F21
sI6
F18.235294117647058
sI7
F17.142857142857142
sI8
F18.333333333333332
sI9
F17.272727272727273
sI10
F16
sI11
F17.777777777777779
sI12
F7.5
sI13
F18.571428571428573
sI14
F14.285714285714285
sI15
F11.666666666666666
sI16
F15
sI17
F13.333333333333334
sI18
F12
sI19
F14.000000000000002
sI20
F8
ssS'svc'
p963
(dp964
I2
F44.901960784313729
sI3
F48.235294117647058
sI4
F64.799999999999997
sI5
F63.5
sI6
F66.470588235294116
sI7
F61.428571428571431
sI8
F60
sI9
F62.727272727272734
sI10
F60
sI11
F63.333333333333329
sI12
F65
sI13
F61.428571428571431
sI14
F60
sI15
F65
sI16
F66.666666666666657
sI17
F78.333333333333329
sI18
F57.999999999999993
sI19
F64
sI20
F62
ssS'rbf_svc'
p965
(dp966
I2
F36.078431372549019
sI3
F32.941176470588232
sI4
F36.399999999999999
sI5
F35
sI6
F37.647058823529413
sI7
F37.857142857142854
sI8
F34.166666666666664
sI9
F36.363636363636367
sI10
F39
sI11
F34.444444444444443
sI12
F31.25
sI13
F38.571428571428577
sI14
F32.857142857142854
sI15
F41.666666666666671
sI16
F33.333333333333329
sI17
F30
sI18
F28.000000000000004
sI19
F28.000000000000004
sI20
F32
ssS'lin_svc'
p967
(dp968
I2
F50.196078431372548
sI3
F51.764705882352949
sI4
F57.599999999999994
sI5
F59
sI6
F60.588235294117645
sI7
F52.857142857142861
sI8
F62.5
sI9
F60
sI10
F56.999999999999993
sI11
F55.555555555555557
sI12
F58.75
sI13
F57.142857142857139
sI14
F67.142857142857139
sI15
F66.666666666666657
sI16
F61.666666666666671
sI17
F73.333333333333329
sI18
F48
sI19
F62
sI20
F56.000000000000007
sssa(dp969
g193
I00
sg194
I1995
sg195
I607
sg196
(dp970
S'poly_svc'
p971
(dp972
I2
F62.901785714285715
sI3
F67.919463087248317
sI4
F65.982142857142861
sI5
F65.842696629213478
sI6
F66.756756756756758
sI7
F66.5625
sI8
F68.035714285714292
sI9
F70.408163265306129
sI10
F66.13636363636364
sI11
F65.75
sI12
F70
sI13
F70.882352941176478
sI14
F74.0625
sI15
F68.275862068965523
sI16
F68.928571428571431
sI17
F67.692307692307693
sI18
F70
sI19
F70.434782608695656
sI20
F66.818181818181827
ssS'svc'
p973
(dp974
I2
F66.785714285714278
sI3
F67.31543624161074
sI4
F66.517857142857139
sI5
F65.280898876404493
sI6
F68.783783783783775
sI7
F68.28125
sI8
F66.785714285714278
sI9
F68.16326530612244
sI10
F65.909090909090907
sI11
F67
sI12
F68.918918918918919
sI13
F68.82352941176471
sI14
F71.5625
sI15
F69.310344827586206
sI16
F70
sI17
F63.46153846153846
sI18
F65
sI19
F70.434782608695656
sI20
F69.090909090909093
ssS'rbf_svc'
p975
(dp976
I2
F41.205357142857139
sI3
F45.838926174496649
sI4
F45.178571428571431
sI5
F45.730337078651687
sI6
F46.081081081081081
sI7
F50.312500000000007
sI8
F47.142857142857139
sI9
F48.775510204081634
sI10
F44.31818181818182
sI11
F44.75
sI12
F50.270270270270267
sI13
F47.647058823529406
sI14
F42.5
sI15
F50
sI16
F50.357142857142854
sI17
F43.846153846153847
sI18
F43.75
sI19
F45.652173913043477
sI20
F48.63636363636364
ssS'lin_svc'
p977
(dp978
I2
F61.5625
sI3
F63.355704697986582
sI4
F63.928571428571423
sI5
F62.471910112359552
sI6
F65.405405405405403
sI7
F63.749999999999993
sI8
F63.035714285714285
sI9
F65.510204081632651
sI10
F62.272727272727266
sI11
F62.250000000000007
sI12
F65.945945945945951
sI13
F63.823529411764703
sI14
F69.375
sI15
F66.551724137931032
sI16
F63.214285714285708
sI17
F61.15384615384616
sI18
F62.916666666666664
sI19
F66.521739130434781
sI20
F62.272727272727266
sssg206
g207
sg208
g209
sg210
g832
sg212
I500
sg213
g259
sa(dp979
S'subset'
p980
I00
sS'level'
p981
S'behavior'
p982
sS'align'
p983
S'interp'
p984
sS'min_len'
p985
I500
sS'dataset'
p986
S'AC'
p987
sS'max_len'
p988
I14446
sS'avg_len'
p989
I1285
sS'encode'
p990
S'FF'
p991
sS'accuracy'
p992
(dp993
S'poly_svc'
p994
(dp995
I2
F19.158878504672895
sI3
F21.830985915492956
sI4
F20.566037735849058
sI5
F20
sI6
F20.571428571428569
sI7
F20
sI8
F21.153846153846153
sI9
F16.521739130434781
sI10
F17.61904761904762
sI11
F15.263157894736842
sI12
F17.647058823529413
sI13
F23.75
sI14
F18
sI15
F15.714285714285714
sI16
F18.461538461538463
sI17
F20.833333333333336
sI18
F14.545454545454545
sI19
F16.363636363636363
sI20
F17
ssS'svc'
p996
(dp997
I2
F34.205607476635514
sI3
F41.267605633802816
sI4
F41.320754716981135
sI5
F41.666666666666671
sI6
F43.428571428571431
sI7
F44.666666666666664
sI8
F41.923076923076927
sI9
F41.739130434782609
sI10
F42.857142857142854
sI11
F46.315789473684212
sI12
F41.764705882352942
sI13
F45
sI14
F49.333333333333336
sI15
F45.714285714285715
sI16
F40.769230769230766
sI17
F45
sI18
F46.36363636363636
sI19
F42.727272727272727
sI20
F50
ssS'rbf_svc'
p998
(dp999
I2
F15.981308411214954
sI3
F20.845070422535212
sI4
F21.69811320754717
sI5
F19.761904761904763
sI6
F20.285714285714285
sI7
F17.666666666666668
sI8
F21.53846153846154
sI9
F20.434782608695652
sI10
F20.952380952380953
sI11
F18.947368421052634
sI12
F19.411764705882355
sI13
F18.75
sI14
F16
sI15
F18.571428571428573
sI16
F13.846153846153847
sI17
F18.333333333333332
sI18
F15.454545454545453
sI19
F18.181818181818183
sI20
F17
ssS'lin_svc'
p1000
(dp1001
I2
F38.13084112149533
sI3
F43.380281690140841
sI4
F42.641509433962263
sI5
F40.952380952380949
sI6
F46.571428571428569
sI7
F42.666666666666671
sI8
F45.384615384615387
sI9
F45.217391304347828
sI10
F47.142857142857139
sI11
F43.15789473684211
sI12
F41.764705882352942
sI13
F47.5
sI14
F46
sI15
F43.571428571428569
sI16
F40.769230769230766
sI17
F50
sI18
F45.454545454545453
sI19
F41.818181818181813
sI20
F51
sssa(dp1002
S'subset'
p1003
I00
sS'level'
p1004
S'behavior'
p1005
sS'align'
p1006
S'interp'
p1007
sS'min_len'
p1008
I500
sS'dataset'
p1009
S'BC'
p1010
sS'max_len'
p1011
I14446
sS'avg_len'
p1012
I948
sS'encode'
p1013
S'FF'
p1014
sS'accuracy'
p1015
(dp1016
S'poly_svc'
p1017
(dp1018
I2
F52.47933884297521
sI3
F54.534161490683232
sI4
F56.694214876033058
sI5
F56.041666666666664
sI6
F56.999999999999993
sI7
F55.217391304347828
sI8
F55.000000000000007
sI9
F55.849056603773583
sI10
F54.374999999999993
sI11
F60
sI12
F54.75
sI13
F50
sI14
F55.294117647058826
sI15
F55.000000000000007
sI16
F57.666666666666664
sI17
F57.857142857142861
sI18
F53.846153846153847
sI19
F56.799999999999997
sI20
F60.833333333333329
ssS'svc'
p1019
(dp1020
I2
F68.84297520661157
sI3
F69.627329192546583
sI4
F72.066115702479337
sI5
F71.5625
sI6
F75.375
sI7
F71.884057971014499
sI8
F72.333333333333343
sI9
F69.811320754716974
sI10
F67.916666666666671
sI11
F71.818181818181813
sI12
F71.75
sI13
F70
sI14
F71.764705882352942
sI15
F72.8125
sI16
F72.666666666666671
sI17
F78.571428571428569
sI18
F67.692307692307693
sI19
F75.200000000000003
sI20
F70.416666666666671
ssS'rbf_svc'
p1021
(dp1022
I2
F39.752066115702476
sI3
F43.167701863354033
sI4
F43.471074380165284
sI5
F42.916666666666664
sI6
F46.875
sI7
F44.05797101449275
sI8
F45.333333333333329
sI9
F43.018867924528301
sI10
F42.916666666666664
sI11
F45
sI12
F46
sI13
F41.891891891891895
sI14
F48.529411764705884
sI15
F46.875
sI16
F48.333333333333336
sI17
F46.428571428571431
sI18
F40.769230769230766
sI19
F48.799999999999997
sI20
F41.666666666666671
ssS'lin_svc'
p1023
(dp1024
I2
F61.157024793388423
sI3
F63.664596273291927
sI4
F64.214876033057848
sI5
F64.0625
sI6
F66
sI7
F63.04347826086957
sI8
F63.333333333333329
sI9
F64.528301886792448
sI10
F63.125
sI11
F67.045454545454547
sI12
F64.5
sI13
F61.351351351351347
sI14
F63.235294117647058
sI15
F65.9375
sI16
F64.333333333333329
sI17
F64.642857142857153
sI18
F59.615384615384613
sI19
F67.600000000000009
sI20
F67.083333333333329
sssa(dp1025
S'subset'
p1026
I00
sS'level'
p1027
S'behavior'
p1028
sS'align'
p1029
S'interp'
p1030
sS'min_len'
p1031
I500
sS'dataset'
p1032
S'ABC'
p1033
sS'max_len'
p1034
I14446
sS'avg_len'
p1035
I859
sS'encode'
p1036
S'FF'
p1037
sS'accuracy'
p1038
(dp1039
S'poly_svc'
p1040
(dp1041
I2
F48.484848484848484
sI3
F48.333333333333336
sI4
F49.594594594594597
sI5
F49.747899159663866
sI6
F50.202020202020201
sI7
F50.588235294117645
sI8
F50
sI9
F50.303030303030305
sI10
F48.474576271186443
sI11
F47.407407407407412
sI12
F49.795918367346935
sI13
F47.777777777777779
sI14
F53.571428571428569
sI15
F48.205128205128204
sI16
F50.540540540540533
sI17
F52.285714285714292
sI18
F50.606060606060609
sI19
F48.70967741935484
sI20
F48.620689655172413
ssS'svc'
p1042
(dp1043
I2
F59.494949494949488
sI3
F59.090909090909093
sI4
F60.472972972972968
sI5
F62.352941176470587
sI6
F61.313131313131308
sI7
F61.647058823529413
sI8
F58.513513513513516
sI9
F61.818181818181813
sI10
F62.711864406779661
sI11
F60.185185185185183
sI12
F60.204081632653065
sI13
F62
sI14
F62.61904761904762
sI15
F58.974358974358978
sI16
F60.540540540540547
sI17
F61.142857142857146
sI18
F64.242424242424249
sI19
F59.354838709677416
sI20
F60
ssS'rbf_svc'
p1044
(dp1045
I2
F34.175084175084173
sI3
F34.242424242424242
sI4
F36.148648648648653
sI5
F37.647058823529413
sI6
F35.555555555555557
sI7
F36.352941176470587
sI8
F37.972972972972975
sI9
F34.545454545454547
sI10
F37.457627118644069
sI11
F34.25925925925926
sI12
F34.897959183673471
sI13
F35.333333333333336
sI14
F35.476190476190474
sI15
F36.410256410256409
sI16
F38.648648648648646
sI17
F38.285714285714285
sI18
F33.030303030303031
sI19
F34.193548387096776
sI20
F37.586206896551722
ssS'lin_svc'
p1046
(dp1047
I2
F52.592592592592588
sI3
F53.484848484848477
sI4
F54.864864864864856
sI5
F56.386554621848738
sI6
F54.54545454545454
sI7
F56.588235294117652
sI8
F54.594594594594589
sI9
F55.000000000000007
sI10
F57.627118644067799
sI11
F54.814814814814817
sI12
F52.040816326530617
sI13
F53.777777777777779
sI14
F59.047619047619051
sI15
F55.384615384615387
sI16
F54.594594594594589
sI17
F55.142857142857139
sI18
F58.18181818181818
sI19
F52.258064516129032
sI20
F53.448275862068961
sssaa(lp1048
(dp1049
S'subset'
p1050
I00
sS'level'
p1051
S'task'
p1052
sS'align'
p1053
S'interp'
p1054
sS'min_len'
p1055
I860
sS'dataset'
p1056
S'B'
sS'max_len'
p1057
I1995
sS'avg_len'
p1058
I1245
sS'encode'
p1059
S'AFF'
p1060
sS'accuracy'
p1061
(dp1062
S'poly_svc'
p1063
(dp1064
I2
F77.473684210526315
sI3
F78.412698412698418
sI4
F77.446808510638306
sI5
F77.368421052631575
sI6
F76.129032258064512
sI7
F73.333333333333329
sI8
F79.565217391304344
sI9
F76.19047619047619
sI10
F72.631578947368425
sI11
F80
sI12
F82
sI13
F80
sI14
F80.769230769230774
sI15
F75
sI16
F80
sI17
F78.181818181818187
sI18
F80
sI19
F70
sI20
F74.444444444444443
ssS'svc'
p1065
(dp1066
I2
F76.105263157894726
sI3
F73.492063492063494
sI4
F76.382978723404264
sI5
F75.26315789473685
sI6
F75.806451612903231
sI7
F71.111111111111114
sI8
F79.130434782608688
sI9
F76.19047619047619
sI10
F74.210526315789465
sI11
F81.17647058823529
sI12
F80
sI13
F80
sI14
F80
sI15
F75
sI16
F84.545454545454547
sI17
F80
sI18
F79
sI19
F72
sI20
F73.333333333333329
ssS'rbf_svc'
p1067
(dp1068
I2
F80.631578947368425
sI3
F81.428571428571431
sI4
F80.212765957446805
sI5
F81.315789473684205
sI6
F77.741935483870975
sI7
F76.666666666666671
sI8
F80.869565217391298
sI9
F76.666666666666671
sI10
F77.89473684210526
sI11
F81.764705882352942
sI12
F82
sI13
F83.571428571428569
sI14
F83.846153846153854
sI15
F79.166666666666657
sI16
F83.636363636363626
sI17
F87.272727272727266
sI18
F81
sI19
F73
sI20
F75.555555555555557
ssS'lin_svc'
p1069
(dp1070
I2
F75.89473684210526
sI3
F72.38095238095238
sI4
F75.106382978723403
sI5
F75
sI6
F73.225806451612911
sI7
F72.222222222222214
sI8
F76.521739130434781
sI9
F73.333333333333329
sI10
F73.15789473684211
sI11
F77.058823529411768
sI12
F79.333333333333329
sI13
F81.428571428571431
sI14
F78.461538461538467
sI15
F75.833333333333329
sI16
F81.818181818181827
sI17
F70.909090909090907
sI18
F79
sI19
F67
sI20
F74.444444444444443
sssa(dp1071
S'subset'
p1072
I00
sS'level'
p1073
S'task'
p1074
sS'align'
p1075
S'interp'
p1076
sS'min_len'
p1077
I4397
sS'dataset'
p1078
S'C'
sS'max_len'
p1079
I16799
sS'avg_len'
p1080
I6960
sS'encode'
p1081
S'AFF'
p1082
sS'accuracy'
p1083
(dp1084
S'poly_svc'
p1085
(dp1086
I2
F65.625
sI3
F79
sI4
F78.75
sI5
F76.666666666666671
sI6
F82
sI7
F90
sI8
F82.5
sI9
F83.333333333333343
sI10
F83.333333333333343
sI11
F70
sI12
F55.000000000000007
sI13
F80
sI14
F75
sI15
F80
sI16
F65
sI17
F70
sI18
F70
sI19
F80
sI20
F90
ssS'svc'
p1087
(dp1088
I2
F76.25
sI3
F78
sI4
F78.75
sI5
F76.666666666666671
sI6
F84
sI7
F90
sI8
F82.5
sI9
F83.333333333333343
sI10
F83.333333333333343
sI11
F70
sI12
F55.000000000000007
sI13
F80
sI14
F75
sI15
F80
sI16
F65
sI17
F70
sI18
F70
sI19
F80
sI20
F90
ssS'rbf_svc'
p1089
(dp1090
I2
F78.75
sI3
F78
sI4
F78.75
sI5
F76.666666666666671
sI6
F84
sI7
F90
sI8
F82.5
sI9
F83.333333333333343
sI10
F83.333333333333343
sI11
F70
sI12
F55.000000000000007
sI13
F80
sI14
F75
sI15
F80
sI16
F65
sI17
F70
sI18
F70
sI19
F80
sI20
F90
ssS'lin_svc'
p1091
(dp1092
I2
F75.625
sI3
F78
sI4
F78.75
sI5
F76.666666666666671
sI6
F84
sI7
F90
sI8
F82.5
sI9
F83.333333333333343
sI10
F83.333333333333343
sI11
F70
sI12
F55.000000000000007
sI13
F80
sI14
F75
sI15
F80
sI16
F65
sI17
F70
sI18
F70
sI19
F80
sI20
F90
sssa(dp1093
g193
I00
sg194
I2123
sg195
I1311
sg196
(dp1094
S'poly_svc'
p1095
(dp1096
I2
F75.480769230769226
sI3
F76.231884057971016
sI4
F75.769230769230774
sI5
F73.658536585365852
sI6
F76.470588235294116
sI7
F73.448275862068968
sI8
F75.384615384615387
sI9
F78.260869565217391
sI10
F78.5
sI11
F77.777777777777786
sI12
F76.470588235294116
sI13
F75
sI14
F81.428571428571431
sI15
F75.384615384615387
sI16
F81.538461538461533
sI17
F78.333333333333329
sI18
F74.545454545454547
sI19
F83
sI20
F77
ssS'svc'
p1097
(dp1098
I2
F77.019230769230774
sI3
F78.985507246376812
sI4
F77.5
sI5
F75.853658536585371
sI6
F79.117647058823522
sI7
F75.862068965517238
sI8
F76.923076923076934
sI9
F80.434782608695656
sI10
F80
sI11
F82.222222222222214
sI12
F80.588235294117652
sI13
F74.375
sI14
F83.571428571428569
sI15
F79.230769230769226
sI16
F81.538461538461533
sI17
F80.833333333333329
sI18
F78.181818181818187
sI19
F82
sI20
F76
ssS'rbf_svc'
p1099
(dp1100
I2
F73.942307692307693
sI3
F74.492753623188406
sI4
F71.92307692307692
sI5
F72.439024390243901
sI6
F76.17647058823529
sI7
F73.793103448275872
sI8
F76.153846153846146
sI9
F73.478260869565219
sI10
F77
sI11
F74.444444444444443
sI12
F72.35294117647058
sI13
F69.375
sI14
F75.714285714285708
sI15
F76.153846153846146
sI16
F80
sI17
F77.5
sI18
F70
sI19
F75
sI20
F74
ssS'lin_svc'
p1101
(dp1102
I2
F76.153846153846146
sI3
F76.521739130434781
sI4
F76.538461538461533
sI5
F74.146341463414629
sI6
F78.235294117647058
sI7
F74.827586206896555
sI8
F75.769230769230774
sI9
F79.130434782608688
sI10
F79
sI11
F80
sI12
F77.64705882352942
sI13
F73.125
sI14
F79.285714285714278
sI15
F74.615384615384613
sI16
F80.769230769230774
sI17
F80
sI18
F80
sI19
F82
sI20
F70
sssg206
g237
sg208
g238
sg210
g832
sg212
I860
sg213
g259
sa(dp1103
S'subset'
p1104
I00
sS'level'
p1105
S'task'
p1106
sS'align'
p1107
S'interp'
p1108
sS'min_len'
p1109
I1323
sS'dataset'
p1110
S'AC'
p1111
sS'max_len'
p1112
I16799
sS'avg_len'
p1113
I4389
sS'encode'
p1114
S'AFF'
p1115
sS'accuracy'
p1116
(dp1117
S'poly_svc'
p1118
(dp1119
I2
F45.161290322580641
sI3
F51.428571428571423
sI4
F45.333333333333329
sI5
F50.833333333333329
sI6
F49
sI7
F52.222222222222229
sI8
F60
sI9
F45.714285714285715
sI10
F51.666666666666671
sI11
F54
sI12
F48
sI13
F62.5
sI14
F47.5
sI15
F47.5
sI16
F53.333333333333336
sI17
F46.666666666666664
sI18
F53.333333333333336
sI19
F53.333333333333336
sI20
F50
ssS'svc'
p1120
(dp1121
I2
F66.451612903225808
sI3
F73.80952380952381
sI4
F76
sI5
F68.333333333333329
sI6
F83
sI7
F80
sI8
F80
sI9
F68.571428571428569
sI10
F80
sI11
F86
sI12
F90
sI13
F87.5
sI14
F85
sI15
F82.5
sI16
F83.333333333333343
sI17
F80
sI18
F80
sI19
F83.333333333333343
sI20
F73.333333333333329
ssS'rbf_svc'
p1122
(dp1123
I2
F34.193548387096776
sI3
F37.61904761904762
sI4
F36
sI5
F40.833333333333336
sI6
F39
sI7
F45.555555555555557
sI8
F47.142857142857139
sI9
F34.285714285714285
sI10
F35
sI11
F32
sI12
F36
sI13
F57.499999999999993
sI14
F37.5
sI15
F37.5
sI16
F43.333333333333336
sI17
F33.333333333333329
sI18
F40
sI19
F46.666666666666664
sI20
F43.333333333333336
ssS'lin_svc'
p1124
(dp1125
I2
F68.709677419354847
sI3
F77.142857142857153
sI4
F76.666666666666671
sI5
F73.333333333333329
sI6
F82
sI7
F82.222222222222214
sI8
F80
sI9
F67.142857142857139
sI10
F81.666666666666671
sI11
F84
sI12
F90
sI13
F87.5
sI14
F82.5
sI15
F82.5
sI16
F83.333333333333343
sI17
F80
sI18
F80
sI19
F83.333333333333343
sI20
F80
sssa(dp1126
S'subset'
p1127
I00
sS'level'
p1128
S'task'
p1129
sS'align'
p1130
S'interp'
p1131
sS'min_len'
p1132
I860
sS'dataset'
p1133
S'BC'
p1134
sS'max_len'
p1135
I16799
sS'avg_len'
p1136
I2068
sS'encode'
p1137
S'AFF'
p1138
sS'accuracy'
p1139
(dp1140
S'poly_svc'
p1141
(dp1142
I2
F62.522522522522529
sI3
F69.459459459459467
sI4
F71.27272727272728
sI5
F74.318181818181813
sI6
F71.891891891891888
sI7
F71.935483870967744
sI8
F71.481481481481481
sI9
F77.916666666666671
sI10
F71.36363636363636
sI11
F72.5
sI12
F78.333333333333329
sI13
F72.35294117647058
sI14
F71.333333333333343
sI15
F72.857142857142847
sI16
F75.384615384615387
sI17
F70
sI18
F70.833333333333343
sI19
F75.454545454545453
sI20
F70.909090909090907
ssS'svc'
p1143
(dp1144
I2
F74.86486486486487
sI3
F79.054054054054063
sI4
F78.72727272727272
sI5
F81.818181818181827
sI6
F77.567567567567565
sI7
F75.161290322580641
sI8
F72.962962962962962
sI9
F80.416666666666671
sI10
F75.454545454545453
sI11
F73.5
sI12
F82.222222222222214
sI13
F74.117647058823536
sI14
F74
sI15
F76.428571428571416
sI16
F80.769230769230774
sI17
F73.846153846153854
sI18
F73.333333333333329
sI19
F81.818181818181827
sI20
F73.636363636363626
ssS'rbf_svc'
p1145
(dp1146
I2
F70
sI3
F69.054054054054063
sI4
F70.909090909090907
sI5
F69.545454545454547
sI6
F70.540540540540547
sI7
F65.483870967741936
sI8
F65.555555555555557
sI9
F70
sI10
F62.272727272727266
sI11
F67
sI12
F75.555555555555557
sI13
F65.882352941176464
sI14
F70.666666666666671
sI15
F72.142857142857139
sI16
F67.692307692307693
sI17
F67.692307692307693
sI18
F66.666666666666657
sI19
F75.454545454545453
sI20
F61.818181818181813
ssS'lin_svc'
p1147
(dp1148
I2
F72.972972972972968
sI3
F77.162162162162161
sI4
F76.181818181818187
sI5
F80
sI6
F75.675675675675677
sI7
F75.483870967741936
sI8
F72.962962962962962
sI9
F76.25
sI10
F74.545454545454547
sI11
F72
sI12
F79.444444444444443
sI13
F72.35294117647058
sI14
F74
sI15
F72.142857142857139
sI16
F80.769230769230774
sI17
F76.923076923076934
sI18
F72.5
sI19
F79.090909090909093
sI20
F73.636363636363626
sssa(dp1149
S'subset'
p1150
I00
sS'level'
p1151
S'task'
p1152
sS'align'
p1153
S'interp'
p1154
sS'min_len'
p1155
I860
sS'dataset'
p1156
S'ABC'
p1157
sS'max_len'
p1158
I16799
sS'avg_len'
p1159
I2028
sS'encode'
p1160
S'AFF'
p1161
sS'accuracy'
p1162
(dp1163
S'poly_svc'
p1164
(dp1165
I2
F57.539682539682538
sI3
F62.61904761904762
sI4
F66.825396825396822
sI5
F65
sI6
F70.238095238095227
sI7
F69.166666666666671
sI8
F68.387096774193552
sI9
F70.357142857142861
sI10
F67.200000000000003
sI11
F73.043478260869563
sI12
F70.952380952380949
sI13
F71.05263157894737
sI14
F66.111111111111114
sI15
F64.375
sI16
F68.666666666666671
sI17
F71.428571428571431
sI18
F65.714285714285708
sI19
F75.384615384615387
sI20
F68.333333333333329
ssS'svc'
p1166
(dp1167
I2
F75.555555555555557
sI3
F73.80952380952381
sI4
F77.142857142857153
sI5
F78.600000000000009
sI6
F77.38095238095238
sI7
F78.333333333333329
sI8
F77.096774193548384
sI9
F80
sI10
F78.400000000000006
sI11
F83.478260869565219
sI12
F80
sI13
F78.94736842105263
sI14
F73.333333333333329
sI15
F76.875
sI16
F78.666666666666657
sI17
F77.142857142857153
sI18
F75.714285714285708
sI19
F78.461538461538467
sI20
F75.833333333333329
ssS'rbf_svc'
p1168
(dp1169
I2
F60.55555555555555
sI3
F58.69047619047619
sI4
F62.38095238095238
sI5
F59.799999999999997
sI6
F60
sI7
F63.055555555555557
sI8
F55.806451612903231
sI9
F65.714285714285708
sI10
F59.199999999999996
sI11
F65.217391304347828
sI12
F62.857142857142854
sI13
F57.894736842105267
sI14
F55.555555555555557
sI15
F57.499999999999993
sI16
F65.333333333333329
sI17
F60
sI18
F61.428571428571431
sI19
F63.84615384615384
sI20
F66.666666666666657
ssS'lin_svc'
p1170
(dp1171
I2
F74.920634920634924
sI3
F74.404761904761912
sI4
F74.920634920634924
sI5
F77.400000000000006
sI6
F75.714285714285708
sI7
F75.277777777777771
sI8
F77.096774193548384
sI9
F76.785714285714292
sI10
F76.799999999999997
sI11
F83.043478260869563
sI12
F72.857142857142847
sI13
F77.89473684210526
sI14
F71.111111111111114
sI15
F72.5
sI16
F73.333333333333329
sI17
F75.714285714285708
sI18
F74.285714285714292
sI19
F76.923076923076934
sI20
F71.666666666666671
sssaa(lp1172
(dp1173
S'subset'
p1174
I00
sS'level'
p1175
S'behavior'
p1176
sS'align'
p1177
S'interp'
p1178
sS'min_len'
p1179
I500
sS'dataset'
p1180
S'A'
sS'max_len'
p1181
I915
sS'avg_len'
p1182
I471
sS'encode'
p1183
S'AFF'
p1184
sS'accuracy'
p1185
(dp1186
S'poly_svc'
p1187
(dp1188
I2
F35.272727272727273
sI3
F38.378378378378379
sI4
F40.370370370370374
sI5
F34.545454545454547
sI6
F38.888888888888893
sI7
F37.333333333333336
sI8
F33.076923076923073
sI9
F39.166666666666664
sI10
F47.272727272727273
sI11
F39
sI12
F36.666666666666664
sI13
F38.75
sI14
F47.142857142857139
sI15
F44.285714285714285
sI16
F38.333333333333336
sI17
F41.666666666666671
sI18
F46.666666666666664
sI19
F46
sI20
F48
ssS'svc'
p1189
(dp1190
I2
F29.09090909090909
sI3
F31.891891891891895
sI4
F31.851851851851855
sI5
F28.636363636363637
sI6
F36.111111111111107
sI7
F30
sI8
F27.692307692307693
sI9
F32.5
sI10
F39.090909090909093
sI11
F31
sI12
F28.888888888888886
sI13
F33.75
sI14
F40
sI15
F42.857142857142854
sI16
F31.666666666666664
sI17
F38.333333333333336
sI18
F31.666666666666664
sI19
F34
sI20
F42
ssS'rbf_svc'
p1191
(dp1192
I2
F20.18181818181818
sI3
F16.756756756756758
sI4
F17.777777777777779
sI5
F16.818181818181817
sI6
F12.777777777777777
sI7
F10.666666666666668
sI8
F13.846153846153847
sI9
F23.333333333333332
sI10
F9.0909090909090917
sI11
F21
sI12
F17.777777777777779
sI13
F21.25
sI14
F14.285714285714285
sI15
F14.285714285714285
sI16
F11.666666666666666
sI17
F16.666666666666664
sI18
F13.333333333333334
sI19
F24
sI20
F10
ssS'lin_svc'
p1193
(dp1194
I2
F30.363636363636363
sI3
F36.216216216216218
sI4
F33.703703703703702
sI5
F32.727272727272727
sI6
F39.444444444444443
sI7
F33.333333333333329
sI8
F29.230769230769234
sI9
F31.666666666666664
sI10
F36.363636363636367
sI11
F30
sI12
F31.111111111111111
sI13
F35
sI14
F40
sI15
F40
sI16
F28.333333333333332
sI17
F36.666666666666664
sI18
F33.333333333333329
sI19
F34
sI20
F40
sssa(dp1195
S'subset'
p1196
I00
sS'level'
p1197
S'behavior'
p1198
sS'align'
p1199
S'interp'
p1200
sS'min_len'
p1201
I500
sS'dataset'
p1202
S'B'
sS'max_len'
p1203
I1995
sS'avg_len'
p1204
I620
sS'encode'
p1205
S'AFF'
p1206
sS'accuracy'
p1207
(dp1208
S'poly_svc'
p1209
(dp1210
I2
F71.473684210526315
sI3
F74.094488188976385
sI4
F73.578947368421055
sI5
F74.473684210526315
sI6
F77.142857142857153
sI7
F75
sI8
F76.382978723404264
sI9
F75.714285714285708
sI10
F78.684210526315795
sI11
F74.705882352941174
sI12
F73.225806451612911
sI13
F77.241379310344826
sI14
F74.444444444444443
sI15
F78.799999999999997
sI16
F78.695652173913047
sI17
F76.818181818181813
sI18
F80
sI19
F79
sI20
F77.368421052631575
ssS'svc'
p1211
(dp1212
I2
F74.526315789473685
sI3
F76.141732283464563
sI4
F73.15789473684211
sI5
F74.342105263157904
sI6
F76.19047619047619
sI7
F72.037037037037038
sI8
F73.191489361702125
sI9
F74.523809523809518
sI10
F78.421052631578945
sI11
F73.82352941176471
sI12
F74.838709677419359
sI13
F78.620689655172413
sI14
F75.18518518518519
sI15
F79.200000000000003
sI16
F80.434782608695656
sI17
F78.63636363636364
sI18
F79.523809523809518
sI19
F78.5
sI20
F76.84210526315789
ssS'rbf_svc'
p1213
(dp1214
I2
F46.05263157894737
sI3
F48.425196850393696
sI4
F46.421052631578945
sI5
F47.763157894736842
sI6
F49.682539682539684
sI7
F48.333333333333336
sI8
F49.148936170212764
sI9
F48.333333333333336
sI10
F44.736842105263158
sI11
F49.705882352941174
sI12
F51.612903225806448
sI13
F48.275862068965516
sI14
F50.74074074074074
sI15
F49.200000000000003
sI16
F48.695652173913047
sI17
F47.272727272727273
sI18
F50.952380952380949
sI19
F48
sI20
F47.89473684210526
ssS'lin_svc'
p1215
(dp1216
I2
F70.05263157894737
sI3
F71.574803149606296
sI4
F69.473684210526315
sI5
F70.65789473684211
sI6
F71.746031746031747
sI7
F70.370370370370367
sI8
F68.085106382978722
sI9
F70.238095238095227
sI10
F75
sI11
F71.17647058823529
sI12
F75.161290322580641
sI13
F71.724137931034477
sI14
F69.629629629629633
sI15
F75.200000000000003
sI16
F77.391304347826079
sI17
F73.636363636363626
sI18
F77.142857142857153
sI19
F74
sI20
F74.210526315789465
sssa(dp1217
S'subset'
p1218
I00
sS'level'
p1219
S'behavior'
p1220
sS'align'
p1221
S'interp'
p1222
sS'min_len'
p1223
I500
sS'dataset'
p1224
S'C'
sS'max_len'
p1225
I14446
sS'avg_len'
p1226
I2162
sS'encode'
p1227
S'AFF'
p1228
sS'accuracy'
p1229
(dp1230
S'poly_svc'
p1231
(dp1232
I2
F21.176470588235293
sI3
F22.941176470588236
sI4
F24.399999999999999
sI5
F22
sI6
F20
sI7
F20
sI8
F24.166666666666668
sI9
F19.090909090909093
sI10
F25
sI11
F23.333333333333332
sI12
F32.5
sI13
F21.428571428571427
sI14
F14.285714285714285
sI15
F16.666666666666664
sI16
F18.333333333333332
sI17
F11.666666666666666
sI18
F24
sI19
F16
sI20
F18
ssS'svc'
p1233
(dp1234
I2
F28.03921568627451
sI3
F32.352941176470587
sI4
F38.800000000000004
sI5
F32.5
sI6
F38.82352941176471
sI7
F40
sI8
F35.833333333333336
sI9
F43.636363636363633
sI10
F36
sI11
F33.333333333333329
sI12
F46.25
sI13
F42.857142857142854
sI14
F50
sI15
F36.666666666666664
sI16
F35
sI17
F25
sI18
F38
sI19
F38
sI20
F24
ssS'rbf_svc'
p1235
(dp1236
I2
F19.803921568627452
sI3
F21.470588235294116
sI4
F20.399999999999999
sI5
F13
sI6
F15.882352941176469
sI7
F14.285714285714285
sI8
F16.666666666666664
sI9
F14.545454545454545
sI10
F15
sI11
F15.555555555555555
sI12
F17.5
sI13
F14.285714285714285
sI14
F5.7142857142857144
sI15
F15
sI16
F10
sI17
F15
sI18
F20
sI19
F10
sI20
F10
ssS'lin_svc'
p1237
(dp1238
I2
F28.627450980392155
sI3
F35
sI4
F40.400000000000006
sI5
F32.5
sI6
F40
sI7
F37.857142857142854
sI8
F34.166666666666664
sI9
F40.909090909090914
sI10
F28.999999999999996
sI11
F26.666666666666668
sI12
F36.25
sI13
F40
sI14
F40
sI15
F36.666666666666664
sI16
F33.333333333333329
sI17
F25
sI18
F36
sI19
F38
sI20
F20
sssa(dp1239
g193
I00
sg194
I1995
sg195
I607
sg196
(dp1240
S'poly_svc'
p1241
(dp1242
I2
F62.5
sI3
F66.644295302013418
sI4
F63.928571428571423
sI5
F67.528089887640448
sI6
F68.108108108108112
sI7
F67.96875
sI8
F68.75
sI9
F67.346938775510196
sI10
F69.318181818181827
sI11
F65.25
sI12
F68.108108108108112
sI13
F64.117647058823536
sI14
F65
sI15
F68.965517241379317
sI16
F63.214285714285708
sI17
F70.384615384615387
sI18
F69.166666666666671
sI19
F68.260869565217391
sI20
F65.909090909090907
ssS'svc'
p1243
(dp1244
I2
F66.205357142857153
sI3
F67.583892617449663
sI4
F65.982142857142861
sI5
F69.438202247191015
sI6
F70
sI7
F69.21875
sI8
F70.357142857142861
sI9
F69.183673469387756
sI10
F68.86363636363636
sI11
F63.249999999999993
sI12
F67.297297297297291
sI13
F64.117647058823536
sI14
F66.5625
sI15
F69.655172413793096
sI16
F66.785714285714278
sI17
F71.15384615384616
sI18
F71.666666666666671
sI19
F68.260869565217391
sI20
F64.090909090909093
ssS'rbf_svc'
p1245
(dp1246
I2
F37.946428571428569
sI3
F39.530201342281877
sI4
F37.589285714285715
sI5
F40.786516853932589
sI6
F42.297297297297298
sI7
F39.375
sI8
F41.25
sI9
F40.408163265306122
sI10
F40.454545454545453
sI11
F37.25
sI12
F42.432432432432435
sI13
F37.647058823529413
sI14
F39.0625
sI15
F41.03448275862069
sI16
F40.357142857142861
sI17
F43.07692307692308
sI18
F40.416666666666664
sI19
F40.869565217391305
sI20
F42.272727272727273
ssS'lin_svc'
p1247
(dp1248
I2
F59.866071428571431
sI3
F62.483221476510067
sI4
F61.071428571428577
sI5
F63.59550561797753
sI6
F65.405405405405403
sI7
F63.125
sI8
F64.464285714285722
sI9
F64.897959183673464
sI10
F64.772727272727266
sI11
F57.999999999999993
sI12
F64.054054054054049
sI13
F60
sI14
F61.5625
sI15
F65.172413793103445
sI16
F58.928571428571431
sI17
F65
sI18
F68.75
sI19
F68.260869565217391
sI20
F60.454545454545453
sssg206
g207
sg208
g238
sg210
g832
sg212
I500
sg213
g259
sa(dp1249
S'subset'
p1250
I00
sS'level'
p1251
S'behavior'
p1252
sS'align'
p1253
S'interp'
p1254
sS'min_len'
p1255
I500
sS'dataset'
p1256
S'AC'
p1257
sS'max_len'
p1258
I14446
sS'avg_len'
p1259
I1285
sS'encode'
p1260
S'AFF'
p1261
sS'accuracy'
p1262
(dp1263
S'poly_svc'
p1264
(dp1265
I2
F26.168224299065418
sI3
F23.802816901408448
sI4
F27.169811320754718
sI5
F28.571428571428569
sI6
F28.857142857142858
sI7
F29.666666666666668
sI8
F28.846153846153843
sI9
F27.826086956521738
sI10
F33.80952380952381
sI11
F30.526315789473685
sI12
F30
sI13
F31.25
sI14
F29.333333333333332
sI15
F34.285714285714285
sI16
F34.615384615384613
sI17
F28.333333333333332
sI18
F30.909090909090907
sI19
F33.636363636363633
sI20
F30
ssS'svc'
p1266
(dp1267
I2
F32.242990654205606
sI3
F31.690140845070424
sI4
F32.830188679245282
sI5
F36.666666666666664
sI6
F35.714285714285715
sI7
F38.666666666666664
sI8
F42.307692307692307
sI9
F37.826086956521735
sI10
F43.80952380952381
sI11
F44.210526315789473
sI12
F39.411764705882355
sI13
F35
sI14
F35.333333333333336
sI15
F38.571428571428577
sI16
F44.61538461538462
sI17
F41.666666666666671
sI18
F41.818181818181813
sI19
F39.090909090909093
sI20
F39
ssS'rbf_svc'
p1268
(dp1269
I2
F13.271028037383179
sI3
F11.126760563380282
sI4
F12.075471698113208
sI5
F12.142857142857142
sI6
F12
sI7
F10
sI8
F12.307692307692308
sI9
F10
sI10
F6.1904761904761907
sI11
F12.631578947368421
sI12
F10.588235294117647
sI13
F8.75
sI14
F8.6666666666666679
sI15
F9.2857142857142865
sI16
F9.2307692307692317
sI17
F9.1666666666666661
sI18
F7.2727272727272725
sI19
F6.3636363636363633
sI20
F8
ssS'lin_svc'
p1270
(dp1271
I2
F23.457943925233646
sI3
F24.225352112676056
sI4
F25.849056603773583
sI5
F28.095238095238095
sI6
F25.142857142857146
sI7
F30.333333333333336
sI8
F28.46153846153846
sI9
F29.130434782608695
sI10
F33.80952380952381
sI11
F27.368421052631582
sI12
F28.235294117647058
sI13
F29.375
sI14
F28.666666666666668
sI15
F26.428571428571431
sI16
F28.46153846153846
sI17
F25.833333333333336
sI18
F26.36363636363636
sI19
F29.09090909090909
sI20
F28.000000000000004
sssa(dp1272
S'subset'
p1273
I00
sS'level'
p1274
S'behavior'
p1275
sS'align'
p1276
S'interp'
p1277
sS'min_len'
p1278
I500
sS'dataset'
p1279
S'BC'
p1280
sS'max_len'
p1281
I14446
sS'avg_len'
p1282
I948
sS'encode'
p1283
S'AFF'
p1284
sS'accuracy'
p1285
(dp1286
S'poly_svc'
p1287
(dp1288
I2
F58.884297520661157
sI3
F60.745341614906835
sI4
F64.132231404958674
sI5
F60.520833333333336
sI6
F62.125
sI7
F60.579710144927532
sI8
F61.5
sI9
F64.15094339622641
sI10
F65.208333333333329
sI11
F64.090909090909093
sI12
F63.5
sI13
F62.702702702702709
sI14
F68.235294117647058
sI15
F64.0625
sI16
F69.666666666666671
sI17
F61.785714285714292
sI18
F63.076923076923073
sI19
F67.200000000000003
sI20
F63.333333333333329
ssS'svc'
p1289
(dp1290
I2
F61.983471074380169
sI3
F58.571428571428577
sI4
F63.966942148760332
sI5
F62.916666666666664
sI6
F63.749999999999993
sI7
F61.884057971014492
sI8
F61.5
sI9
F62.830188679245282
sI10
F66.875
sI11
F64.545454545454547
sI12
F61.250000000000007
sI13
F63.78378378378379
sI14
F66.17647058823529
sI15
F64.0625
sI16
F60.666666666666671
sI17
F66.428571428571431
sI18
F62.692307692307693
sI19
F68
sI20
F61.250000000000007
ssS'rbf_svc'
p1291
(dp1292
I2
F36.859504132231407
sI3
F37.204968944099384
sI4
F39.504132231404959
sI5
F38.75
sI6
F37.875
sI7
F35.797101449275367
sI8
F33.333333333333329
sI9
F37.924528301886795
sI10
F39.166666666666664
sI11
F39.090909090909093
sI12
F36.25
sI13
F36.486486486486484
sI14
F36.470588235294116
sI15
F38.4375
sI16
F38.333333333333336
sI17
F37.857142857142854
sI18
F35.769230769230766
sI19
F38.399999999999999
sI20
F35
ssS'lin_svc'
p1293
(dp1294
I2
F41.776859504132233
sI3
F39.627329192546583
sI4
F41.900826446280995
sI5
F43.958333333333336
sI6
F47.5
sI7
F43.623188405797102
sI8
F46.833333333333336
sI9
F45.660377358490564
sI10
F51.249999999999993
sI11
F47.045454545454547
sI12
F45
sI13
F47.567567567567572
sI14
F45.588235294117645
sI15
F41.5625
sI16
F45.666666666666664
sI17
F47.5
sI18
F47.307692307692307
sI19
F51.200000000000003
sI20
F44.166666666666664
sssa(dp1295
S'subset'
p1296
I00
sS'level'
p1297
S'behavior'
p1298
sS'align'
p1299
S'interp'
p1300
sS'min_len'
p1301
I500
sS'dataset'
p1302
S'ABC'
p1303
sS'max_len'
p1304
I14446
sS'avg_len'
p1305
I859
sS'encode'
p1306
S'AFF'
p1307
sS'accuracy'
p1308
(dp1309
S'poly_svc'
p1310
(dp1311
I2
F49.966329966329965
sI3
F54.393939393939391
sI4
F50.810810810810814
sI5
F55.378151260504204
sI6
F56.36363636363636
sI7
F53.058823529411768
sI8
F57.297297297297298
sI9
F52.878787878787882
sI10
F53.728813559322028
sI11
F60.370370370370374
sI12
F52.653061224489797
sI13
F56.666666666666664
sI14
F50.952380952380949
sI15
F60
sI16
F55.67567567567567
sI17
F54.285714285714285
sI18
F55.454545454545453
sI19
F49.354838709677416
sI20
F55.862068965517238
ssS'svc'
p1312
(dp1313
I2
F52.289562289562284
sI3
F56.868686868686865
sI4
F54.729729729729726
sI5
F58.907563025210088
sI6
F56.868686868686865
sI7
F59.411764705882355
sI8
F59.189189189189186
sI9
F57.878787878787875
sI10
F58.983050847457633
sI11
F61.296296296296291
sI12
F57.755102040816332
sI13
F56.666666666666664
sI14
F55.952380952380956
sI15
F63.333333333333329
sI16
F57.567567567567565
sI17
F59.142857142857139
sI18
F58.18181818181818
sI19
F52.258064516129032
sI20
F58.275862068965523
ssS'rbf_svc'
p1314
(dp1315
I2
F30.168350168350166
sI3
F31.616161616161616
sI4
F31.148648648648646
sI5
F32.689075630252098
sI6
F32.020202020202021
sI7
F31.294117647058822
sI8
F32.432432432432435
sI9
F29.848484848484848
sI10
F30
sI11
F32.962962962962962
sI12
F31.22448979591837
sI13
F30.444444444444446
sI14
F30.238095238095237
sI15
F34.615384615384613
sI16
F33.243243243243242
sI17
F30.857142857142854
sI18
F32.121212121212125
sI19
F30.967741935483872
sI20
F31.724137931034484
ssS'lin_svc'
p1316
(dp1317
I2
F33.030303030303031
sI3
F37.828282828282831
sI4
F38.851351351351347
sI5
F41.344537815126046
sI6
F40.606060606060609
sI7
F41.17647058823529
sI8
F43.78378378378379
sI9
F43.787878787878789
sI10
F41.864406779661017
sI11
F44.81481481481481
sI12
F41.632653061224488
sI13
F36.444444444444443
sI14
F42.142857142857146
sI15
F41.282051282051277
sI16
F43.78378378378379
sI17
F40
sI18
F42.121212121212118
sI19
F36.129032258064512
sI20
F35.517241379310342
sssaa.