(dp1
S'subset'
p2
I00
sS'max_len'
p3
I14446
sS'avg_len'
p4
I2162
sS'accuracy'
p5
(dp6
S'poly_svc'
p7
(dp8
I2
F21.176470588235293
sI3
F22.941176470588236
sI4
F24.399999999999999
sI5
F22
sI6
F20
sI7
F20
sI8
F24.166666666666668
sI9
F19.090909090909093
sI10
F25
sI11
F23.333333333333332
sI12
F32.5
sI13
F21.428571428571427
sI14
F14.285714285714285
sI15
F16.666666666666664
sI16
F18.333333333333332
sI17
F11.666666666666666
sI18
F24
sI19
F16
sI20
F18
ssS'svc'
p9
(dp10
I2
F28.03921568627451
sI3
F32.352941176470587
sI4
F38.800000000000004
sI5
F32.5
sI6
F38.82352941176471
sI7
F40
sI8
F35.833333333333336
sI9
F43.636363636363633
sI10
F36
sI11
F33.333333333333329
sI12
F46.25
sI13
F42.857142857142854
sI14
F50
sI15
F36.666666666666664
sI16
F35
sI17
F25
sI18
F38
sI19
F38
sI20
F24
ssS'rbf_svc'
p11
(dp12
I2
F19.803921568627452
sI3
F21.470588235294116
sI4
F20.399999999999999
sI5
F13
sI6
F15.882352941176469
sI7
F14.285714285714285
sI8
F16.666666666666664
sI9
F14.545454545454545
sI10
F15
sI11
F15.555555555555555
sI12
F17.5
sI13
F14.285714285714285
sI14
F5.7142857142857144
sI15
F15
sI16
F10
sI17
F15
sI18
F20
sI19
F10
sI20
F10
ssS'lin_svc'
p13
(dp14
I2
F28.627450980392155
sI3
F35
sI4
F40.400000000000006
sI5
F32.5
sI6
F40
sI7
F37.857142857142854
sI8
F34.166666666666664
sI9
F40.909090909090914
sI10
F28.999999999999996
sI11
F26.666666666666668
sI12
F36.25
sI13
F40
sI14
F40
sI15
F36.666666666666664
sI16
F33.333333333333329
sI17
F25
sI18
F36
sI19
F38
sI20
F20
sssS'level'
p15
S'behavior'
p16
sS'encode'
p17
S'AFF'
p18
sS'align'
p19
S'interp'
p20
sS'min_len'
p21
I500
sS'dataset'
p22
S'C'
s.