(dp1
S'subset'
p2
I00
sS'max_len'
p3
I1995
sS'avg_len'
p4
I620
sS'accuracy'
p5
(dp6
S'poly_svc'
p7
(dp8
I2
F71.473684210526315
sI3
F74.094488188976385
sI4
F73.578947368421055
sI5
F74.473684210526315
sI6
F77.142857142857153
sI7
F75
sI8
F76.382978723404264
sI9
F75.714285714285708
sI10
F78.684210526315795
sI11
F74.705882352941174
sI12
F73.225806451612911
sI13
F77.241379310344826
sI14
F74.444444444444443
sI15
F78.799999999999997
sI16
F78.695652173913047
sI17
F76.818181818181813
sI18
F80
sI19
F79
sI20
F77.368421052631575
ssS'svc'
p9
(dp10
I2
F74.526315789473685
sI3
F76.141732283464563
sI4
F73.15789473684211
sI5
F74.342105263157904
sI6
F76.19047619047619
sI7
F72.037037037037038
sI8
F73.191489361702125
sI9
F74.523809523809518
sI10
F78.421052631578945
sI11
F73.82352941176471
sI12
F74.838709677419359
sI13
F78.620689655172413
sI14
F75.18518518518519
sI15
F79.200000000000003
sI16
F80.434782608695656
sI17
F78.63636363636364
sI18
F79.523809523809518
sI19
F78.5
sI20
F76.84210526315789
ssS'rbf_svc'
p11
(dp12
I2
F46.05263157894737
sI3
F48.425196850393696
sI4
F46.421052631578945
sI5
F47.763157894736842
sI6
F49.682539682539684
sI7
F48.333333333333336
sI8
F49.148936170212764
sI9
F48.333333333333336
sI10
F44.736842105263158
sI11
F49.705882352941174
sI12
F51.612903225806448
sI13
F48.275862068965516
sI14
F50.74074074074074
sI15
F49.200000000000003
sI16
F48.695652173913047
sI17
F47.272727272727273
sI18
F50.952380952380949
sI19
F48
sI20
F47.89473684210526
ssS'lin_svc'
p13
(dp14
I2
F70.05263157894737
sI3
F71.574803149606296
sI4
F69.473684210526315
sI5
F70.65789473684211
sI6
F71.746031746031747
sI7
F70.370370370370367
sI8
F68.085106382978722
sI9
F70.238095238095227
sI10
F75
sI11
F71.17647058823529
sI12
F75.161290322580641
sI13
F71.724137931034477
sI14
F69.629629629629633
sI15
F75.200000000000003
sI16
F77.391304347826079
sI17
F73.636363636363626
sI18
F77.142857142857153
sI19
F74
sI20
F74.210526315789465
sssS'level'
p15
S'behavior'
p16
sS'encode'
p17
S'AFF'
p18
sS'align'
p19
S'interp'
p20
sS'min_len'
p21
I500
sS'dataset'
p22
S'B'
s.