(dp1
S'subset'
p2
I00
sS'max_len'
p3
I2123
sS'avg_len'
p4
I1736
sS'accuracy'
p5
(dp6
S'poly_svc'
p7
(dp8
I2
F34.666666666666671
sI3
F31
sI4
F38.571428571428577
sI5
F51.666666666666671
sI6
F40
sI7
F32.5
sI8
F30
sI9
F43.333333333333336
sI10
F33.333333333333329
sI11
F30
sI12
F65
sI13
F55.000000000000007
sI14
F50
sI15
F50
sI16
F50
sI17
F40
sI18
F70
sI19
F70
sI20
F50
ssS'svc'
p9
(dp10
I2
F88
sI3
F83
sI4
F77.142857142857153
sI5
F88.333333333333329
sI6
F82
sI7
F90
sI8
F90
sI9
F83.333333333333343
sI10
F90
sI11
F75
sI12
F90
sI13
F90
sI14
F90
sI15
F75
sI16
F80
sI17
F80
sI18
F100
sI19
F100
sI20
F100
ssS'rbf_svc'
p11
(dp12
I2
F60
sI3
F51
sI4
F55.714285714285715
sI5
F51.666666666666671
sI6
F38
sI7
F57.499999999999993
sI8
F43.333333333333336
sI9
F66.666666666666657
sI10
F70
sI11
F40
sI12
F45
sI13
F55.000000000000007
sI14
F60
sI15
F35
sI16
F60
sI17
F40
sI18
F80
sI19
F60
sI20
F50
ssS'lin_svc'
p13
(dp14
I2
F89.333333333333329
sI3
F86
sI4
F80
sI5
F88.333333333333329
sI6
F84
sI7
F90
sI8
F90
sI9
F83.333333333333343
sI10
F90
sI11
F85
sI12
F90
sI13
F90
sI14
F90
sI15
F80
sI16
F80
sI17
F80
sI18
F100
sI19
F100
sI20
F100
sssS'level'
p15
S'task'
p16
sS'encode'
p17
S'FF'
p18
sS'align'
p19
S'interp'
p20
sS'min_len'
p21
I1323
sS'dataset'
p22
S'A'
s.