(lp1
(dp2
S'subset'
p3
I00
sS'max_len'
p4
I915
sS'avg_len'
p5
I471
sS'accuracy'
p6
(dp7
S'poly_svc'
p8
(dp9
I2
F33.81818181818182
sI3
F34.594594594594597
sI4
F32.222222222222221
sI5
F35
sI6
F29.444444444444446
sI7
F27.333333333333332
sI8
F34.615384615384613
sI9
F33.333333333333329
sI10
F30.909090909090907
sI11
F26
sI12
F32.222222222222221
sI13
F27.500000000000004
sI14
F34.285714285714285
sI15
F35.714285714285715
sI16
F33.333333333333329
sI17
F33.333333333333329
sI18
F33.333333333333329
sI19
F26
sI20
F30
ssS'svc'
p10
(dp11
I2
F26.727272727272727
sI3
F29.45945945945946
sI4
F32.592592592592595
sI5
F28.18181818181818
sI6
F26.666666666666668
sI7
F28.666666666666668
sI8
F30
sI9
F34.166666666666664
sI10
F29.09090909090909
sI11
F30
sI12
F32.222222222222221
sI13
F36.25
sI14
F42.857142857142854
sI15
F38.571428571428577
sI16
F38.333333333333336
sI17
F31.666666666666664
sI18
F41.666666666666671
sI19
F28.000000000000004
sI20
F30
ssS'rbf_svc'
p12
(dp13
I2
F34.545454545454547
sI3
F35.135135135135137
sI4
F33.333333333333329
sI5
F34.545454545454547
sI6
F29.444444444444446
sI7
F29.333333333333332
sI8
F36.153846153846153
sI9
F35
sI10
F31.818181818181817
sI11
F34
sI12
F33.333333333333329
sI13
F30
sI14
F37.142857142857146
sI15
F37.142857142857146
sI16
F36.666666666666664
sI17
F36.666666666666664
sI18
F36.666666666666664
sI19
F30
sI20
F30
ssS'lin_svc'
p14
(dp15
I2
F29.454545454545457
sI3
F34.324324324324323
sI4
F33.703703703703702
sI5
F30
sI6
F31.666666666666664
sI7
F30
sI8
F31.538461538461537
sI9
F37.5
sI10
F30.909090909090907
sI11
F36
sI12
F35.555555555555557
sI13
F35
sI14
F45.714285714285715
sI15
F40
sI16
F41.666666666666671
sI17
F33.333333333333329
sI18
F33.333333333333329
sI19
F34
sI20
F38
sssS'level'
p16
S'behavior'
p17
sS'encode'
p18
S'FF'
p19
sS'align'
p20
S'cut'
p21
sS'min_len'
p22
I500
sS'dataset'
p23
S'A'
sa(dp24
S'subset'
p25
I00
sS'level'
p26
S'behavior'
p27
sS'align'
p28
S'cut'
p29
sS'min_len'
p30
I500
sS'dataset'
p31
S'A'
sS'max_len'
p32
I915
sS'avg_len'
p33
I471
sS'encode'
p34
S'FF'
p35
sS'accuracy'
p36
(dp37
S'poly_svc'
p38
(dp39
I2
F33.81818181818182
sI3
F34.594594594594597
sI4
F32.222222222222221
sI5
F35
sI6
F29.444444444444446
sI7
F27.333333333333332
sI8
F34.615384615384613
sI9
F33.333333333333329
sI10
F30.909090909090907
sI11
F26
sI12
F32.222222222222221
sI13
F27.500000000000004
sI14
F34.285714285714285
sI15
F35.714285714285715
sI16
F33.333333333333329
sI17
F33.333333333333329
sI18
F33.333333333333329
sI19
F26
sI20
F30
ssS'svc'
p40
(dp41
I2
F26.727272727272727
sI3
F29.45945945945946
sI4
F32.592592592592595
sI5
F28.18181818181818
sI6
F26.666666666666668
sI7
F28.666666666666668
sI8
F30
sI9
F34.166666666666664
sI10
F29.09090909090909
sI11
F30
sI12
F32.222222222222221
sI13
F36.25
sI14
F42.857142857142854
sI15
F38.571428571428577
sI16
F38.333333333333336
sI17
F31.666666666666664
sI18
F41.666666666666671
sI19
F28.000000000000004
sI20
F30
ssS'rbf_svc'
p42
(dp43
I2
F34.545454545454547
sI3
F35.135135135135137
sI4
F33.333333333333329
sI5
F34.545454545454547
sI6
F29.444444444444446
sI7
F29.333333333333332
sI8
F36.153846153846153
sI9
F35
sI10
F31.818181818181817
sI11
F34
sI12
F33.333333333333329
sI13
F30
sI14
F37.142857142857146
sI15
F37.142857142857146
sI16
F36.666666666666664
sI17
F36.666666666666664
sI18
F36.666666666666664
sI19
F30
sI20
F30
ssS'lin_svc'
p44
(dp45
I2
F29.454545454545457
sI3
F34.324324324324323
sI4
F33.703703703703702
sI5
F30
sI6
F31.666666666666664
sI7
F30
sI8
F31.538461538461537
sI9
F37.5
sI10
F30.909090909090907
sI11
F36
sI12
F35.555555555555557
sI13
F35
sI14
F45.714285714285715
sI15
F40
sI16
F41.666666666666671
sI17
F33.333333333333329
sI18
F33.333333333333329
sI19
F34
sI20
F38
sssa(dp46
S'subset'
p47
I00
sS'level'
p48
S'behavior'
p49
sS'align'
p50
S'cut'
p51
sS'min_len'
p52
I500
sS'dataset'
p53
S'A'
sS'max_len'
p54
I915
sS'avg_len'
p55
I471
sS'encode'
p56
S'FF'
p57
sS'accuracy'
p58
(dp59
S'poly_svc'
p60
(dp61
I2
F33.81818181818182
sI3
F34.594594594594597
sI4
F32.222222222222221
sI5
F35
sI6
F29.444444444444446
sI7
F27.333333333333332
sI8
F34.615384615384613
sI9
F33.333333333333329
sI10
F30.909090909090907
sI11
F26
sI12
F32.222222222222221
sI13
F27.500000000000004
sI14
F34.285714285714285
sI15
F35.714285714285715
sI16
F33.333333333333329
sI17
F33.333333333333329
sI18
F33.333333333333329
sI19
F26
sI20
F30
ssS'svc'
p62
(dp63
I2
F26.727272727272727
sI3
F29.45945945945946
sI4
F32.592592592592595
sI5
F28.18181818181818
sI6
F26.666666666666668
sI7
F28.666666666666668
sI8
F30
sI9
F34.166666666666664
sI10
F29.09090909090909
sI11
F30
sI12
F32.222222222222221
sI13
F36.25
sI14
F42.857142857142854
sI15
F38.571428571428577
sI16
F38.333333333333336
sI17
F31.666666666666664
sI18
F41.666666666666671
sI19
F28.000000000000004
sI20
F30
ssS'rbf_svc'
p64
(dp65
I2
F34.545454545454547
sI3
F35.135135135135137
sI4
F33.333333333333329
sI5
F34.545454545454547
sI6
F29.444444444444446
sI7
F29.333333333333332
sI8
F36.153846153846153
sI9
F35
sI10
F31.818181818181817
sI11
F34
sI12
F33.333333333333329
sI13
F30
sI14
F37.142857142857146
sI15
F37.142857142857146
sI16
F36.666666666666664
sI17
F36.666666666666664
sI18
F36.666666666666664
sI19
F30
sI20
F30
ssS'lin_svc'
p66
(dp67
I2
F29.454545454545457
sI3
F34.324324324324323
sI4
F33.703703703703702
sI5
F30
sI6
F31.666666666666664
sI7
F30
sI8
F31.538461538461537
sI9
F37.5
sI10
F30.909090909090907
sI11
F36
sI12
F35.555555555555557
sI13
F35
sI14
F45.714285714285715
sI15
F40
sI16
F41.666666666666671
sI17
F33.333333333333329
sI18
F33.333333333333329
sI19
F34
sI20
F38
sssa(dp68
S'subset'
p69
I00
sS'level'
p70
S'behavior'
p71
sS'align'
p72
S'cut'
p73
sS'min_len'
p74
I500
sS'dataset'
p75
S'A'
sS'max_len'
p76
I915
sS'avg_len'
p77
I471
sS'encode'
p78
S'FF'
p79
sS'accuracy'
p80
(dp81
S'poly_svc'
p82
(dp83
I2
F33.81818181818182
sI3
F34.594594594594597
sI4
F32.222222222222221
sI5
F35
sI6
F29.444444444444446
sI7
F27.333333333333332
sI8
F34.615384615384613
sI9
F33.333333333333329
sI10
F30.909090909090907
sI11
F26
sI12
F32.222222222222221
sI13
F27.500000000000004
sI14
F34.285714285714285
sI15
F35.714285714285715
sI16
F33.333333333333329
sI17
F33.333333333333329
sI18
F33.333333333333329
sI19
F26
sI20
F30
ssS'svc'
p84
(dp85
I2
F26.727272727272727
sI3
F29.45945945945946
sI4
F32.592592592592595
sI5
F28.18181818181818
sI6
F26.666666666666668
sI7
F28.666666666666668
sI8
F30
sI9
F34.166666666666664
sI10
F29.09090909090909
sI11
F30
sI12
F32.222222222222221
sI13
F36.25
sI14
F42.857142857142854
sI15
F38.571428571428577
sI16
F38.333333333333336
sI17
F31.666666666666664
sI18
F41.666666666666671
sI19
F28.000000000000004
sI20
F30
ssS'rbf_svc'
p86
(dp87
I2
F34.545454545454547
sI3
F35.135135135135137
sI4
F33.333333333333329
sI5
F34.545454545454547
sI6
F29.444444444444446
sI7
F29.333333333333332
sI8
F36.153846153846153
sI9
F35
sI10
F31.818181818181817
sI11
F34
sI12
F33.333333333333329
sI13
F30
sI14
F37.142857142857146
sI15
F37.142857142857146
sI16
F36.666666666666664
sI17
F36.666666666666664
sI18
F36.666666666666664
sI19
F30
sI20
F30
ssS'lin_svc'
p88
(dp89
I2
F29.454545454545457
sI3
F34.324324324324323
sI4
F33.703703703703702
sI5
F30
sI6
F31.666666666666664
sI7
F30
sI8
F31.538461538461537
sI9
F37.5
sI10
F30.909090909090907
sI11
F36
sI12
F35.555555555555557
sI13
F35
sI14
F45.714285714285715
sI15
F40
sI16
F41.666666666666671
sI17
F33.333333333333329
sI18
F33.333333333333329
sI19
F34
sI20
F38
sssa(dp90
S'subset'
p91
I00
sS'level'
p92
S'behavior'
p93
sS'align'
p94
S'cut'
p95
sS'min_len'
p96
I500
sS'dataset'
p97
S'A'
sS'max_len'
p98
I915
sS'avg_len'
p99
I471
sS'encode'
p100
S'FF'
p101
sS'accuracy'
p102
(dp103
S'poly_svc'
p104
(dp105
I2
F33.81818181818182
sI3
F34.594594594594597
sI4
F32.222222222222221
sI5
F35
sI6
F29.444444444444446
sI7
F27.333333333333332
sI8
F34.615384615384613
sI9
F33.333333333333329
sI10
F30.909090909090907
sI11
F26
sI12
F32.222222222222221
sI13
F27.500000000000004
sI14
F34.285714285714285
sI15
F35.714285714285715
sI16
F33.333333333333329
sI17
F33.333333333333329
sI18
F33.333333333333329
sI19
F26
sI20
F30
ssS'svc'
p106
(dp107
I2
F26.727272727272727
sI3
F29.45945945945946
sI4
F32.592592592592595
sI5
F28.18181818181818
sI6
F26.666666666666668
sI7
F28.666666666666668
sI8
F30
sI9
F34.166666666666664
sI10
F29.09090909090909
sI11
F30
sI12
F32.222222222222221
sI13
F36.25
sI14
F42.857142857142854
sI15
F38.571428571428577
sI16
F38.333333333333336
sI17
F31.666666666666664
sI18
F41.666666666666671
sI19
F28.000000000000004
sI20
F30
ssS'rbf_svc'
p108
(dp109
I2
F34.545454545454547
sI3
F35.135135135135137
sI4
F33.333333333333329
sI5
F34.545454545454547
sI6
F29.444444444444446
sI7
F29.333333333333332
sI8
F36.153846153846153
sI9
F35
sI10
F31.818181818181817
sI11
F34
sI12
F33.333333333333329
sI13
F30
sI14
F37.142857142857146
sI15
F37.142857142857146
sI16
F36.666666666666664
sI17
F36.666666666666664
sI18
F36.666666666666664
sI19
F30
sI20
F30
ssS'lin_svc'
p110
(dp111
I2
F29.454545454545457
sI3
F34.324324324324323
sI4
F33.703703703703702
sI5
F30
sI6
F31.666666666666664
sI7
F30
sI8
F31.538461538461537
sI9
F37.5
sI10
F30.909090909090907
sI11
F36
sI12
F35.555555555555557
sI13
F35
sI14
F45.714285714285715
sI15
F40
sI16
F41.666666666666671
sI17
F33.333333333333329
sI18
F33.333333333333329
sI19
F34
sI20
F38
sssa(dp112
S'subset'
p113
I00
sS'level'
p114
S'behavior'
p115
sS'align'
p116
S'cut'
p117
sS'min_len'
p118
I500
sS'dataset'
p119
S'A'
sS'max_len'
p120
I915
sS'avg_len'
p121
I471
sS'encode'
p122
S'FF'
p123
sS'accuracy'
p124
(dp125
S'poly_svc'
p126
(dp127
I2
F33.81818181818182
sI3
F34.594594594594597
sI4
F32.222222222222221
sI5
F35
sI6
F29.444444444444446
sI7
F27.333333333333332
sI8
F34.615384615384613
sI9
F33.333333333333329
sI10
F30.909090909090907
sI11
F26
sI12
F32.222222222222221
sI13
F27.500000000000004
sI14
F34.285714285714285
sI15
F35.714285714285715
sI16
F33.333333333333329
sI17
F33.333333333333329
sI18
F33.333333333333329
sI19
F26
sI20
F30
ssS'svc'
p128
(dp129
I2
F26.727272727272727
sI3
F29.45945945945946
sI4
F32.592592592592595
sI5
F28.18181818181818
sI6
F26.666666666666668
sI7
F28.666666666666668
sI8
F30
sI9
F34.166666666666664
sI10
F29.09090909090909
sI11
F30
sI12
F32.222222222222221
sI13
F36.25
sI14
F42.857142857142854
sI15
F38.571428571428577
sI16
F38.333333333333336
sI17
F31.666666666666664
sI18
F41.666666666666671
sI19
F28.000000000000004
sI20
F30
ssS'rbf_svc'
p130
(dp131
I2
F34.545454545454547
sI3
F35.135135135135137
sI4
F33.333333333333329
sI5
F34.545454545454547
sI6
F29.444444444444446
sI7
F29.333333333333332
sI8
F36.153846153846153
sI9
F35
sI10
F31.818181818181817
sI11
F34
sI12
F33.333333333333329
sI13
F30
sI14
F37.142857142857146
sI15
F37.142857142857146
sI16
F36.666666666666664
sI17
F36.666666666666664
sI18
F36.666666666666664
sI19
F30
sI20
F30
ssS'lin_svc'
p132
(dp133
I2
F29.454545454545457
sI3
F34.324324324324323
sI4
F33.703703703703702
sI5
F30
sI6
F31.666666666666664
sI7
F30
sI8
F31.538461538461537
sI9
F37.5
sI10
F30.909090909090907
sI11
F36
sI12
F35.555555555555557
sI13
F35
sI14
F45.714285714285715
sI15
F40
sI16
F41.666666666666671
sI17
F33.333333333333329
sI18
F33.333333333333329
sI19
F34
sI20
F38
sssa.