(dp1
S'subset'
p2
I00
sS'max_len'
p3
I1995
sS'avg_len'
p4
I1245
sS'accuracy'
p5
(dp6
S'poly_svc'
p7
(dp8
I2
F77.473684210526315
sI3
F78.412698412698418
sI4
F77.446808510638306
sI5
F77.368421052631575
sI6
F76.129032258064512
sI7
F73.333333333333329
sI8
F79.565217391304344
sI9
F76.19047619047619
sI10
F72.631578947368425
sI11
F80
sI12
F82
sI13
F80
sI14
F80.769230769230774
sI15
F75
sI16
F80
sI17
F78.181818181818187
sI18
F80
sI19
F70
sI20
F74.444444444444443
ssS'svc'
p9
(dp10
I2
F76.105263157894726
sI3
F73.492063492063494
sI4
F76.382978723404264
sI5
F75.26315789473685
sI6
F75.806451612903231
sI7
F71.111111111111114
sI8
F79.130434782608688
sI9
F76.19047619047619
sI10
F74.210526315789465
sI11
F81.17647058823529
sI12
F80
sI13
F80
sI14
F80
sI15
F75
sI16
F84.545454545454547
sI17
F80
sI18
F79
sI19
F72
sI20
F73.333333333333329
ssS'rbf_svc'
p11
(dp12
I2
F80.631578947368425
sI3
F81.428571428571431
sI4
F80.212765957446805
sI5
F81.315789473684205
sI6
F77.741935483870975
sI7
F76.666666666666671
sI8
F80.869565217391298
sI9
F76.666666666666671
sI10
F77.89473684210526
sI11
F81.764705882352942
sI12
F82
sI13
F83.571428571428569
sI14
F83.846153846153854
sI15
F79.166666666666657
sI16
F83.636363636363626
sI17
F87.272727272727266
sI18
F81
sI19
F73
sI20
F75.555555555555557
ssS'lin_svc'
p13
(dp14
I2
F75.89473684210526
sI3
F72.38095238095238
sI4
F75.106382978723403
sI5
F75
sI6
F73.225806451612911
sI7
F72.222222222222214
sI8
F76.521739130434781
sI9
F73.333333333333329
sI10
F73.15789473684211
sI11
F77.058823529411768
sI12
F79.333333333333329
sI13
F81.428571428571431
sI14
F78.461538461538467
sI15
F75.833333333333329
sI16
F81.818181818181827
sI17
F70.909090909090907
sI18
F79
sI19
F67
sI20
F74.444444444444443
sssS'level'
p15
S'task'
p16
sS'encode'
p17
S'AFF'
p18
sS'align'
p19
S'interp'
p20
sS'min_len'
p21
I860
sS'dataset'
p22
S'B'
s.