(dp1
S'subset'
p2
I00
sS'max_len'
p3
I1995
sS'avg_len'
p4
I620
sS'accuracy'
p5
(dp6
S'poly_svc'
p7
(dp8
I2
F79.473684210526315
sI3
F80.078740157480311
sI4
F80.526315789473685
sI5
F81.973684210526315
sI6
F81.428571428571431
sI7
F79.259259259259267
sI8
F81.276595744680847
sI9
F79.285714285714278
sI10
F82.10526315789474
sI11
F79.411764705882348
sI12
F81.612903225806448
sI13
F82.068965517241381
sI14
F81.481481481481481
sI15
F80
sI16
F81.304347826086953
sI17
F79.545454545454547
sI18
F82.38095238095238
sI19
F85.5
sI20
F84.210526315789465
ssS'svc'
p9
(dp10
I2
F75.31578947368422
sI3
F75.354330708661422
sI4
F75.26315789473685
sI5
F75.657894736842096
sI6
F76.825396825396837
sI7
F75.555555555555557
sI8
F77.021276595744681
sI9
F76.666666666666671
sI10
F77.368421052631575
sI11
F75.882352941176464
sI12
F77.096774193548384
sI13
F79.310344827586206
sI14
F77.037037037037038
sI15
F76.799999999999997
sI16
F76.08695652173914
sI17
F75.454545454545453
sI18
F77.61904761904762
sI19
F80.5
sI20
F73.68421052631578
ssS'rbf_svc'
p11
(dp12
I2
F45.10526315789474
sI3
F47.086614173228348
sI4
F47.684210526315788
sI5
F47.10526315789474
sI6
F46.666666666666664
sI7
F48.888888888888886
sI8
F49.574468085106382
sI9
F45.952380952380949
sI10
F48.157894736842103
sI11
F50
sI12
F49.032258064516128
sI13
F53.448275862068961
sI14
F47.407407407407412
sI15
F45.200000000000003
sI16
F45.652173913043477
sI17
F46.81818181818182
sI18
F45.714285714285715
sI19
F52
sI20
F43.684210526315795
ssS'lin_svc'
p13
(dp14
I2
F72
sI3
F73.228346456692918
sI4
F74.210526315789465
sI5
F70.263157894736835
sI6
F73.492063492063494
sI7
F72.962962962962962
sI8
F74.468085106382972
sI9
F73.80952380952381
sI10
F73.94736842105263
sI11
F74.117647058823536
sI12
F72.58064516129032
sI13
F76.896551724137936
sI14
F75.18518518518519
sI15
F77.200000000000003
sI16
F69.565217391304344
sI17
F67.72727272727272
sI18
F76.19047619047619
sI19
F71.5
sI20
F73.15789473684211
sssS'level'
p15
S'behavior'
p16
sS'encode'
p17
S'AFF'
p18
sS'align'
p19
S'extend'
p20
sS'min_len'
p21
I500
sS'dataset'
p22
S'B'
s.