(lp1
(dp2
S'subset'
p3
I00
sS'max_len'
p4
I915
sS'avg_len'
p5
I471
sS'accuracy'
p6
(dp7
S'poly_svc'
p8
(dp9
I2
F35.63636363636364
sI3
F32.972972972972975
sI4
F31.481481481481481
sI5
F33.636363636363633
sI6
F30
sI7
F31.333333333333336
sI8
F26.923076923076923
sI9
F35.833333333333336
sI10
F26.36363636363636
sI11
F31
sI12
F33.333333333333329
sI13
F33.75
sI14
F40
sI15
F18.571428571428573
sI16
F25
sI17
F31.666666666666664
sI18
F31.666666666666664
sI19
F36
sI20
F30
ssS'svc'
p10
(dp11
I2
F34.36363636363636
sI3
F30.810810810810814
sI4
F36.296296296296298
sI5
F35.454545454545453
sI6
F35.555555555555557
sI7
F37.333333333333336
sI8
F30
sI9
F40.833333333333336
sI10
F24.545454545454547
sI11
F40
sI12
F38.888888888888893
sI13
F36.25
sI14
F48.571428571428569
sI15
F24.285714285714285
sI16
F31.666666666666664
sI17
F43.333333333333336
sI18
F31.666666666666664
sI19
F40
sI20
F36
ssS'rbf_svc'
p12
(dp13
I2
F17.272727272727273
sI3
F15.945945945945947
sI4
F15.555555555555555
sI5
F15
sI6
F12.222222222222221
sI7
F10
sI8
F12.307692307692308
sI9
F12.5
sI10
F13.636363636363635
sI11
F12
sI12
F14.444444444444443
sI13
F13.750000000000002
sI14
F27.142857142857142
sI15
F4.2857142857142856
sI16
F13.333333333333334
sI17
F11.666666666666666
sI18
F15
sI19
F20
sI20
F10
ssS'lin_svc'
p14
(dp15
I2
F44.727272727272727
sI3
F40
sI4
F41.481481481481481
sI5
F46.81818181818182
sI6
F45.555555555555557
sI7
F46.666666666666664
sI8
F35.384615384615387
sI9
F50
sI10
F35.454545454545453
sI11
F48
sI12
F42.222222222222221
sI13
F43.75
sI14
F50
sI15
F42.857142857142854
sI16
F45
sI17
F41.666666666666671
sI18
F33.333333333333329
sI19
F48
sI20
F38
sssS'level'
p16
S'behavior'
p17
sS'encode'
p18
S'FF'
p19
sS'align'
p20
S'extend'
p21
sS'min_len'
p22
I500
sS'dataset'
p23
S'A'
sa(dp24
g3
I00
sg4
I1995
sg5
I620
sg6
(dp25
S'poly_svc'
p26
(dp27
I2
F80.631578947368425
sI3
F78.897637795275585
sI4
F78.84210526315789
sI5
F80.921052631578945
sI6
F81.904761904761898
sI7
F81.481481481481481
sI8
F81.489361702127667
sI9
F80.952380952380949
sI10
F81.578947368421055
sI11
F81.17647058823529
sI12
F80.967741935483872
sI13
F81.379310344827587
sI14
F83.333333333333343
sI15
F83.200000000000003
sI16
F81.304347826086953
sI17
F83.181818181818173
sI18
F75.714285714285708
sI19
F75
sI20
F84.210526315789465
ssS'svc'
p28
(dp29
I2
F72.73684210526315
sI3
F74.409448818897644
sI4
F72.94736842105263
sI5
F75.526315789473685
sI6
F76.031746031746025
sI7
F76.111111111111114
sI8
F75.531914893617028
sI9
F76.666666666666671
sI10
F76.31578947368422
sI11
F77.352941176470594
sI12
F77.741935483870975
sI13
F77.931034482758619
sI14
F76.666666666666671
sI15
F80
sI16
F79.565217391304344
sI17
F80
sI18
F73.80952380952381
sI19
F71.5
sI20
F76.84210526315789
ssS'rbf_svc'
p30
(dp31
I2
F45.210526315789473
sI3
F45.590551181102363
sI4
F46.421052631578945
sI5
F46.315789473684212
sI6
F47.142857142857139
sI7
F47.962962962962962
sI8
F49.148936170212764
sI9
F49.761904761904759
sI10
F47.368421052631575
sI11
F47.352941176470587
sI12
F46.451612903225808
sI13
F43.793103448275858
sI14
F48.148148148148145
sI15
F45.600000000000001
sI16
F46.086956521739133
sI17
F45
sI18
F44.285714285714285
sI19
F46
sI20
F50
ssS'lin_svc'
p32
(dp33
I2
F73.631578947368425
sI3
F74.803149606299215
sI4
F74.10526315789474
sI5
F75.39473684210526
sI6
F77.777777777777786
sI7
F75.555555555555557
sI8
F77.021276595744681
sI9
F76.904761904761912
sI10
F77.368421052631575
sI11
F77.941176470588232
sI12
F79.032258064516128
sI13
F79.65517241379311
sI14
F77.407407407407405
sI15
F78.799999999999997
sI16
F77.391304347826079
sI17
F80.454545454545453
sI18
F74.761904761904759
sI19
F71.5
sI20
F78.421052631578945
sssg16
g17
sg18
g19
sg20
g21
sg22
I500
sg23
S'B'
sa(dp34
g3
I00
sg4
I14446
sg5
I2162
sg6
(dp35
S'poly_svc'
p36
(dp37
I2
F22.352941176470591
sI3
F22.352941176470591
sI4
F23.200000000000003
sI5
F18
sI6
F21.176470588235293
sI7
F15.714285714285714
sI8
F20.833333333333336
sI9
F12.727272727272727
sI10
F19
sI11
F16.666666666666664
sI12
F15
sI13
F15.714285714285714
sI14
F14.285714285714285
sI15
F11.666666666666666
sI16
F10
sI17
F16.666666666666664
sI18
F18
sI19
F20
sI20
F12
ssS'svc'
p38
(dp39
I2
F78.235294117647058
sI3
F81.17647058823529
sI4
F85.200000000000003
sI5
F82.5
sI6
F85.882352941176464
sI7
F82.142857142857139
sI8
F85
sI9
F88.181818181818187
sI10
F85
sI11
F87.777777777777771
sI12
F85
sI13
F90
sI14
F77.142857142857153
sI15
F91.666666666666657
sI16
F93.333333333333329
sI17
F85
sI18
F86
sI19
F82
sI20
F88
ssS'rbf_svc'
p40
(dp41
I2
F23.137254901960784
sI3
F26.176470588235297
sI4
F26
sI5
F20.5
sI6
F26.47058823529412
sI7
F19.285714285714288
sI8
F25.833333333333336
sI9
F14.545454545454545
sI10
F25
sI11
F23.333333333333332
sI12
F21.25
sI13
F17.142857142857142
sI14
F15.714285714285714
sI15
F20
sI16
F15
sI17
F18.333333333333332
sI18
F14.000000000000002
sI19
F22
sI20
F12
ssS'lin_svc'
p42
(dp43
I2
F77.450980392156865
sI3
F77.941176470588232
sI4
F83.200000000000003
sI5
F81
sI6
F79.411764705882348
sI7
F80.714285714285722
sI8
F82.5
sI9
F83.636363636363626
sI10
F79
sI11
F76.666666666666671
sI12
F83.75
sI13
F80
sI14
F71.428571428571431
sI15
F83.333333333333343
sI16
F90
sI17
F83.333333333333343
sI18
F82
sI19
F82
sI20
F88
sssg16
g17
sg18
g19
sg20
g21
sg22
I500
sg23
S'C'
sa(dp44
g3
I00
sg4
I14446
sg5
I1285
sg6
(dp45
S'poly_svc'
p46
(dp47
I2
F16.542056074766357
sI3
F17.464788732394364
sI4
F18.679245283018865
sI5
F19.523809523809526
sI6
F17.142857142857142
sI7
F17.666666666666668
sI8
F16.923076923076923
sI9
F20
sI10
F17.142857142857142
sI11
F15.263157894736842
sI12
F16.470588235294116
sI13
F16.875
sI14
F12
sI15
F14.285714285714285
sI16
F22.30769230769231
sI17
F12.5
sI18
F15.454545454545453
sI19
F10
sI20
F15
ssS'svc'
p48
(dp49
I2
F49.158878504672899
sI3
F55.633802816901415
sI4
F58.301886792452827
sI5
F57.142857142857139
sI6
F55.142857142857139
sI7
F61.333333333333329
sI8
F60.38461538461538
sI9
F57.391304347826086
sI10
F62.857142857142854
sI11
F64.21052631578948
sI12
F57.647058823529406
sI13
F53.75
sI14
F58.666666666666664
sI15
F59.285714285714285
sI16
F64.615384615384613
sI17
F51.666666666666671
sI18
F63.636363636363633
sI19
F58.18181818181818
sI20
F59
ssS'rbf_svc'
p50
(dp51
I2
F12.429906542056075
sI3
F13.661971830985916
sI4
F12.452830188679245
sI5
F14.285714285714285
sI6
F14.000000000000002
sI7
F13.666666666666666
sI8
F13.461538461538462
sI9
F9.1304347826086953
sI10
F10
sI11
F8.9473684210526319
sI12
F14.117647058823529
sI13
F10.625
sI14
F10
sI15
F14.285714285714285
sI16
F12.307692307692308
sI17
F9.1666666666666661
sI18
F14.545454545454545
sI19
F9.0909090909090917
sI20
F8
ssS'lin_svc'
p52
(dp53
I2
F51.495327102803735
sI3
F54.7887323943662
sI4
F58.490566037735846
sI5
F55.476190476190482
sI6
F57.428571428571431
sI7
F60.666666666666671
sI8
F57.307692307692307
sI9
F54.782608695652172
sI10
F59.523809523809526
sI11
F64.736842105263165
sI12
F60
sI13
F56.875
sI14
F52.666666666666664
sI15
F57.857142857142861
sI16
F62.307692307692307
sI17
F55.833333333333336
sI18
F59.090909090909093
sI19
F58.18181818181818
sI20
F61
sssg16
g17
sg18
g19
sg20
g21
sg22
I500
sg23
S'AC'
p54
sa(dp55
g3
I00
sg4
I14446
sg5
I948
sg6
(dp56
S'poly_svc'
p57
(dp58
I2
F62.892561983471076
sI3
F64.037267080745337
sI4
F62.809917355371901
sI5
F64.479166666666671
sI6
F64.375
sI7
F62.463768115942031
sI8
F64
sI9
F66.226415094339615
sI10
F62.5
sI11
F62.5
sI12
F64.5
sI13
F63.513513513513509
sI14
F63.823529411764703
sI15
F66.5625
sI16
F64.666666666666657
sI17
F61.428571428571431
sI18
F63.84615384615384
sI19
F65.200000000000003
sI20
F68.333333333333329
ssS'svc'
p59
(dp60
I2
F71.239669421487605
sI3
F70.683229813664596
sI4
F72.56198347107437
sI5
F69.479166666666671
sI6
F71.875
sI7
F73.623188405797109
sI8
F72.5
sI9
F73.962264150943398
sI10
F74.791666666666671
sI11
F70.909090909090907
sI12
F73.5
sI13
F72.702702702702709
sI14
F72.058823529411768
sI15
F71.875
sI16
F73
sI17
F73.214285714285708
sI18
F71.92307692307692
sI19
F70
sI20
F72.083333333333329
ssS'rbf_svc'
p61
(dp62
I2
F36.694214876033058
sI3
F37.018633540372669
sI4
F39.008264462809919
sI5
F37.395833333333336
sI6
F36.375
sI7
F36.666666666666664
sI8
F38.333333333333336
sI9
F40.754716981132077
sI10
F35
sI11
F37.272727272727273
sI12
F34.25
sI13
F37.297297297297298
sI14
F38.529411764705884
sI15
F35.3125
sI16
F42.333333333333336
sI17
F38.571428571428577
sI18
F36.153846153846153
sI19
F35.199999999999996
sI20
F34.583333333333336
ssS'lin_svc'
p63
(dp64
I2
F70.537190082644628
sI3
F71.304347826086953
sI4
F72.396694214876035
sI5
F69.375
sI6
F71.75
sI7
F72.608695652173921
sI8
F72.166666666666671
sI9
F73.396226415094333
sI10
F75.416666666666671
sI11
F69.090909090909093
sI12
F72.75
sI13
F72.972972972972968
sI14
F71.17647058823529
sI15
F73.4375
sI16
F74.666666666666671
sI17
F72.5
sI18
F71.92307692307692
sI19
F70
sI20
F72.916666666666657
sssg16
g17
sg18
g19
sg20
g21
sg22
I500
sg23
S'BC'
p65
sa(dp66
g3
I00
sg4
I14446
sg5
I859
sg6
(dp67
S'poly_svc'
p68
(dp69
I2
F54.343434343434339
sI3
F54.696969696969703
sI4
F53.513513513513509
sI5
F57.142857142857139
sI6
F53.535353535353536
sI7
F54.705882352941181
sI8
F56.216216216216218
sI9
F56.36363636363636
sI10
F55.254237288135585
sI11
F57.037037037037038
sI12
F55.714285714285715
sI13
F54.666666666666664
sI14
F52.61904761904762
sI15
F57.435897435897431
sI16
F57.837837837837839
sI17
F55.142857142857139
sI18
F53.030303030303031
sI19
F49.354838709677416
sI20
F54.137931034482754
ssS'svc'
p70
(dp71
I2
F60.572390572390574
sI3
F63.030303030303024
sI4
F63.445945945945951
sI5
F63.529411764705877
sI6
F62.424242424242429
sI7
F67.058823529411754
sI8
F64.459459459459453
sI9
F63.030303030303024
sI10
F63.389830508474574
sI11
F65.18518518518519
sI12
F65.306122448979593
sI13
F64
sI14
F66.19047619047619
sI15
F66.410256410256409
sI16
F65.945945945945951
sI17
F61.714285714285708
sI18
F58.18181818181818
sI19
F57.096774193548384
sI20
F61.03448275862069
ssS'rbf_svc'
p72
(dp73
I2
F30.235690235690239
sI3
F32.020202020202021
sI4
F32.027027027027025
sI5
F32.941176470588232
sI6
F30.707070707070706
sI7
F32.352941176470587
sI8
F30.675675675675674
sI9
F32.272727272727273
sI10
F30.677966101694913
sI11
F33.888888888888893
sI12
F34.08163265306122
sI13
F32.444444444444443
sI14
F32.61904761904762
sI15
F36.153846153846153
sI16
F32.162162162162161
sI17
F33.142857142857139
sI18
F29.09090909090909
sI19
F27.096774193548391
sI20
F29.310344827586203
ssS'lin_svc'
p74
(dp75
I2
F59.898989898989896
sI3
F61.767676767676768
sI4
F62.972972972972975
sI5
F63.78151260504201
sI6
F62.020202020202021
sI7
F64.941176470588232
sI8
F64.594594594594597
sI9
F62.727272727272734
sI10
F66.271186440677965
sI11
F64.81481481481481
sI12
F63.877551020408163
sI13
F64.222222222222229
sI14
F65.476190476190482
sI15
F66.153846153846146
sI16
F67.837837837837839
sI17
F64
sI18
F58.787878787878789
sI19
F56.451612903225815
sI20
F61.724137931034484
sssg16
g17
sg18
g19
sg20
g21
sg22
I500
sg23
S'ABC'
p76
sa.