(lp1
(dp2
S'subset'
p3
I00
sS'max_len'
p4
I2123
sS'avg_len'
p5
I1736
sS'accuracy'
p6
(dp7
S'poly_svc'
p8
(dp9
I2
F78
sI3
F78
sI4
F77.142857142857153
sI5
F75
sI6
F80
sI7
F70
sI8
F66.666666666666657
sI9
F76.666666666666671
sI10
F70
sI11
F75
sI12
F100
sI13
F80
sI14
F80
sI15
F75
sI16
F70
sI17
F90
sI18
F70
sI19
F80
sI20
F70
ssS'svc'
p10
(dp11
I2
F77.333333333333329
sI3
F79
sI4
F78.571428571428569
sI5
F75
sI6
F80
sI7
F70
sI8
F66.666666666666657
sI9
F76.666666666666671
sI10
F70
sI11
F75
sI12
F100
sI13
F80
sI14
F80
sI15
F75
sI16
F70
sI17
F90
sI18
F70
sI19
F80
sI20
F70
ssS'rbf_svc'
p12
(dp13
I2
F59.333333333333336
sI3
F66
sI4
F54.285714285714285
sI5
F58.333333333333336
sI6
F56.000000000000007
sI7
F60
sI8
F43.333333333333336
sI9
F60
sI10
F53.333333333333336
sI11
F65
sI12
F60
sI13
F45
sI14
F60
sI15
F70
sI16
F60
sI17
F80
sI18
F40
sI19
F70
sI20
F70
ssS'lin_svc'
p14
(dp15
I2
F77.333333333333329
sI3
F79
sI4
F78.571428571428569
sI5
F75
sI6
F80
sI7
F70
sI8
F66.666666666666657
sI9
F76.666666666666671
sI10
F70
sI11
F75
sI12
F100
sI13
F75
sI14
F80
sI15
F75
sI16
F70
sI17
F90
sI18
F70
sI19
F80
sI20
F70
sssS'level'
p16
S'task'
p17
sS'encode'
p18
S'AFF'
p19
sS'align'
p20
S'extend'
p21
sS'min_len'
p22
I1323
sS'dataset'
p23
S'A'
sa(dp24
g3
I00
sg4
I1995
sg5
I1245
sg6
(dp25
S'poly_svc'
p26
(dp27
I2
F81.368421052631575
sI3
F80.952380952380949
sI4
F80.425531914893625
sI5
F79.473684210526315
sI6
F81.290322580645153
sI7
F81.851851851851848
sI8
F83.043478260869563
sI9
F82.38095238095238
sI10
F86.842105263157904
sI11
F82.35294117647058
sI12
F84
sI13
F81.428571428571431
sI14
F82.307692307692307
sI15
F83.333333333333343
sI16
F82.727272727272734
sI17
F84.545454545454547
sI18
F84
sI19
F84
sI20
F80
ssS'svc'
p28
(dp29
I2
F82.21052631578948
sI3
F80.317460317460316
sI4
F80
sI5
F80.26315789473685
sI6
F81.935483870967744
sI7
F81.851851851851848
sI8
F82.173913043478265
sI9
F82.857142857142861
sI10
F86.31578947368422
sI11
F82.941176470588246
sI12
F82.666666666666671
sI13
F82.142857142857139
sI14
F82.307692307692307
sI15
F82.5
sI16
F82.727272727272734
sI17
F84.545454545454547
sI18
F84
sI19
F84
sI20
F80
ssS'rbf_svc'
p30
(dp31
I2
F80.421052631578945
sI3
F82.063492063492063
sI4
F81.489361702127667
sI5
F79.473684210526315
sI6
F82.58064516129032
sI7
F80.740740740740748
sI8
F82.608695652173907
sI9
F81.904761904761898
sI10
F83.684210526315795
sI11
F82.941176470588246
sI12
F84
sI13
F79.285714285714278
sI14
F82.307692307692307
sI15
F83.333333333333343
sI16
F80
sI17
F82.727272727272734
sI18
F81
sI19
F82
sI20
F82.222222222222214
ssS'lin_svc'
p32
(dp33
I2
F82.21052631578948
sI3
F80.317460317460316
sI4
F78.510638297872333
sI5
F78.421052631578945
sI6
F81.612903225806448
sI7
F82.962962962962962
sI8
F83.478260869565219
sI9
F82.857142857142861
sI10
F87.368421052631589
sI11
F83.529411764705884
sI12
F82.666666666666671
sI13
F81.428571428571431
sI14
F82.307692307692307
sI15
F78.333333333333329
sI16
F78.181818181818187
sI17
F81.818181818181827
sI18
F83
sI19
F80
sI20
F74.444444444444443
sssg16
g17
sg18
g19
sg20
g21
sg22
I860
sg23
S'B'
sa(dp34
g3
I00
sg4
I16799
sg5
I6960
sg6
(dp35
S'poly_svc'
p36
(dp37
I2
F78.125
sI3
F87
sI4
F97.5
sI5
F95
sI6
F90
sI7
F92.5
sI8
F90
sI9
F93.333333333333329
sI10
F96.666666666666671
sI11
F90
sI12
F85
sI13
F95
sI14
F80
sI15
F85
sI16
F75
sI17
F100
sI18
F90
sI19
F90
sI20
F80
ssS'svc'
p38
(dp39
I2
F86.25
sI3
F92
sI4
F97.5
sI5
F95
sI6
F92
sI7
F97.5
sI8
F92.5
sI9
F100
sI10
F96.666666666666671
sI11
F100
sI12
F90
sI13
F95
sI14
F80
sI15
F90
sI16
F90
sI17
F100
sI18
F90
sI19
F90
sI20
F100
ssS'rbf_svc'
p40
(dp41
I2
F78.75
sI3
F77
sI4
F83.75
sI5
F85
sI6
F72
sI7
F82.5
sI8
F77.5
sI9
F80
sI10
F90
sI11
F70
sI12
F80
sI13
F80
sI14
F75
sI15
F65
sI16
F60
sI17
F70
sI18
F80
sI19
F80
sI20
F70
ssS'lin_svc'
p42
(dp43
I2
F86.875
sI3
F91
sI4
F97.5
sI5
F95
sI6
F92
sI7
F97.5
sI8
F92.5
sI9
F100
sI10
F96.666666666666671
sI11
F100
sI12
F90
sI13
F95
sI14
F80
sI15
F90
sI16
F90
sI17
F100
sI18
F90
sI19
F90
sI20
F100
sssg16
g17
sg18
g19
sg20
g21
sg22
I4397
sg23
S'C'
sa(dp44
g3
I00
sg4
I16799
sg5
I4389
sg6
(dp45
S'poly_svc'
p46
(dp47
I2
F77.41935483870968
sI3
F80.952380952380949
sI4
F79.333333333333329
sI5
F80
sI6
F81
sI7
F86.666666666666671
sI8
F75.714285714285708
sI9
F80
sI10
F91.666666666666657
sI11
F66
sI12
F88
sI13
F75
sI14
F72.5
sI15
F72.5
sI16
F83.333333333333343
sI17
F93.333333333333329
sI18
F80
sI19
F83.333333333333343
sI20
F83.333333333333343
ssS'svc'
p48
(dp49
I2
F81.290322580645153
sI3
F84.761904761904759
sI4
F86.666666666666671
sI5
F87.5
sI6
F88
sI7
F88.888888888888886
sI8
F82.857142857142861
sI9
F87.142857142857139
sI10
F93.333333333333329
sI11
F80
sI12
F88
sI13
F82.5
sI14
F77.5
sI15
F80
sI16
F83.333333333333343
sI17
F90
sI18
F80
sI19
F86.666666666666671
sI20
F86.666666666666671
ssS'rbf_svc'
p50
(dp51
I2
F37.096774193548384
sI3
F38.571428571428577
sI4
F38
sI5
F33.333333333333329
sI6
F38
sI7
F37.777777777777779
sI8
F38.571428571428577
sI9
F38.571428571428577
sI10
F41.666666666666671
sI11
F26
sI12
F34
sI13
F30
sI14
F32.5
sI15
F42.5
sI16
F33.333333333333329
sI17
F40
sI18
F36.666666666666664
sI19
F33.333333333333329
sI20
F53.333333333333336
ssS'lin_svc'
p52
(dp53
I2
F83.225806451612911
sI3
F82.857142857142861
sI4
F87.333333333333329
sI5
F87.5
sI6
F88
sI7
F91.111111111111114
sI8
F84.285714285714292
sI9
F85.714285714285708
sI10
F93.333333333333329
sI11
F82
sI12
F88
sI13
F80
sI14
F77.5
sI15
F82.5
sI16
F83.333333333333343
sI17
F90
sI18
F80
sI19
F86.666666666666671
sI20
F86.666666666666671
sssg16
g17
sg18
g19
sg20
g21
sg22
I1323
sg23
S'AC'
p54
sa(dp55
g3
I00
sg4
I16799
sg5
I2068
sg6
(dp56
S'poly_svc'
p57
(dp58
I2
F80.180180180180187
sI3
F82.702702702702709
sI4
F80.72727272727272
sI5
F83.181818181818173
sI6
F85.13513513513513
sI7
F84.516129032258064
sI8
F85.18518518518519
sI9
F79.166666666666657
sI10
F85
sI11
F84
sI12
F87.222222222222229
sI13
F85.882352941176464
sI14
F83.333333333333343
sI15
F82.857142857142861
sI16
F82.307692307692307
sI17
F87.692307692307693
sI18
F78.333333333333329
sI19
F82.727272727272734
sI20
F87.272727272727266
ssS'svc'
p59
(dp60
I2
F81.081081081081081
sI3
F83.918918918918919
sI4
F82.727272727272734
sI5
F83.181818181818173
sI6
F85.13513513513513
sI7
F83.870967741935488
sI8
F84.444444444444443
sI9
F80.416666666666671
sI10
F84.545454545454547
sI11
F83.5
sI12
F88.888888888888886
sI13
F87.058823529411768
sI14
F84
sI15
F85
sI16
F83.07692307692308
sI17
F86.15384615384616
sI18
F78.333333333333329
sI19
F80.909090909090907
sI20
F89.090909090909093
ssS'rbf_svc'
p61
(dp62
I2
F68.918918918918919
sI3
F68.783783783783775
sI4
F68.72727272727272
sI5
F71.136363636363626
sI6
F72.162162162162161
sI7
F72.903225806451616
sI8
F68.148148148148152
sI9
F65
sI10
F72.27272727272728
sI11
F69
sI12
F73.333333333333329
sI13
F69.411764705882348
sI14
F68
sI15
F65
sI16
F66.92307692307692
sI17
F67.692307692307693
sI18
F69.166666666666671
sI19
F70
sI20
F74.545454545454547
ssS'lin_svc'
p63
(dp64
I2
F80.900900900900893
sI3
F82.972972972972968
sI4
F82.545454545454547
sI5
F83.86363636363636
sI6
F84.594594594594597
sI7
F84.838709677419359
sI8
F83.333333333333343
sI9
F79.166666666666657
sI10
F85.454545454545453
sI11
F83.5
sI12
F87.777777777777771
sI13
F85.294117647058826
sI14
F84.666666666666671
sI15
F84.285714285714292
sI16
F81.538461538461533
sI17
F86.92307692307692
sI18
F77.5
sI19
F80
sI20
F87.272727272727266
sssg16
g17
sg18
g19
sg20
g21
sg22
I860
sg23
S'BC'
p65
sa(dp66
g3
I00
sg4
I16799
sg5
I2028
sg6
(dp67
S'poly_svc'
p68
(dp69
I2
F79.444444444444443
sI3
F80.595238095238102
sI4
F80.793650793650798
sI5
F82.199999999999989
sI6
F81.666666666666671
sI7
F81.944444444444443
sI8
F80
sI9
F81.785714285714278
sI10
F82.799999999999997
sI11
F81.304347826086953
sI12
F77.61904761904762
sI13
F85.263157894736835
sI14
F81.111111111111114
sI15
F76.875
sI16
F82.666666666666671
sI17
F83.571428571428569
sI18
F85.714285714285708
sI19
F83.07692307692308
sI20
F80.833333333333329
ssS'svc'
p70
(dp71
I2
F81.904761904761898
sI3
F80.595238095238102
sI4
F83.174603174603178
sI5
F83.799999999999997
sI6
F83.333333333333343
sI7
F83.333333333333343
sI8
F81.612903225806448
sI9
F82.142857142857139
sI10
F83.599999999999994
sI11
F82.608695652173907
sI12
F78.571428571428569
sI13
F85.78947368421052
sI14
F83.333333333333343
sI15
F81.875
sI16
F86
sI17
F83.571428571428569
sI18
F86.428571428571431
sI19
F83.846153846153854
sI20
F85.833333333333329
ssS'rbf_svc'
p72
(dp73
I2
F60.158730158730158
sI3
F59.642857142857139
sI4
F62.539682539682538
sI5
F59.599999999999994
sI6
F62.142857142857146
sI7
F59.444444444444443
sI8
F58.387096774193544
sI9
F61.071428571428577
sI10
F61.199999999999996
sI11
F63.913043478260867
sI12
F59.047619047619051
sI13
F63.157894736842103
sI14
F62.222222222222221
sI15
F60.624999999999993
sI16
F60
sI17
F64.285714285714292
sI18
F64.285714285714292
sI19
F61.53846153846154
sI20
F61.666666666666671
ssS'lin_svc'
p74
(dp75
I2
F81.19047619047619
sI3
F80.833333333333329
sI4
F82.857142857142861
sI5
F84.799999999999997
sI6
F81.904761904761898
sI7
F84.444444444444443
sI8
F81.290322580645153
sI9
F79.285714285714278
sI10
F82
sI11
F78.695652173913047
sI12
F79.523809523809518
sI13
F87.368421052631589
sI14
F80.555555555555557
sI15
F82.5
sI16
F86
sI17
F83.571428571428569
sI18
F88.571428571428569
sI19
F81.538461538461533
sI20
F85.833333333333329
sssg16
g17
sg18
g19
sg20
g21
sg22
I860
sg23
S'ABC'
p76
sa.