(dp1
S'subset'
p2
I00
sS'max_len'
p3
I14446
sS'avg_len'
p4
I948
sS'accuracy'
p5
(dp6
S'poly_svc'
p7
(dp8
I2
F58.884297520661157
sI3
F60.745341614906835
sI4
F64.132231404958674
sI5
F60.520833333333336
sI6
F62.125
sI7
F60.579710144927532
sI8
F61.5
sI9
F64.15094339622641
sI10
F65.208333333333329
sI11
F64.090909090909093
sI12
F63.5
sI13
F62.702702702702709
sI14
F68.235294117647058
sI15
F64.0625
sI16
F69.666666666666671
sI17
F61.785714285714292
sI18
F63.076923076923073
sI19
F67.200000000000003
sI20
F63.333333333333329
ssS'svc'
p9
(dp10
I2
F61.983471074380169
sI3
F58.571428571428577
sI4
F63.966942148760332
sI5
F62.916666666666664
sI6
F63.749999999999993
sI7
F61.884057971014492
sI8
F61.5
sI9
F62.830188679245282
sI10
F66.875
sI11
F64.545454545454547
sI12
F61.250000000000007
sI13
F63.78378378378379
sI14
F66.17647058823529
sI15
F64.0625
sI16
F60.666666666666671
sI17
F66.428571428571431
sI18
F62.692307692307693
sI19
F68
sI20
F61.250000000000007
ssS'rbf_svc'
p11
(dp12
I2
F36.859504132231407
sI3
F37.204968944099384
sI4
F39.504132231404959
sI5
F38.75
sI6
F37.875
sI7
F35.797101449275367
sI8
F33.333333333333329
sI9
F37.924528301886795
sI10
F39.166666666666664
sI11
F39.090909090909093
sI12
F36.25
sI13
F36.486486486486484
sI14
F36.470588235294116
sI15
F38.4375
sI16
F38.333333333333336
sI17
F37.857142857142854
sI18
F35.769230769230766
sI19
F38.399999999999999
sI20
F35
ssS'lin_svc'
p13
(dp14
I2
F41.776859504132233
sI3
F39.627329192546583
sI4
F41.900826446280995
sI5
F43.958333333333336
sI6
F47.5
sI7
F43.623188405797102
sI8
F46.833333333333336
sI9
F45.660377358490564
sI10
F51.249999999999993
sI11
F47.045454545454547
sI12
F45
sI13
F47.567567567567572
sI14
F45.588235294117645
sI15
F41.5625
sI16
F45.666666666666664
sI17
F47.5
sI18
F47.307692307692307
sI19
F51.200000000000003
sI20
F44.166666666666664
sssS'level'
p15
S'behavior'
p16
sS'encode'
p17
S'AFF'
p18
sS'align'
p19
S'interp'
p20
sS'min_len'
p21
I500
sS'dataset'
p22
S'BC'
p23
s.