(dp1
S'subset'
p2
I00
sS'max_len'
p3
I14446
sS'avg_len'
p4
I948
sS'accuracy'
p5
(dp6
S'poly_svc'
p7
(dp8
I2
F52.47933884297521
sI3
F54.534161490683232
sI4
F56.694214876033058
sI5
F56.041666666666664
sI6
F56.999999999999993
sI7
F55.217391304347828
sI8
F55.000000000000007
sI9
F55.849056603773583
sI10
F54.374999999999993
sI11
F60
sI12
F54.75
sI13
F50
sI14
F55.294117647058826
sI15
F55.000000000000007
sI16
F57.666666666666664
sI17
F57.857142857142861
sI18
F53.846153846153847
sI19
F56.799999999999997
sI20
F60.833333333333329
ssS'svc'
p9
(dp10
I2
F68.84297520661157
sI3
F69.627329192546583
sI4
F72.066115702479337
sI5
F71.5625
sI6
F75.375
sI7
F71.884057971014499
sI8
F72.333333333333343
sI9
F69.811320754716974
sI10
F67.916666666666671
sI11
F71.818181818181813
sI12
F71.75
sI13
F70
sI14
F71.764705882352942
sI15
F72.8125
sI16
F72.666666666666671
sI17
F78.571428571428569
sI18
F67.692307692307693
sI19
F75.200000000000003
sI20
F70.416666666666671
ssS'rbf_svc'
p11
(dp12
I2
F39.752066115702476
sI3
F43.167701863354033
sI4
F43.471074380165284
sI5
F42.916666666666664
sI6
F46.875
sI7
F44.05797101449275
sI8
F45.333333333333329
sI9
F43.018867924528301
sI10
F42.916666666666664
sI11
F45
sI12
F46
sI13
F41.891891891891895
sI14
F48.529411764705884
sI15
F46.875
sI16
F48.333333333333336
sI17
F46.428571428571431
sI18
F40.769230769230766
sI19
F48.799999999999997
sI20
F41.666666666666671
ssS'lin_svc'
p13
(dp14
I2
F61.157024793388423
sI3
F63.664596273291927
sI4
F64.214876033057848
sI5
F64.0625
sI6
F66
sI7
F63.04347826086957
sI8
F63.333333333333329
sI9
F64.528301886792448
sI10
F63.125
sI11
F67.045454545454547
sI12
F64.5
sI13
F61.351351351351347
sI14
F63.235294117647058
sI15
F65.9375
sI16
F64.333333333333329
sI17
F64.642857142857153
sI18
F59.615384615384613
sI19
F67.600000000000009
sI20
F67.083333333333329
sssS'level'
p15
S'behavior'
p16
sS'encode'
p17
S'FF'
p18
sS'align'
p19
S'interp'
p20
sS'min_len'
p21
I500
sS'dataset'
p22
S'BC'
p23
s.