(dp1
S'subset'
p2
I00
sS'max_len'
p3
I915
sS'avg_len'
p4
I471
sS'accuracy'
p5
(dp6
S'poly_svc'
p7
(dp8
I2
F48.545454545454547
sI3
F47.027027027027032
sI4
F48.888888888888886
sI5
F45.909090909090914
sI6
F50.555555555555557
sI7
F50
sI8
F46.153846153846153
sI9
F57.499999999999993
sI10
F50
sI11
F56.999999999999993
sI12
F54.444444444444443
sI13
F48.75
sI14
F52.857142857142861
sI15
F50
sI16
F55.000000000000007
sI17
F55.000000000000007
sI18
F48.333333333333336
sI19
F42
sI20
F50
ssS'svc'
p9
(dp10
I2
F36.909090909090907
sI3
F38.108108108108105
sI4
F42.592592592592595
sI5
F37.727272727272727
sI6
F41.666666666666671
sI7
F36.666666666666664
sI8
F40.769230769230766
sI9
F44.166666666666664
sI10
F42.727272727272727
sI11
F46
sI12
F45.555555555555557
sI13
F36.25
sI14
F42.857142857142854
sI15
F38.571428571428577
sI16
F50
sI17
F46.666666666666664
sI18
F36.666666666666664
sI19
F48
sI20
F44
ssS'rbf_svc'
p11
(dp12
I2
F34.727272727272727
sI3
F38.378378378378379
sI4
F33.333333333333329
sI5
F34.545454545454547
sI6
F33.888888888888893
sI7
F31.333333333333336
sI8
F32.307692307692307
sI9
F33.333333333333329
sI10
F31.818181818181817
sI11
F30
sI12
F31.111111111111111
sI13
F23.75
sI14
F28.571428571428569
sI15
F28.571428571428569
sI16
F33.333333333333329
sI17
F33.333333333333329
sI18
F28.333333333333332
sI19
F26
sI20
F36
ssS'lin_svc'
p13
(dp14
I2
F28.000000000000004
sI3
F21.351351351351351
sI4
F30.37037037037037
sI5
F22.272727272727273
sI6
F32.777777777777779
sI7
F26.666666666666668
sI8
F26.923076923076923
sI9
F33.333333333333329
sI10
F30
sI11
F33
sI12
F33.333333333333329
sI13
F37.5
sI14
F34.285714285714285
sI15
F37.142857142857146
sI16
F38.333333333333336
sI17
F35
sI18
F25
sI19
F50
sI20
F40
sssS'level'
p15
S'behavior'
p16
sS'encode'
p17
S'AFF'
p18
sS'align'
p19
S'cut'
p20
sS'min_len'
p21
I500
sS'dataset'
p22
S'A'
s.