(dp1
S'subset'
p2
I00
sS'max_len'
p3
I1995
sS'avg_len'
p4
I620
sS'accuracy'
p5
(dp6
S'poly_svc'
p7
(dp8
I2
F79.684210526315795
sI3
F80.314960629921259
sI4
F80.421052631578945
sI5
F80.131578947368425
sI6
F79.682539682539684
sI7
F82.407407407407405
sI8
F81.276595744680847
sI9
F77.142857142857153
sI10
F84.473684210526315
sI11
F81.764705882352942
sI12
F80
sI13
F83.448275862068968
sI14
F77.407407407407405
sI15
F81.200000000000003
sI16
F79.565217391304344
sI17
F78.63636363636364
sI18
F80.952380952380949
sI19
F78.5
sI20
F76.31578947368422
ssS'svc'
p9
(dp10
I2
F76.684210526315795
sI3
F75.433070866141733
sI4
F76.526315789473685
sI5
F76.18421052631578
sI6
F76.031746031746025
sI7
F77.407407407407405
sI8
F77.446808510638306
sI9
F73.80952380952381
sI10
F80.526315789473685
sI11
F79.705882352941188
sI12
F76.451612903225808
sI13
F76.896551724137936
sI14
F73.703703703703709
sI15
F74.400000000000006
sI16
F74.782608695652172
sI17
F74.545454545454547
sI18
F74.761904761904759
sI19
F73.5
sI20
F75.26315789473685
ssS'rbf_svc'
p11
(dp12
I2
F80.21052631578948
sI3
F80.551181102362207
sI4
F80.631578947368425
sI5
F80.65789473684211
sI6
F80.158730158730165
sI7
F82.777777777777771
sI8
F81.702127659574458
sI9
F79.047619047619051
sI10
F83.421052631578945
sI11
F84.411764705882348
sI12
F79.677419354838705
sI13
F83.793103448275858
sI14
F78.518518518518519
sI15
F80
sI16
F80
sI17
F79.090909090909093
sI18
F81.428571428571431
sI19
F80
sI20
F77.89473684210526
ssS'lin_svc'
p13
(dp14
I2
F70.368421052631575
sI3
F72.598425196850386
sI4
F72.526315789473685
sI5
F70.263157894736835
sI6
F68.095238095238102
sI7
F68.333333333333329
sI8
F68.085106382978722
sI9
F65.714285714285708
sI10
F75.526315789473685
sI11
F66.17647058823529
sI12
F75.806451612903231
sI13
F72.068965517241381
sI14
F72.962962962962962
sI15
F68.799999999999997
sI16
F73.91304347826086
sI17
F66.363636363636374
sI18
F69.523809523809518
sI19
F67
sI20
F68.421052631578945
sssS'level'
p15
S'behavior'
p16
sS'encode'
p17
S'AFF'
p18
sS'align'
p19
S'cut'
p20
sS'min_len'
p21
I500
sS'dataset'
p22
S'B'
s.