(dp1
S'subset'
p2
I00
sS'max_len'
p3
I915
sS'avg_len'
p4
I471
sS'accuracy'
p5
(dp6
S'poly_svc'
p7
(dp8
I2
F45.636363636363633
sI3
F50.270270270270267
sI4
F48.888888888888886
sI5
F47.727272727272727
sI6
F51.666666666666671
sI7
F52.666666666666664
sI8
F47.692307692307693
sI9
F49.166666666666664
sI10
F54.54545454545454
sI11
F41
sI12
F50
sI13
F43.75
sI14
F42.857142857142854
sI15
F51.428571428571423
sI16
F46.666666666666664
sI17
F45
sI18
F48.333333333333336
sI19
F62
sI20
F48
ssS'svc'
p9
(dp10
I2
F30.181818181818183
sI3
F34.864864864864863
sI4
F33.703703703703702
sI5
F33.181818181818187
sI6
F35
sI7
F36
sI8
F36.923076923076927
sI9
F35.833333333333336
sI10
F41.818181818181813
sI11
F34
sI12
F41.111111111111107
sI13
F35
sI14
F28.571428571428569
sI15
F44.285714285714285
sI16
F33.333333333333329
sI17
F35
sI18
F35
sI19
F46
sI20
F44
ssS'rbf_svc'
p11
(dp12
I2
F20
sI3
F16.756756756756758
sI4
F17.407407407407408
sI5
F14.09090909090909
sI6
F15
sI7
F18.666666666666668
sI8
F12.307692307692308
sI9
F12.5
sI10
F16.363636363636363
sI11
F10
sI12
F12.222222222222221
sI13
F12.5
sI14
F11.428571428571429
sI15
F14.285714285714285
sI16
F11.666666666666666
sI17
F6.666666666666667
sI18
F5
sI19
F10
sI20
F12
ssS'lin_svc'
p13
(dp14
I2
F33.272727272727273
sI3
F31.621621621621621
sI4
F29.629629629629626
sI5
F34.090909090909086
sI6
F35
sI7
F38.666666666666664
sI8
F34.615384615384613
sI9
F36.666666666666664
sI10
F37.272727272727273
sI11
F37
sI12
F41.111111111111107
sI13
F32.5
sI14
F27.142857142857142
sI15
F44.285714285714285
sI16
F35
sI17
F38.333333333333336
sI18
F31.666666666666664
sI19
F42
sI20
F36
sssS'level'
p15
S'behavior'
p16
sS'encode'
p17
S'AFF'
p18
sS'align'
p19
S'extend'
p20
sS'min_len'
p21
I500
sS'dataset'
p22
S'A'
s.