(lp1
(dp2
S'subset'
p3
I00
sS'max_len'
p4
I2123
sS'avg_len'
p5
I1736
sS'accuracy'
p6
(dp7
S'poly_svc'
p8
(dp9
I2
F71.333333333333343
sI3
F68
sI4
F74.285714285714292
sI5
F75
sI6
F64
sI7
F72.5
sI8
F76.666666666666671
sI9
F70
sI10
F63.333333333333329
sI11
F70
sI12
F65
sI13
F75
sI14
F85
sI15
F75
sI16
F90
sI17
F70
sI18
F70
sI19
F60
sI20
F90
ssS'svc'
p10
(dp11
I2
F72.666666666666671
sI3
F64
sI4
F72.857142857142847
sI5
F73.333333333333329
sI6
F66
sI7
F65
sI8
F76.666666666666671
sI9
F70
sI10
F63.333333333333329
sI11
F70
sI12
F65
sI13
F80
sI14
F85
sI15
F70
sI16
F90
sI17
F70
sI18
F70
sI19
F60
sI20
F90
ssS'rbf_svc'
p12
(dp13
I2
F56.000000000000007
sI3
F51
sI4
F61.428571428571431
sI5
F51.666666666666671
sI6
F50
sI7
F57.499999999999993
sI8
F60
sI9
F60
sI10
F50
sI11
F40
sI12
F60
sI13
F50
sI14
F65
sI15
F55.000000000000007
sI16
F80
sI17
F60
sI18
F70
sI19
F40
sI20
F90
ssS'lin_svc'
p14
(dp15
I2
F72.666666666666671
sI3
F65
sI4
F72.857142857142847
sI5
F73.333333333333329
sI6
F66
sI7
F65
sI8
F76.666666666666671
sI9
F73.333333333333329
sI10
F63.333333333333329
sI11
F70
sI12
F65
sI13
F80
sI14
F85
sI15
F70
sI16
F90
sI17
F70
sI18
F70
sI19
F60
sI20
F90
sssS'level'
p16
S'task'
p17
sS'encode'
p18
S'FF'
p19
sS'align'
p20
S'extend'
p21
sS'min_len'
p22
I1323
sS'dataset'
p23
S'A'
sa(dp24
g3
I00
sg4
I1995
sg5
I1245
sg6
(dp25
S'poly_svc'
p26
(dp27
I2
F79.684210526315795
sI3
F80.476190476190482
sI4
F80.425531914893625
sI5
F77.89473684210526
sI6
F85.806451612903217
sI7
F83.703703703703695
sI8
F83.913043478260875
sI9
F82.857142857142861
sI10
F78.94736842105263
sI11
F83.529411764705884
sI12
F78.666666666666657
sI13
F80.714285714285722
sI14
F86.15384615384616
sI15
F83.333333333333343
sI16
F83.636363636363626
sI17
F84.545454545454547
sI18
F84
sI19
F86
sI20
F82.222222222222214
ssS'svc'
p28
(dp29
I2
F80
sI3
F80.158730158730165
sI4
F79.361702127659569
sI5
F78.421052631578945
sI6
F84.838709677419359
sI7
F84.074074074074076
sI8
F83.913043478260875
sI9
F82.38095238095238
sI10
F79.473684210526315
sI11
F84.705882352941174
sI12
F80
sI13
F81.428571428571431
sI14
F86.15384615384616
sI15
F83.333333333333343
sI16
F84.545454545454547
sI17
F84.545454545454547
sI18
F86
sI19
F86
sI20
F82.222222222222214
ssS'rbf_svc'
p30
(dp31
I2
F81.05263157894737
sI3
F80.793650793650798
sI4
F81.702127659574458
sI5
F77.89473684210526
sI6
F85.483870967741936
sI7
F84.444444444444443
sI8
F82.608695652173907
sI9
F80.476190476190482
sI10
F79.473684210526315
sI11
F82.941176470588246
sI12
F80
sI13
F80.714285714285722
sI14
F86.15384615384616
sI15
F83.333333333333343
sI16
F80
sI17
F83.636363636363626
sI18
F85
sI19
F86
sI20
F80
ssS'lin_svc'
p32
(dp33
I2
F79.15789473684211
sI3
F81.111111111111114
sI4
F78.297872340425528
sI5
F75.789473684210535
sI6
F82.903225806451601
sI7
F84.81481481481481
sI8
F77.391304347826079
sI9
F82.38095238095238
sI10
F77.89473684210526
sI11
F85.882352941176464
sI12
F77.333333333333329
sI13
F75
sI14
F81.538461538461533
sI15
F76.666666666666671
sI16
F83.636363636363626
sI17
F83.636363636363626
sI18
F83
sI19
F86
sI20
F77.777777777777786
sssg16
g17
sg18
g19
sg20
g21
sg22
I860
sg23
S'B'
sa(dp34
g3
I00
sg4
I16799
sg5
I6960
sg6
(dp35
S'poly_svc'
p36
(dp37
I2
F77.5
sI3
F76
sI4
F77.5
sI5
F85
sI6
F72
sI7
F75
sI8
F82.5
sI9
F80
sI10
F83.333333333333343
sI11
F70
sI12
F70
sI13
F80
sI14
F75
sI15
F65
sI16
F80
sI17
F100
sI18
F70
sI19
F100
sI20
F40
ssS'svc'
p38
(dp39
I2
F98.75
sI3
F97
sI4
F97.5
sI5
F100
sI6
F100
sI7
F100
sI8
F100
sI9
F100
sI10
F100
sI11
F100
sI12
F100
sI13
F100
sI14
F100
sI15
F100
sI16
F100
sI17
F100
sI18
F100
sI19
F100
sI20
F100
ssS'rbf_svc'
p40
(dp41
I2
F77.5
sI3
F76
sI4
F77.5
sI5
F85
sI6
F72
sI7
F75
sI8
F82.5
sI9
F80
sI10
F83.333333333333343
sI11
F70
sI12
F70
sI13
F80
sI14
F75
sI15
F65
sI16
F80
sI17
F100
sI18
F70
sI19
F100
sI20
F40
ssS'lin_svc'
p42
(dp43
I2
F100
sI3
F100
sI4
F100
sI5
F100
sI6
F100
sI7
F100
sI8
F100
sI9
F100
sI10
F100
sI11
F100
sI12
F100
sI13
F100
sI14
F100
sI15
F100
sI16
F100
sI17
F100
sI18
F100
sI19
F100
sI20
F100
sssg16
g17
sg18
g19
sg20
g21
sg22
I4397
sg23
S'C'
sa(dp44
g3
I00
sg4
I16799
sg5
I4389
sg6
(dp45
S'poly_svc'
p46
(dp47
I2
F67.41935483870968
sI3
F69.523809523809518
sI4
F69.333333333333343
sI5
F75
sI6
F62
sI7
F67.777777777777786
sI8
F70
sI9
F67.142857142857139
sI10
F73.333333333333329
sI11
F52
sI12
F70
sI13
F70
sI14
F52.5
sI15
F75
sI16
F73.333333333333329
sI17
F63.333333333333329
sI18
F66.666666666666657
sI19
F63.333333333333329
sI20
F80
ssS'svc'
p48
(dp49
I2
F85.161290322580641
sI3
F86.19047619047619
sI4
F86.666666666666671
sI5
F91.666666666666657
sI6
F84
sI7
F82.222222222222214
sI8
F81.428571428571431
sI9
F87.142857142857139
sI10
F88.333333333333329
sI11
F78
sI12
F88
sI13
F85
sI14
F87.5
sI15
F92.5
sI16
F93.333333333333329
sI17
F86.666666666666671
sI18
F86.666666666666671
sI19
F93.333333333333329
sI20
F90
ssS'rbf_svc'
p50
(dp51
I2
F35.806451612903231
sI3
F34.285714285714285
sI4
F40.666666666666664
sI5
F46.666666666666664
sI6
F39
sI7
F46.666666666666664
sI8
F38.571428571428577
sI9
F34.285714285714285
sI10
F50
sI11
F38
sI12
F36
sI13
F42.5
sI14
F30
sI15
F32.5
sI16
F40
sI17
F26.666666666666668
sI18
F30
sI19
F53.333333333333336
sI20
F60
ssS'lin_svc'
p52
(dp53
I2
F86.774193548387103
sI3
F88.095238095238088
sI4
F89.333333333333329
sI5
F92.5
sI6
F85
sI7
F84.444444444444443
sI8
F81.428571428571431
sI9
F88.571428571428569
sI10
F88.333333333333329
sI11
F78
sI12
F88
sI13
F85
sI14
F87.5
sI15
F92.5
sI16
F96.666666666666671
sI17
F86.666666666666671
sI18
F86.666666666666671
sI19
F93.333333333333329
sI20
F90
sssg16
g17
sg18
g19
sg20
g21
sg22
I1323
sg23
S'AC'
p54
sa(dp55
g3
I00
sg4
I16799
sg5
I2068
sg6
(dp56
S'poly_svc'
p57
(dp58
I2
F80.630630630630634
sI3
F83.378378378378386
sI4
F80.909090909090907
sI5
F82.045454545454547
sI6
F79.459459459459453
sI7
F83.225806451612911
sI8
F82.222222222222214
sI9
F80.833333333333329
sI10
F83.636363636363626
sI11
F80.5
sI12
F83.888888888888886
sI13
F80
sI14
F84
sI15
F85.714285714285708
sI16
F82.307692307692307
sI17
F80
sI18
F79.166666666666657
sI19
F79.090909090909093
sI20
F86.36363636363636
ssS'svc'
p59
(dp60
I2
F81.531531531531527
sI3
F83.513513513513516
sI4
F83.818181818181813
sI5
F84.77272727272728
sI6
F82.432432432432435
sI7
F85.161290322580641
sI8
F83.703703703703695
sI9
F80
sI10
F86.36363636363636
sI11
F81.5
sI12
F85
sI13
F84.705882352941174
sI14
F87.333333333333329
sI15
F92.142857142857139
sI16
F83.846153846153854
sI17
F80
sI18
F84.166666666666671
sI19
F82.727272727272734
sI20
F85.454545454545453
ssS'rbf_svc'
p61
(dp62
I2
F70.450450450450447
sI3
F69.189189189189193
sI4
F67.63636363636364
sI5
F70.681818181818173
sI6
F70.270270270270274
sI7
F73.225806451612911
sI8
F71.111111111111114
sI9
F69.583333333333329
sI10
F71.36363636363636
sI11
F71
sI12
F72.222222222222214
sI13
F67.64705882352942
sI14
F75.333333333333329
sI15
F76.428571428571416
sI16
F65.384615384615387
sI17
F70.769230769230774
sI18
F66.666666666666657
sI19
F61.818181818181813
sI20
F72.727272727272734
ssS'lin_svc'
p63
(dp64
I2
F81.351351351351354
sI3
F83.648648648648646
sI4
F85.454545454545453
sI5
F83.409090909090907
sI6
F80
sI7
F83.225806451612911
sI8
F84.444444444444443
sI9
F82.083333333333329
sI10
F85
sI11
F80.5
sI12
F84.444444444444443
sI13
F85.294117647058826
sI14
F86.666666666666671
sI15
F90
sI16
F83.846153846153854
sI17
F76.923076923076934
sI18
F83.333333333333343
sI19
F80
sI20
F79.090909090909093
sssg16
g17
sg18
g19
sg20
g21
sg22
I860
sg23
S'BC'
p65
sa(dp66
g3
I00
sg4
I16799
sg5
I2028
sg6
(dp67
S'poly_svc'
p68
(dp69
I2
F78.253968253968253
sI3
F79.88095238095238
sI4
F79.047619047619051
sI5
F77.400000000000006
sI6
F78.333333333333329
sI7
F78.611111111111114
sI8
F76.774193548387089
sI9
F74.285714285714292
sI10
F78.400000000000006
sI11
F78.260869565217391
sI12
F74.761904761904759
sI13
F73.15789473684211
sI14
F85
sI15
F75.625
sI16
F71.333333333333343
sI17
F83.571428571428569
sI18
F79.285714285714278
sI19
F83.07692307692308
sI20
F82.5
ssS'svc'
p70
(dp71
I2
F81.19047619047619
sI3
F82.023809523809518
sI4
F83.968253968253975
sI5
F81.799999999999997
sI6
F84.285714285714292
sI7
F84.444444444444443
sI8
F81.290322580645153
sI9
F79.285714285714278
sI10
F81.599999999999994
sI11
F82.608695652173907
sI12
F79.047619047619051
sI13
F77.368421052631575
sI14
F85
sI15
F80.625
sI16
F80.666666666666657
sI17
F84.285714285714292
sI18
F85
sI19
F88.461538461538453
sI20
F88.333333333333329
ssS'rbf_svc'
p72
(dp73
I2
F61.031746031746039
sI3
F62.857142857142854
sI4
F61.904761904761905
sI5
F59.399999999999999
sI6
F61.666666666666671
sI7
F61.666666666666671
sI8
F59.032258064516128
sI9
F57.857142857142861
sI10
F64
sI11
F58.695652173913047
sI12
F61.428571428571431
sI13
F56.315789473684205
sI14
F65
sI15
F53.125
sI16
F52
sI17
F67.142857142857139
sI18
F63.571428571428569
sI19
F71.538461538461533
sI20
F62.5
ssS'lin_svc'
p74
(dp75
I2
F82.539682539682531
sI3
F83.095238095238102
sI4
F84.603174603174608
sI5
F80
sI6
F84.047619047619051
sI7
F83.888888888888886
sI8
F80.967741935483872
sI9
F79.642857142857139
sI10
F80.800000000000011
sI11
F82.173913043478265
sI12
F79.047619047619051
sI13
F76.84210526315789
sI14
F85
sI15
F80.625
sI16
F78.666666666666657
sI17
F80.714285714285722
sI18
F81.428571428571431
sI19
F83.07692307692308
sI20
F87.5
sssg16
g17
sg18
g19
sg20
g21
sg22
I860
sg23
S'ABC'
p76
sa.