(dp1
S'subset'
p2
I00
sS'max_len'
p3
I16799
sS'avg_len'
p4
I6960
sS'accuracy'
p5
(dp6
S'poly_svc'
p7
(dp8
I2
F65.625
sI3
F79
sI4
F78.75
sI5
F76.666666666666671
sI6
F82
sI7
F90
sI8
F82.5
sI9
F83.333333333333343
sI10
F83.333333333333343
sI11
F70
sI12
F55.000000000000007
sI13
F80
sI14
F75
sI15
F80
sI16
F65
sI17
F70
sI18
F70
sI19
F80
sI20
F90
ssS'svc'
p9
(dp10
I2
F76.25
sI3
F78
sI4
F78.75
sI5
F76.666666666666671
sI6
F84
sI7
F90
sI8
F82.5
sI9
F83.333333333333343
sI10
F83.333333333333343
sI11
F70
sI12
F55.000000000000007
sI13
F80
sI14
F75
sI15
F80
sI16
F65
sI17
F70
sI18
F70
sI19
F80
sI20
F90
ssS'rbf_svc'
p11
(dp12
I2
F78.75
sI3
F78
sI4
F78.75
sI5
F76.666666666666671
sI6
F84
sI7
F90
sI8
F82.5
sI9
F83.333333333333343
sI10
F83.333333333333343
sI11
F70
sI12
F55.000000000000007
sI13
F80
sI14
F75
sI15
F80
sI16
F65
sI17
F70
sI18
F70
sI19
F80
sI20
F90
ssS'lin_svc'
p13
(dp14
I2
F75.625
sI3
F78
sI4
F78.75
sI5
F76.666666666666671
sI6
F84
sI7
F90
sI8
F82.5
sI9
F83.333333333333343
sI10
F83.333333333333343
sI11
F70
sI12
F55.000000000000007
sI13
F80
sI14
F75
sI15
F80
sI16
F65
sI17
F70
sI18
F70
sI19
F80
sI20
F90
sssS'level'
p15
S'task'
p16
sS'encode'
p17
S'AFF'
p18
sS'align'
p19
S'interp'
p20
sS'min_len'
p21
I4397
sS'dataset'
p22
S'C'
s.