(dp1
S'subset'
p2
I00
sS'max_len'
p3
I14446
sS'avg_len'
p4
I2162
sS'accuracy'
p5
(dp6
S'poly_svc'
p7
(dp8
I2
F24.509803921568626
sI3
F24.705882352941178
sI4
F27.600000000000001
sI5
F31.5
sI6
F35.882352941176471
sI7
F31.428571428571427
sI8
F26.666666666666668
sI9
F26.36363636363636
sI10
F34
sI11
F34.444444444444443
sI12
F35
sI13
F21.428571428571427
sI14
F32.857142857142854
sI15
F36.666666666666664
sI16
F35
sI17
F28.333333333333332
sI18
F32
sI19
F20
sI20
F36
ssS'svc'
p9
(dp10
I2
F45.882352941176471
sI3
F49.705882352941174
sI4
F49.600000000000001
sI5
F52
sI6
F50.588235294117645
sI7
F43.571428571428569
sI8
F54.166666666666664
sI9
F43.636363636363633
sI10
F48
sI11
F55.555555555555557
sI12
F52.5
sI13
F44.285714285714285
sI14
F45.714285714285715
sI15
F53.333333333333336
sI16
F61.666666666666671
sI17
F53.333333333333336
sI18
F44
sI19
F56.000000000000007
sI20
F54
ssS'rbf_svc'
p11
(dp12
I2
F21.176470588235293
sI3
F18.823529411764707
sI4
F20
sI5
F21.5
sI6
F19.411764705882355
sI7
F13.571428571428571
sI8
F9.1666666666666661
sI9
F10
sI10
F15
sI11
F13.333333333333334
sI12
F15
sI13
F11.428571428571429
sI14
F15.714285714285714
sI15
F10
sI16
F10
sI17
F16.666666666666664
sI18
F6
sI19
F12
sI20
F12
ssS'lin_svc'
p13
(dp14
I2
F47.254901960784309
sI3
F48.823529411764703
sI4
F46
sI5
F54.500000000000007
sI6
F48.823529411764703
sI7
F43.571428571428569
sI8
F50.833333333333329
sI9
F44.545454545454547
sI10
F46
sI11
F52.222222222222229
sI12
F56.25
sI13
F44.285714285714285
sI14
F45.714285714285715
sI15
F53.333333333333336
sI16
F63.333333333333329
sI17
F51.666666666666671
sI18
F42
sI19
F52
sI20
F52
sssS'level'
p15
S'behavior'
p16
sS'encode'
p17
S'AFF'
p18
sS'align'
p19
S'extend'
p20
sS'min_len'
p21
I500
sS'dataset'
p22
S'C'
s.