(dp1
S'subset'
p2
I00
sS'max_len'
p3
I16799
sS'avg_len'
p4
I2068
sS'accuracy'
p5
(dp6
S'poly_svc'
p7
(dp8
I2
F62.522522522522529
sI3
F69.459459459459467
sI4
F71.27272727272728
sI5
F74.318181818181813
sI6
F71.891891891891888
sI7
F71.935483870967744
sI8
F71.481481481481481
sI9
F77.916666666666671
sI10
F71.36363636363636
sI11
F72.5
sI12
F78.333333333333329
sI13
F72.35294117647058
sI14
F71.333333333333343
sI15
F72.857142857142847
sI16
F75.384615384615387
sI17
F70
sI18
F70.833333333333343
sI19
F75.454545454545453
sI20
F70.909090909090907
ssS'svc'
p9
(dp10
I2
F74.86486486486487
sI3
F79.054054054054063
sI4
F78.72727272727272
sI5
F81.818181818181827
sI6
F77.567567567567565
sI7
F75.161290322580641
sI8
F72.962962962962962
sI9
F80.416666666666671
sI10
F75.454545454545453
sI11
F73.5
sI12
F82.222222222222214
sI13
F74.117647058823536
sI14
F74
sI15
F76.428571428571416
sI16
F80.769230769230774
sI17
F73.846153846153854
sI18
F73.333333333333329
sI19
F81.818181818181827
sI20
F73.636363636363626
ssS'rbf_svc'
p11
(dp12
I2
F70
sI3
F69.054054054054063
sI4
F70.909090909090907
sI5
F69.545454545454547
sI6
F70.540540540540547
sI7
F65.483870967741936
sI8
F65.555555555555557
sI9
F70
sI10
F62.272727272727266
sI11
F67
sI12
F75.555555555555557
sI13
F65.882352941176464
sI14
F70.666666666666671
sI15
F72.142857142857139
sI16
F67.692307692307693
sI17
F67.692307692307693
sI18
F66.666666666666657
sI19
F75.454545454545453
sI20
F61.818181818181813
ssS'lin_svc'
p13
(dp14
I2
F72.972972972972968
sI3
F77.162162162162161
sI4
F76.181818181818187
sI5
F80
sI6
F75.675675675675677
sI7
F75.483870967741936
sI8
F72.962962962962962
sI9
F76.25
sI10
F74.545454545454547
sI11
F72
sI12
F79.444444444444443
sI13
F72.35294117647058
sI14
F74
sI15
F72.142857142857139
sI16
F80.769230769230774
sI17
F76.923076923076934
sI18
F72.5
sI19
F79.090909090909093
sI20
F73.636363636363626
sssS'level'
p15
S'task'
p16
sS'encode'
p17
S'AFF'
p18
sS'align'
p19
S'interp'
p20
sS'min_len'
p21
I860
sS'dataset'
p22
S'BC'
p23
s.