(dp1
S'subset'
p2
I00
sS'max_len'
p3
I14446
sS'avg_len'
p4
I1285
sS'accuracy'
p5
(dp6
S'poly_svc'
p7
(dp8
I2
F26.168224299065418
sI3
F23.802816901408448
sI4
F27.169811320754718
sI5
F28.571428571428569
sI6
F28.857142857142858
sI7
F29.666666666666668
sI8
F28.846153846153843
sI9
F27.826086956521738
sI10
F33.80952380952381
sI11
F30.526315789473685
sI12
F30
sI13
F31.25
sI14
F29.333333333333332
sI15
F34.285714285714285
sI16
F34.615384615384613
sI17
F28.333333333333332
sI18
F30.909090909090907
sI19
F33.636363636363633
sI20
F30
ssS'svc'
p9
(dp10
I2
F32.242990654205606
sI3
F31.690140845070424
sI4
F32.830188679245282
sI5
F36.666666666666664
sI6
F35.714285714285715
sI7
F38.666666666666664
sI8
F42.307692307692307
sI9
F37.826086956521735
sI10
F43.80952380952381
sI11
F44.210526315789473
sI12
F39.411764705882355
sI13
F35
sI14
F35.333333333333336
sI15
F38.571428571428577
sI16
F44.61538461538462
sI17
F41.666666666666671
sI18
F41.818181818181813
sI19
F39.090909090909093
sI20
F39
ssS'rbf_svc'
p11
(dp12
I2
F13.271028037383179
sI3
F11.126760563380282
sI4
F12.075471698113208
sI5
F12.142857142857142
sI6
F12
sI7
F10
sI8
F12.307692307692308
sI9
F10
sI10
F6.1904761904761907
sI11
F12.631578947368421
sI12
F10.588235294117647
sI13
F8.75
sI14
F8.6666666666666679
sI15
F9.2857142857142865
sI16
F9.2307692307692317
sI17
F9.1666666666666661
sI18
F7.2727272727272725
sI19
F6.3636363636363633
sI20
F8
ssS'lin_svc'
p13
(dp14
I2
F23.457943925233646
sI3
F24.225352112676056
sI4
F25.849056603773583
sI5
F28.095238095238095
sI6
F25.142857142857146
sI7
F30.333333333333336
sI8
F28.46153846153846
sI9
F29.130434782608695
sI10
F33.80952380952381
sI11
F27.368421052631582
sI12
F28.235294117647058
sI13
F29.375
sI14
F28.666666666666668
sI15
F26.428571428571431
sI16
F28.46153846153846
sI17
F25.833333333333336
sI18
F26.36363636363636
sI19
F29.09090909090909
sI20
F28.000000000000004
sssS'level'
p15
S'behavior'
p16
sS'encode'
p17
S'AFF'
p18
sS'align'
p19
S'interp'
p20
sS'min_len'
p21
I500
sS'dataset'
p22
S'AC'
p23
s.