(lp1
(dp2
S'subset'
p3
I00
sS'max_len'
p4
I915
sS'avg_len'
p5
I471
sS'accuracy'
p6
(dp7
S'poly_svc'
p8
(dp9
I2
F36.909090909090907
sI3
F35.945945945945944
sI4
F35.185185185185183
sI5
F34.545454545454547
sI6
F32.777777777777779
sI7
F32
sI8
F32.307692307692307
sI9
F36.666666666666664
sI10
F35.454545454545453
sI11
F25
sI12
F33.333333333333329
sI13
F36.25
sI14
F34.285714285714285
sI15
F32.857142857142854
sI16
F40
sI17
F33.333333333333329
sI18
F30
sI19
F32
sI20
F24
ssS'svc'
p10
(dp11
I2
F24.545454545454547
sI3
F25.945945945945947
sI4
F28.518518518518519
sI5
F31.363636363636367
sI6
F30
sI7
F29.333333333333332
sI8
F30
sI9
F29.166666666666668
sI10
F29.09090909090909
sI11
F26
sI12
F23.333333333333332
sI13
F36.25
sI14
F30
sI15
F31.428571428571427
sI16
F30
sI17
F31.666666666666664
sI18
F25
sI19
F24
sI20
F20
ssS'rbf_svc'
p12
(dp13
I2
F20.363636363636363
sI3
F19.72972972972973
sI4
F17.407407407407408
sI5
F16.363636363636363
sI6
F17.777777777777779
sI7
F15.333333333333332
sI8
F16.153846153846153
sI9
F13.333333333333334
sI10
F14.545454545454545
sI11
F15
sI12
F15.555555555555555
sI13
F16.25
sI14
F14.285714285714285
sI15
F17.142857142857142
sI16
F15
sI17
F15
sI18
F10
sI19
F12
sI20
F16
ssS'lin_svc'
p14
(dp15
I2
F31.272727272727273
sI3
F32.702702702702702
sI4
F37.037037037037038
sI5
F40.909090909090914
sI6
F36.111111111111107
sI7
F40
sI8
F43.07692307692308
sI9
F39.166666666666664
sI10
F43.636363636363633
sI11
F39
sI12
F40
sI13
F45
sI14
F35.714285714285715
sI15
F38.571428571428577
sI16
F41.666666666666671
sI17
F40
sI18
F33.333333333333329
sI19
F30
sI20
F36
sssS'level'
p16
S'behavior'
p17
sS'encode'
p18
S'FF'
p19
sS'align'
p20
S'interp'
p21
sS'min_len'
p22
I500
sS'dataset'
p23
S'A'
sa(dp24
g3
I00
sg4
I1995
sg5
I620
sg6
(dp25
S'poly_svc'
p26
(dp27
I2
F70.05263157894737
sI3
F71.889763779527556
sI4
F74.73684210526315
sI5
F73.15789473684211
sI6
F75.555555555555557
sI7
F73.703703703703709
sI8
F74.255319148936167
sI9
F75.714285714285708
sI10
F75.26315789473685
sI11
F75.882352941176464
sI12
F79.677419354838705
sI13
F74.827586206896555
sI14
F75.555555555555557
sI15
F71.200000000000003
sI16
F72.608695652173921
sI17
F73.181818181818187
sI18
F79.047619047619051
sI19
F76
sI20
F82.631578947368425
ssS'svc'
p28
(dp29
I2
F75.473684210526315
sI3
F75.196850393700785
sI4
F77.15789473684211
sI5
F76.578947368421055
sI6
F74.603174603174608
sI7
F74.074074074074076
sI8
F75.531914893617028
sI9
F76.428571428571416
sI10
F75
sI11
F77.64705882352942
sI12
F79.032258064516128
sI13
F76.206896551724128
sI14
F79.259259259259267
sI15
F76
sI16
F78.695652173913047
sI17
F72.27272727272728
sI18
F72.38095238095238
sI19
F74.5
sI20
F82.631578947368425
ssS'rbf_svc'
p30
(dp31
I2
F53.684210526315788
sI3
F52.834645669291334
sI4
F51.789473684210527
sI5
F54.078947368421048
sI6
F52.857142857142861
sI7
F57.407407407407405
sI8
F53.617021276595743
sI9
F55.476190476190482
sI10
F53.94736842105263
sI11
F54.705882352941181
sI12
F58.064516129032263
sI13
F59.310344827586206
sI14
F52.222222222222229
sI15
F58.799999999999997
sI16
F55.217391304347828
sI17
F52.272727272727273
sI18
F51.904761904761912
sI19
F53.5
sI20
F56.84210526315789
ssS'lin_svc'
p32
(dp33
I2
F71.368421052631575
sI3
F72.125984251968504
sI4
F73.473684210526315
sI5
F73.15789473684211
sI6
F72.38095238095238
sI7
F71.296296296296291
sI8
F70.638297872340431
sI9
F75.476190476190482
sI10
F71.578947368421055
sI11
F74.705882352941174
sI12
F75.161290322580641
sI13
F74.137931034482762
sI14
F76.666666666666671
sI15
F75.200000000000003
sI16
F73.043478260869563
sI17
F70.454545454545453
sI18
F71.428571428571431
sI19
F70.5
sI20
F81.05263157894737
sssg16
g17
sg18
g19
sg20
g21
sg22
I500
sg23
S'B'
sa(dp34
g3
I00
sg4
I14446
sg5
I2162
sg6
(dp35
S'poly_svc'
p36
(dp37
I2
F19.607843137254903
sI3
F17.941176470588236
sI4
F20.399999999999999
sI5
F21
sI6
F18.235294117647058
sI7
F17.142857142857142
sI8
F18.333333333333332
sI9
F17.272727272727273
sI10
F16
sI11
F17.777777777777779
sI12
F7.5
sI13
F18.571428571428573
sI14
F14.285714285714285
sI15
F11.666666666666666
sI16
F15
sI17
F13.333333333333334
sI18
F12
sI19
F14.000000000000002
sI20
F8
ssS'svc'
p38
(dp39
I2
F44.901960784313729
sI3
F48.235294117647058
sI4
F64.799999999999997
sI5
F63.5
sI6
F66.470588235294116
sI7
F61.428571428571431
sI8
F60
sI9
F62.727272727272734
sI10
F60
sI11
F63.333333333333329
sI12
F65
sI13
F61.428571428571431
sI14
F60
sI15
F65
sI16
F66.666666666666657
sI17
F78.333333333333329
sI18
F57.999999999999993
sI19
F64
sI20
F62
ssS'rbf_svc'
p40
(dp41
I2
F36.078431372549019
sI3
F32.941176470588232
sI4
F36.399999999999999
sI5
F35
sI6
F37.647058823529413
sI7
F37.857142857142854
sI8
F34.166666666666664
sI9
F36.363636363636367
sI10
F39
sI11
F34.444444444444443
sI12
F31.25
sI13
F38.571428571428577
sI14
F32.857142857142854
sI15
F41.666666666666671
sI16
F33.333333333333329
sI17
F30
sI18
F28.000000000000004
sI19
F28.000000000000004
sI20
F32
ssS'lin_svc'
p42
(dp43
I2
F50.196078431372548
sI3
F51.764705882352949
sI4
F57.599999999999994
sI5
F59
sI6
F60.588235294117645
sI7
F52.857142857142861
sI8
F62.5
sI9
F60
sI10
F56.999999999999993
sI11
F55.555555555555557
sI12
F58.75
sI13
F57.142857142857139
sI14
F67.142857142857139
sI15
F66.666666666666657
sI16
F61.666666666666671
sI17
F73.333333333333329
sI18
F48
sI19
F62
sI20
F56.000000000000007
sssg16
g17
sg18
g19
sg20
g21
sg22
I500
sg23
S'C'
sa(dp44
g3
I00
sg4
I14446
sg5
I1285
sg6
(dp45
S'poly_svc'
p46
(dp47
I2
F19.158878504672895
sI3
F21.830985915492956
sI4
F20.566037735849058
sI5
F20
sI6
F20.571428571428569
sI7
F20
sI8
F21.153846153846153
sI9
F16.521739130434781
sI10
F17.61904761904762
sI11
F15.263157894736842
sI12
F17.647058823529413
sI13
F23.75
sI14
F18
sI15
F15.714285714285714
sI16
F18.461538461538463
sI17
F20.833333333333336
sI18
F14.545454545454545
sI19
F16.363636363636363
sI20
F17
ssS'svc'
p48
(dp49
I2
F34.205607476635514
sI3
F41.267605633802816
sI4
F41.320754716981135
sI5
F41.666666666666671
sI6
F43.428571428571431
sI7
F44.666666666666664
sI8
F41.923076923076927
sI9
F41.739130434782609
sI10
F42.857142857142854
sI11
F46.315789473684212
sI12
F41.764705882352942
sI13
F45
sI14
F49.333333333333336
sI15
F45.714285714285715
sI16
F40.769230769230766
sI17
F45
sI18
F46.36363636363636
sI19
F42.727272727272727
sI20
F50
ssS'rbf_svc'
p50
(dp51
I2
F15.981308411214954
sI3
F20.845070422535212
sI4
F21.69811320754717
sI5
F19.761904761904763
sI6
F20.285714285714285
sI7
F17.666666666666668
sI8
F21.53846153846154
sI9
F20.434782608695652
sI10
F20.952380952380953
sI11
F18.947368421052634
sI12
F19.411764705882355
sI13
F18.75
sI14
F16
sI15
F18.571428571428573
sI16
F13.846153846153847
sI17
F18.333333333333332
sI18
F15.454545454545453
sI19
F18.181818181818183
sI20
F17
ssS'lin_svc'
p52
(dp53
I2
F38.13084112149533
sI3
F43.380281690140841
sI4
F42.641509433962263
sI5
F40.952380952380949
sI6
F46.571428571428569
sI7
F42.666666666666671
sI8
F45.384615384615387
sI9
F45.217391304347828
sI10
F47.142857142857139
sI11
F43.15789473684211
sI12
F41.764705882352942
sI13
F47.5
sI14
F46
sI15
F43.571428571428569
sI16
F40.769230769230766
sI17
F50
sI18
F45.454545454545453
sI19
F41.818181818181813
sI20
F51
sssg16
g17
sg18
g19
sg20
g21
sg22
I500
sg23
S'AC'
p54
sa(dp55
g3
I00
sg4
I14446
sg5
I948
sg6
(dp56
S'poly_svc'
p57
(dp58
I2
F52.47933884297521
sI3
F54.534161490683232
sI4
F56.694214876033058
sI5
F56.041666666666664
sI6
F56.999999999999993
sI7
F55.217391304347828
sI8
F55.000000000000007
sI9
F55.849056603773583
sI10
F54.374999999999993
sI11
F60
sI12
F54.75
sI13
F50
sI14
F55.294117647058826
sI15
F55.000000000000007
sI16
F57.666666666666664
sI17
F57.857142857142861
sI18
F53.846153846153847
sI19
F56.799999999999997
sI20
F60.833333333333329
ssS'svc'
p59
(dp60
I2
F68.84297520661157
sI3
F69.627329192546583
sI4
F72.066115702479337
sI5
F71.5625
sI6
F75.375
sI7
F71.884057971014499
sI8
F72.333333333333343
sI9
F69.811320754716974
sI10
F67.916666666666671
sI11
F71.818181818181813
sI12
F71.75
sI13
F70
sI14
F71.764705882352942
sI15
F72.8125
sI16
F72.666666666666671
sI17
F78.571428571428569
sI18
F67.692307692307693
sI19
F75.200000000000003
sI20
F70.416666666666671
ssS'rbf_svc'
p61
(dp62
I2
F39.752066115702476
sI3
F43.167701863354033
sI4
F43.471074380165284
sI5
F42.916666666666664
sI6
F46.875
sI7
F44.05797101449275
sI8
F45.333333333333329
sI9
F43.018867924528301
sI10
F42.916666666666664
sI11
F45
sI12
F46
sI13
F41.891891891891895
sI14
F48.529411764705884
sI15
F46.875
sI16
F48.333333333333336
sI17
F46.428571428571431
sI18
F40.769230769230766
sI19
F48.799999999999997
sI20
F41.666666666666671
ssS'lin_svc'
p63
(dp64
I2
F61.157024793388423
sI3
F63.664596273291927
sI4
F64.214876033057848
sI5
F64.0625
sI6
F66
sI7
F63.04347826086957
sI8
F63.333333333333329
sI9
F64.528301886792448
sI10
F63.125
sI11
F67.045454545454547
sI12
F64.5
sI13
F61.351351351351347
sI14
F63.235294117647058
sI15
F65.9375
sI16
F64.333333333333329
sI17
F64.642857142857153
sI18
F59.615384615384613
sI19
F67.600000000000009
sI20
F67.083333333333329
sssg16
g17
sg18
g19
sg20
g21
sg22
I500
sg23
S'BC'
p65
sa(dp66
g3
I00
sg4
I14446
sg5
I859
sg6
(dp67
S'poly_svc'
p68
(dp69
I2
F48.484848484848484
sI3
F48.333333333333336
sI4
F49.594594594594597
sI5
F49.747899159663866
sI6
F50.202020202020201
sI7
F50.588235294117645
sI8
F50
sI9
F50.303030303030305
sI10
F48.474576271186443
sI11
F47.407407407407412
sI12
F49.795918367346935
sI13
F47.777777777777779
sI14
F53.571428571428569
sI15
F48.205128205128204
sI16
F50.540540540540533
sI17
F52.285714285714292
sI18
F50.606060606060609
sI19
F48.70967741935484
sI20
F48.620689655172413
ssS'svc'
p70
(dp71
I2
F59.494949494949488
sI3
F59.090909090909093
sI4
F60.472972972972968
sI5
F62.352941176470587
sI6
F61.313131313131308
sI7
F61.647058823529413
sI8
F58.513513513513516
sI9
F61.818181818181813
sI10
F62.711864406779661
sI11
F60.185185185185183
sI12
F60.204081632653065
sI13
F62
sI14
F62.61904761904762
sI15
F58.974358974358978
sI16
F60.540540540540547
sI17
F61.142857142857146
sI18
F64.242424242424249
sI19
F59.354838709677416
sI20
F60
ssS'rbf_svc'
p72
(dp73
I2
F34.175084175084173
sI3
F34.242424242424242
sI4
F36.148648648648653
sI5
F37.647058823529413
sI6
F35.555555555555557
sI7
F36.352941176470587
sI8
F37.972972972972975
sI9
F34.545454545454547
sI10
F37.457627118644069
sI11
F34.25925925925926
sI12
F34.897959183673471
sI13
F35.333333333333336
sI14
F35.476190476190474
sI15
F36.410256410256409
sI16
F38.648648648648646
sI17
F38.285714285714285
sI18
F33.030303030303031
sI19
F34.193548387096776
sI20
F37.586206896551722
ssS'lin_svc'
p74
(dp75
I2
F52.592592592592588
sI3
F53.484848484848477
sI4
F54.864864864864856
sI5
F56.386554621848738
sI6
F54.54545454545454
sI7
F56.588235294117652
sI8
F54.594594594594589
sI9
F55.000000000000007
sI10
F57.627118644067799
sI11
F54.814814814814817
sI12
F52.040816326530617
sI13
F53.777777777777779
sI14
F59.047619047619051
sI15
F55.384615384615387
sI16
F54.594594594594589
sI17
F55.142857142857139
sI18
F58.18181818181818
sI19
F52.258064516129032
sI20
F53.448275862068961
sssg16
g17
sg18
g19
sg20
g21
sg22
I500
sg23
S'ABC'
p76
sa.