(dp1
S'subset'
p2
I00
sS'max_len'
p3
I14446
sS'avg_len'
p4
I2162
sS'accuracy'
p5
(dp6
S'poly_svc'
p7
(dp8
I2
F23.921568627450981
sI3
F22.647058823529413
sI4
F29.199999999999999
sI5
F30.5
sI6
F31.176470588235293
sI7
F25.714285714285712
sI8
F34.166666666666664
sI9
F23.636363636363637
sI10
F34
sI11
F20
sI12
F31.25
sI13
F15.714285714285714
sI14
F35.714285714285715
sI15
F31.666666666666664
sI16
F30
sI17
F35
sI18
F22
sI19
F34
sI20
F28.000000000000004
ssS'svc'
p9
(dp10
I2
F34.901960784313722
sI3
F43.529411764705884
sI4
F45.600000000000001
sI5
F41.5
sI6
F39.411764705882355
sI7
F44.285714285714285
sI8
F45
sI9
F40.909090909090914
sI10
F50
sI11
F47.777777777777779
sI12
F46.25
sI13
F38.571428571428577
sI14
F35.714285714285715
sI15
F48.333333333333336
sI16
F43.333333333333336
sI17
F53.333333333333336
sI18
F42
sI19
F60
sI20
F46
ssS'rbf_svc'
p11
(dp12
I2
F39.803921568627452
sI3
F38.82352941176471
sI4
F37.600000000000001
sI5
F42.5
sI6
F37.647058823529413
sI7
F37.857142857142854
sI8
F34.166666666666664
sI9
F34.545454545454547
sI10
F35
sI11
F34.444444444444443
sI12
F32.5
sI13
F40
sI14
F34.285714285714285
sI15
F25
sI16
F35
sI17
F36.666666666666664
sI18
F28.000000000000004
sI19
F38
sI20
F32
ssS'lin_svc'
p13
(dp14
I2
F37.058823529411768
sI3
F44.117647058823529
sI4
F44.800000000000004
sI5
F41
sI6
F39.411764705882355
sI7
F42.142857142857146
sI8
F46.666666666666664
sI9
F41.818181818181813
sI10
F49
sI11
F48.888888888888886
sI12
F45
sI13
F42.857142857142854
sI14
F44.285714285714285
sI15
F43.333333333333336
sI16
F43.333333333333336
sI17
F56.666666666666664
sI18
F36
sI19
F56.000000000000007
sI20
F52
sssS'level'
p15
S'behavior'
p16
sS'encode'
p17
S'AFF'
p18
sS'align'
p19
S'cut'
p20
sS'min_len'
p21
I500
sS'dataset'
p22
S'C'
s.