(lp1
(dp2
S'subset'
p3
I00
sS'max_len'
p4
I2123
sS'avg_len'
p5
I1736
sS'accuracy'
p6
(dp7
S'poly_svc'
p8
(dp9
I2
F77.333333333333329
sI3
F72
sI4
F72.857142857142847
sI5
F78.333333333333329
sI6
F80
sI7
F72.5
sI8
F76.666666666666671
sI9
F93.333333333333329
sI10
F83.333333333333343
sI11
F65
sI12
F75
sI13
F85
sI14
F80
sI15
F60
sI16
F80
sI17
F90
sI18
F70
sI19
F70
sI20
F60
ssS'svc'
p10
(dp11
I2
F77.333333333333329
sI3
F73
sI4
F72.857142857142847
sI5
F75
sI6
F80
sI7
F75
sI8
F76.666666666666671
sI9
F93.333333333333329
sI10
F83.333333333333343
sI11
F65
sI12
F75
sI13
F85
sI14
F80
sI15
F65
sI16
F70
sI17
F90
sI18
F60
sI19
F70
sI20
F60
ssS'rbf_svc'
p12
(dp13
I2
F60
sI3
F54
sI4
F50
sI5
F60
sI6
F62
sI7
F57.499999999999993
sI8
F56.666666666666664
sI9
F86.666666666666671
sI10
F76.666666666666671
sI11
F60
sI12
F60
sI13
F50
sI14
F45
sI15
F45
sI16
F60
sI17
F80
sI18
F60
sI19
F60
sI20
F40
ssS'lin_svc'
p14
(dp15
I2
F77.333333333333329
sI3
F73
sI4
F72.857142857142847
sI5
F75
sI6
F80
sI7
F75
sI8
F76.666666666666671
sI9
F93.333333333333329
sI10
F83.333333333333343
sI11
F65
sI12
F70
sI13
F85
sI14
F80
sI15
F65
sI16
F70
sI17
F90
sI18
F60
sI19
F70
sI20
F60
sssS'level'
p16
S'task'
p17
sS'encode'
p18
S'AFF'
p19
sS'align'
p20
S'cut'
p21
sS'min_len'
p22
I1323
sS'dataset'
p23
S'A'
sa(dp24
S'subset'
p25
I00
sS'level'
p26
S'task'
p27
sS'align'
p28
S'cut'
p29
sS'min_len'
p30
I1323
sS'dataset'
p31
S'A'
sS'max_len'
p32
I2123
sS'avg_len'
p33
I1736
sS'encode'
p34
S'AFF'
p35
sS'accuracy'
p36
(dp37
S'poly_svc'
p38
(dp39
I2
F77.333333333333329
sI3
F72
sI4
F72.857142857142847
sI5
F78.333333333333329
sI6
F80
sI7
F72.5
sI8
F76.666666666666671
sI9
F93.333333333333329
sI10
F83.333333333333343
sI11
F65
sI12
F75
sI13
F85
sI14
F80
sI15
F60
sI16
F80
sI17
F90
sI18
F70
sI19
F70
sI20
F60
ssS'svc'
p40
(dp41
I2
F77.333333333333329
sI3
F73
sI4
F72.857142857142847
sI5
F75
sI6
F80
sI7
F75
sI8
F76.666666666666671
sI9
F93.333333333333329
sI10
F83.333333333333343
sI11
F65
sI12
F75
sI13
F85
sI14
F80
sI15
F65
sI16
F70
sI17
F90
sI18
F60
sI19
F70
sI20
F60
ssS'rbf_svc'
p42
(dp43
I2
F60
sI3
F54
sI4
F50
sI5
F60
sI6
F62
sI7
F57.499999999999993
sI8
F56.666666666666664
sI9
F86.666666666666671
sI10
F76.666666666666671
sI11
F60
sI12
F60
sI13
F50
sI14
F45
sI15
F45
sI16
F60
sI17
F80
sI18
F60
sI19
F60
sI20
F40
ssS'lin_svc'
p44
(dp45
I2
F77.333333333333329
sI3
F73
sI4
F72.857142857142847
sI5
F75
sI6
F80
sI7
F75
sI8
F76.666666666666671
sI9
F93.333333333333329
sI10
F83.333333333333343
sI11
F65
sI12
F70
sI13
F85
sI14
F80
sI15
F65
sI16
F70
sI17
F90
sI18
F60
sI19
F70
sI20
F60
sssa(dp46
S'subset'
p47
I00
sS'level'
p48
S'task'
p49
sS'align'
p50
S'cut'
p51
sS'min_len'
p52
I1323
sS'dataset'
p53
S'A'
sS'max_len'
p54
I2123
sS'avg_len'
p55
I1736
sS'encode'
p56
S'AFF'
p57
sS'accuracy'
p58
(dp59
S'poly_svc'
p60
(dp61
I2
F77.333333333333329
sI3
F72
sI4
F72.857142857142847
sI5
F78.333333333333329
sI6
F80
sI7
F72.5
sI8
F76.666666666666671
sI9
F93.333333333333329
sI10
F83.333333333333343
sI11
F65
sI12
F75
sI13
F85
sI14
F80
sI15
F60
sI16
F80
sI17
F90
sI18
F70
sI19
F70
sI20
F60
ssS'svc'
p62
(dp63
I2
F77.333333333333329
sI3
F73
sI4
F72.857142857142847
sI5
F75
sI6
F80
sI7
F75
sI8
F76.666666666666671
sI9
F93.333333333333329
sI10
F83.333333333333343
sI11
F65
sI12
F75
sI13
F85
sI14
F80
sI15
F65
sI16
F70
sI17
F90
sI18
F60
sI19
F70
sI20
F60
ssS'rbf_svc'
p64
(dp65
I2
F60
sI3
F54
sI4
F50
sI5
F60
sI6
F62
sI7
F57.499999999999993
sI8
F56.666666666666664
sI9
F86.666666666666671
sI10
F76.666666666666671
sI11
F60
sI12
F60
sI13
F50
sI14
F45
sI15
F45
sI16
F60
sI17
F80
sI18
F60
sI19
F60
sI20
F40
ssS'lin_svc'
p66
(dp67
I2
F77.333333333333329
sI3
F73
sI4
F72.857142857142847
sI5
F75
sI6
F80
sI7
F75
sI8
F76.666666666666671
sI9
F93.333333333333329
sI10
F83.333333333333343
sI11
F65
sI12
F70
sI13
F85
sI14
F80
sI15
F65
sI16
F70
sI17
F90
sI18
F60
sI19
F70
sI20
F60
sssa(dp68
S'subset'
p69
I00
sS'level'
p70
S'task'
p71
sS'align'
p72
S'cut'
p73
sS'min_len'
p74
I1323
sS'dataset'
p75
S'A'
sS'max_len'
p76
I2123
sS'avg_len'
p77
I1736
sS'encode'
p78
S'AFF'
p79
sS'accuracy'
p80
(dp81
S'poly_svc'
p82
(dp83
I2
F77.333333333333329
sI3
F72
sI4
F72.857142857142847
sI5
F78.333333333333329
sI6
F80
sI7
F72.5
sI8
F76.666666666666671
sI9
F93.333333333333329
sI10
F83.333333333333343
sI11
F65
sI12
F75
sI13
F85
sI14
F80
sI15
F60
sI16
F80
sI17
F90
sI18
F70
sI19
F70
sI20
F60
ssS'svc'
p84
(dp85
I2
F77.333333333333329
sI3
F73
sI4
F72.857142857142847
sI5
F75
sI6
F80
sI7
F75
sI8
F76.666666666666671
sI9
F93.333333333333329
sI10
F83.333333333333343
sI11
F65
sI12
F75
sI13
F85
sI14
F80
sI15
F65
sI16
F70
sI17
F90
sI18
F60
sI19
F70
sI20
F60
ssS'rbf_svc'
p86
(dp87
I2
F60
sI3
F54
sI4
F50
sI5
F60
sI6
F62
sI7
F57.499999999999993
sI8
F56.666666666666664
sI9
F86.666666666666671
sI10
F76.666666666666671
sI11
F60
sI12
F60
sI13
F50
sI14
F45
sI15
F45
sI16
F60
sI17
F80
sI18
F60
sI19
F60
sI20
F40
ssS'lin_svc'
p88
(dp89
I2
F77.333333333333329
sI3
F73
sI4
F72.857142857142847
sI5
F75
sI6
F80
sI7
F75
sI8
F76.666666666666671
sI9
F93.333333333333329
sI10
F83.333333333333343
sI11
F65
sI12
F70
sI13
F85
sI14
F80
sI15
F65
sI16
F70
sI17
F90
sI18
F60
sI19
F70
sI20
F60
sssa(dp90
S'subset'
p91
I00
sS'level'
p92
S'task'
p93
sS'align'
p94
S'cut'
p95
sS'min_len'
p96
I1323
sS'dataset'
p97
S'A'
sS'max_len'
p98
I2123
sS'avg_len'
p99
I1736
sS'encode'
p100
S'AFF'
p101
sS'accuracy'
p102
(dp103
S'poly_svc'
p104
(dp105
I2
F77.333333333333329
sI3
F72
sI4
F72.857142857142847
sI5
F78.333333333333329
sI6
F80
sI7
F72.5
sI8
F76.666666666666671
sI9
F93.333333333333329
sI10
F83.333333333333343
sI11
F65
sI12
F75
sI13
F85
sI14
F80
sI15
F60
sI16
F80
sI17
F90
sI18
F70
sI19
F70
sI20
F60
ssS'svc'
p106
(dp107
I2
F77.333333333333329
sI3
F73
sI4
F72.857142857142847
sI5
F75
sI6
F80
sI7
F75
sI8
F76.666666666666671
sI9
F93.333333333333329
sI10
F83.333333333333343
sI11
F65
sI12
F75
sI13
F85
sI14
F80
sI15
F65
sI16
F70
sI17
F90
sI18
F60
sI19
F70
sI20
F60
ssS'rbf_svc'
p108
(dp109
I2
F60
sI3
F54
sI4
F50
sI5
F60
sI6
F62
sI7
F57.499999999999993
sI8
F56.666666666666664
sI9
F86.666666666666671
sI10
F76.666666666666671
sI11
F60
sI12
F60
sI13
F50
sI14
F45
sI15
F45
sI16
F60
sI17
F80
sI18
F60
sI19
F60
sI20
F40
ssS'lin_svc'
p110
(dp111
I2
F77.333333333333329
sI3
F73
sI4
F72.857142857142847
sI5
F75
sI6
F80
sI7
F75
sI8
F76.666666666666671
sI9
F93.333333333333329
sI10
F83.333333333333343
sI11
F65
sI12
F70
sI13
F85
sI14
F80
sI15
F65
sI16
F70
sI17
F90
sI18
F60
sI19
F70
sI20
F60
sssa(dp112
S'subset'
p113
I00
sS'level'
p114
S'task'
p115
sS'align'
p116
S'cut'
p117
sS'min_len'
p118
I1323
sS'dataset'
p119
S'A'
sS'max_len'
p120
I2123
sS'avg_len'
p121
I1736
sS'encode'
p122
S'AFF'
p123
sS'accuracy'
p124
(dp125
S'poly_svc'
p126
(dp127
I2
F77.333333333333329
sI3
F72
sI4
F72.857142857142847
sI5
F78.333333333333329
sI6
F80
sI7
F72.5
sI8
F76.666666666666671
sI9
F93.333333333333329
sI10
F83.333333333333343
sI11
F65
sI12
F75
sI13
F85
sI14
F80
sI15
F60
sI16
F80
sI17
F90
sI18
F70
sI19
F70
sI20
F60
ssS'svc'
p128
(dp129
I2
F77.333333333333329
sI3
F73
sI4
F72.857142857142847
sI5
F75
sI6
F80
sI7
F75
sI8
F76.666666666666671
sI9
F93.333333333333329
sI10
F83.333333333333343
sI11
F65
sI12
F75
sI13
F85
sI14
F80
sI15
F65
sI16
F70
sI17
F90
sI18
F60
sI19
F70
sI20
F60
ssS'rbf_svc'
p130
(dp131
I2
F60
sI3
F54
sI4
F50
sI5
F60
sI6
F62
sI7
F57.499999999999993
sI8
F56.666666666666664
sI9
F86.666666666666671
sI10
F76.666666666666671
sI11
F60
sI12
F60
sI13
F50
sI14
F45
sI15
F45
sI16
F60
sI17
F80
sI18
F60
sI19
F60
sI20
F40
ssS'lin_svc'
p132
(dp133
I2
F77.333333333333329
sI3
F73
sI4
F72.857142857142847
sI5
F75
sI6
F80
sI7
F75
sI8
F76.666666666666671
sI9
F93.333333333333329
sI10
F83.333333333333343
sI11
F65
sI12
F70
sI13
F85
sI14
F80
sI15
F65
sI16
F70
sI17
F90
sI18
F60
sI19
F70
sI20
F60
sssa.