(lp1
(dp2
S'subset'
p3
I00
sS'level'
p4
S'task'
p5
sS'align'
p6
S'interp'
p7
sS'min_len'
p8
I1323
sS'dataset'
p9
S'A'
sS'max_len'
p10
I2123
sS'avg_len'
p11
I1736
sS'encode'
p12
S'AFF'
p13
sS'accuracy'
p14
(dp15
S'poly_svc'
p16
(dp17
I2
F40
sI3
F44
sI4
F52.857142857142861
sI5
F58.333333333333336
sI6
F50
sI7
F55.000000000000007
sI8
F60
sI9
F60
sI10
F73.333333333333329
sI11
F65
sI12
F50
sI13
F70
sI14
F65
sI15
F60
sI16
F80
sI17
F50
sI18
F60
sI19
F50
sI20
F70
ssS'svc'
p18
(dp19
I2
F83.333333333333343
sI3
F83
sI4
F82.857142857142861
sI5
F88.333333333333329
sI6
F84
sI7
F77.5
sI8
F86.666666666666671
sI9
F90
sI10
F83.333333333333343
sI11
F85
sI12
F85
sI13
F85
sI14
F85
sI15
F85
sI16
F100
sI17
F90
sI18
F100
sI19
F80
sI20
F100
ssS'rbf_svc'
p20
(dp21
I2
F57.999999999999993
sI3
F63
sI4
F57.142857142857139
sI5
F53.333333333333336
sI6
F57.999999999999993
sI7
F45
sI8
F56.666666666666664
sI9
F73.333333333333329
sI10
F43.333333333333336
sI11
F50
sI12
F50
sI13
F65
sI14
F45
sI15
F45
sI16
F50
sI17
F70
sI18
F60
sI19
F50
sI20
F60
ssS'lin_svc'
p22
(dp23
I2
F84.666666666666671
sI3
F86
sI4
F82.857142857142861
sI5
F88.333333333333329
sI6
F86
sI7
F77.5
sI8
F86.666666666666671
sI9
F90
sI10
F83.333333333333343
sI11
F90
sI12
F85
sI13
F85
sI14
F85
sI15
F85
sI16
F100
sI17
F90
sI18
F100
sI19
F80
sI20
F100
sssa(dp24
S'subset'
p25
I00
sS'max_len'
p26
I1995
sS'avg_len'
p27
I1245
sS'accuracy'
p28
(dp29
S'poly_svc'
p30
(dp31
I2
F77.473684210526315
sI3
F78.412698412698418
sI4
F77.446808510638306
sI5
F77.368421052631575
sI6
F76.129032258064512
sI7
F73.333333333333329
sI8
F79.565217391304344
sI9
F76.19047619047619
sI10
F72.631578947368425
sI11
F80
sI12
F82
sI13
F80
sI14
F80.769230769230774
sI15
F75
sI16
F80
sI17
F78.181818181818187
sI18
F80
sI19
F70
sI20
F74.444444444444443
ssS'svc'
p32
(dp33
I2
F76.105263157894726
sI3
F73.492063492063494
sI4
F76.382978723404264
sI5
F75.26315789473685
sI6
F75.806451612903231
sI7
F71.111111111111114
sI8
F79.130434782608688
sI9
F76.19047619047619
sI10
F74.210526315789465
sI11
F81.17647058823529
sI12
F80
sI13
F80
sI14
F80
sI15
F75
sI16
F84.545454545454547
sI17
F80
sI18
F79
sI19
F72
sI20
F73.333333333333329
ssS'rbf_svc'
p34
(dp35
I2
F80.631578947368425
sI3
F81.428571428571431
sI4
F80.212765957446805
sI5
F81.315789473684205
sI6
F77.741935483870975
sI7
F76.666666666666671
sI8
F80.869565217391298
sI9
F76.666666666666671
sI10
F77.89473684210526
sI11
F81.764705882352942
sI12
F82
sI13
F83.571428571428569
sI14
F83.846153846153854
sI15
F79.166666666666657
sI16
F83.636363636363626
sI17
F87.272727272727266
sI18
F81
sI19
F73
sI20
F75.555555555555557
ssS'lin_svc'
p36
(dp37
I2
F75.89473684210526
sI3
F72.38095238095238
sI4
F75.106382978723403
sI5
F75
sI6
F73.225806451612911
sI7
F72.222222222222214
sI8
F76.521739130434781
sI9
F73.333333333333329
sI10
F73.15789473684211
sI11
F77.058823529411768
sI12
F79.333333333333329
sI13
F81.428571428571431
sI14
F78.461538461538467
sI15
F75.833333333333329
sI16
F81.818181818181827
sI17
F70.909090909090907
sI18
F79
sI19
F67
sI20
F74.444444444444443
sssS'level'
p38
S'task'
p39
sS'encode'
p40
S'AFF'
p41
sS'align'
p42
S'interp'
p43
sS'min_len'
p44
I860
sS'dataset'
p45
S'B'
sa(dp46
S'subset'
p47
I00
sS'level'
p48
S'task'
p49
sS'align'
p50
S'interp'
p51
sS'min_len'
p52
I4397
sS'dataset'
p53
S'C'
sS'max_len'
p54
I16799
sS'avg_len'
p55
I6960
sS'encode'
p56
S'AFF'
p57
sS'accuracy'
p58
(dp59
S'poly_svc'
p60
(dp61
I2
F65.625
sI3
F79
sI4
F78.75
sI5
F76.666666666666671
sI6
F82
sI7
F90
sI8
F82.5
sI9
F83.333333333333343
sI10
F83.333333333333343
sI11
F70
sI12
F55.000000000000007
sI13
F80
sI14
F75
sI15
F80
sI16
F65
sI17
F70
sI18
F70
sI19
F80
sI20
F90
ssS'svc'
p62
(dp63
I2
F76.25
sI3
F78
sI4
F78.75
sI5
F76.666666666666671
sI6
F84
sI7
F90
sI8
F82.5
sI9
F83.333333333333343
sI10
F83.333333333333343
sI11
F70
sI12
F55.000000000000007
sI13
F80
sI14
F75
sI15
F80
sI16
F65
sI17
F70
sI18
F70
sI19
F80
sI20
F90
ssS'rbf_svc'
p64
(dp65
I2
F78.75
sI3
F78
sI4
F78.75
sI5
F76.666666666666671
sI6
F84
sI7
F90
sI8
F82.5
sI9
F83.333333333333343
sI10
F83.333333333333343
sI11
F70
sI12
F55.000000000000007
sI13
F80
sI14
F75
sI15
F80
sI16
F65
sI17
F70
sI18
F70
sI19
F80
sI20
F90
ssS'lin_svc'
p66
(dp67
I2
F75.625
sI3
F78
sI4
F78.75
sI5
F76.666666666666671
sI6
F84
sI7
F90
sI8
F82.5
sI9
F83.333333333333343
sI10
F83.333333333333343
sI11
F70
sI12
F55.000000000000007
sI13
F80
sI14
F75
sI15
F80
sI16
F65
sI17
F70
sI18
F70
sI19
F80
sI20
F90
sssa(dp68
g25
I00
sg26
I16799
sg27
I4389
sg28
(dp69
S'poly_svc'
p70
(dp71
I2
F45.161290322580641
sI3
F51.428571428571423
sI4
F45.333333333333329
sI5
F50.833333333333329
sI6
F49
sI7
F52.222222222222229
sI8
F60
sI9
F45.714285714285715
sI10
F51.666666666666671
sI11
F54
sI12
F48
sI13
F62.5
sI14
F47.5
sI15
F47.5
sI16
F53.333333333333336
sI17
F46.666666666666664
sI18
F53.333333333333336
sI19
F53.333333333333336
sI20
F50
ssS'svc'
p72
(dp73
I2
F66.451612903225808
sI3
F73.80952380952381
sI4
F76
sI5
F68.333333333333329
sI6
F83
sI7
F80
sI8
F80
sI9
F68.571428571428569
sI10
F80
sI11
F86
sI12
F90
sI13
F87.5
sI14
F85
sI15
F82.5
sI16
F83.333333333333343
sI17
F80
sI18
F80
sI19
F83.333333333333343
sI20
F73.333333333333329
ssS'rbf_svc'
p74
(dp75
I2
F34.193548387096776
sI3
F37.61904761904762
sI4
F36
sI5
F40.833333333333336
sI6
F39
sI7
F45.555555555555557
sI8
F47.142857142857139
sI9
F34.285714285714285
sI10
F35
sI11
F32
sI12
F36
sI13
F57.499999999999993
sI14
F37.5
sI15
F37.5
sI16
F43.333333333333336
sI17
F33.333333333333329
sI18
F40
sI19
F46.666666666666664
sI20
F43.333333333333336
ssS'lin_svc'
p76
(dp77
I2
F68.709677419354847
sI3
F77.142857142857153
sI4
F76.666666666666671
sI5
F73.333333333333329
sI6
F82
sI7
F82.222222222222214
sI8
F80
sI9
F67.142857142857139
sI10
F81.666666666666671
sI11
F84
sI12
F90
sI13
F87.5
sI14
F82.5
sI15
F82.5
sI16
F83.333333333333343
sI17
F80
sI18
F80
sI19
F83.333333333333343
sI20
F80
sssg38
g39
sg40
g41
sg42
g43
sg44
I1323
sg45
S'AC'
p78
sa(dp79
g25
I00
sg26
I16799
sg27
I2068
sg28
(dp80
S'poly_svc'
p81
(dp82
I2
F62.522522522522529
sI3
F69.459459459459467
sI4
F71.27272727272728
sI5
F74.318181818181813
sI6
F71.891891891891888
sI7
F71.935483870967744
sI8
F71.481481481481481
sI9
F77.916666666666671
sI10
F71.36363636363636
sI11
F72.5
sI12
F78.333333333333329
sI13
F72.35294117647058
sI14
F71.333333333333343
sI15
F72.857142857142847
sI16
F75.384615384615387
sI17
F70
sI18
F70.833333333333343
sI19
F75.454545454545453
sI20
F70.909090909090907
ssS'svc'
p83
(dp84
I2
F74.86486486486487
sI3
F79.054054054054063
sI4
F78.72727272727272
sI5
F81.818181818181827
sI6
F77.567567567567565
sI7
F75.161290322580641
sI8
F72.962962962962962
sI9
F80.416666666666671
sI10
F75.454545454545453
sI11
F73.5
sI12
F82.222222222222214
sI13
F74.117647058823536
sI14
F74
sI15
F76.428571428571416
sI16
F80.769230769230774
sI17
F73.846153846153854
sI18
F73.333333333333329
sI19
F81.818181818181827
sI20
F73.636363636363626
ssS'rbf_svc'
p85
(dp86
I2
F70
sI3
F69.054054054054063
sI4
F70.909090909090907
sI5
F69.545454545454547
sI6
F70.540540540540547
sI7
F65.483870967741936
sI8
F65.555555555555557
sI9
F70
sI10
F62.272727272727266
sI11
F67
sI12
F75.555555555555557
sI13
F65.882352941176464
sI14
F70.666666666666671
sI15
F72.142857142857139
sI16
F67.692307692307693
sI17
F67.692307692307693
sI18
F66.666666666666657
sI19
F75.454545454545453
sI20
F61.818181818181813
ssS'lin_svc'
p87
(dp88
I2
F72.972972972972968
sI3
F77.162162162162161
sI4
F76.181818181818187
sI5
F80
sI6
F75.675675675675677
sI7
F75.483870967741936
sI8
F72.962962962962962
sI9
F76.25
sI10
F74.545454545454547
sI11
F72
sI12
F79.444444444444443
sI13
F72.35294117647058
sI14
F74
sI15
F72.142857142857139
sI16
F80.769230769230774
sI17
F76.923076923076934
sI18
F72.5
sI19
F79.090909090909093
sI20
F73.636363636363626
sssg38
g39
sg40
g41
sg42
g43
sg44
I860
sg45
S'BC'
p89
sa(dp90
g25
I00
sg26
I16799
sg27
I2028
sg28
(dp91
S'poly_svc'
p92
(dp93
I2
F57.539682539682538
sI3
F62.61904761904762
sI4
F66.825396825396822
sI5
F65
sI6
F70.238095238095227
sI7
F69.166666666666671
sI8
F68.387096774193552
sI9
F70.357142857142861
sI10
F67.200000000000003
sI11
F73.043478260869563
sI12
F70.952380952380949
sI13
F71.05263157894737
sI14
F66.111111111111114
sI15
F64.375
sI16
F68.666666666666671
sI17
F71.428571428571431
sI18
F65.714285714285708
sI19
F75.384615384615387
sI20
F68.333333333333329
ssS'svc'
p94
(dp95
I2
F75.555555555555557
sI3
F73.80952380952381
sI4
F77.142857142857153
sI5
F78.600000000000009
sI6
F77.38095238095238
sI7
F78.333333333333329
sI8
F77.096774193548384
sI9
F80
sI10
F78.400000000000006
sI11
F83.478260869565219
sI12
F80
sI13
F78.94736842105263
sI14
F73.333333333333329
sI15
F76.875
sI16
F78.666666666666657
sI17
F77.142857142857153
sI18
F75.714285714285708
sI19
F78.461538461538467
sI20
F75.833333333333329
ssS'rbf_svc'
p96
(dp97
I2
F60.55555555555555
sI3
F58.69047619047619
sI4
F62.38095238095238
sI5
F59.799999999999997
sI6
F60
sI7
F63.055555555555557
sI8
F55.806451612903231
sI9
F65.714285714285708
sI10
F59.199999999999996
sI11
F65.217391304347828
sI12
F62.857142857142854
sI13
F57.894736842105267
sI14
F55.555555555555557
sI15
F57.499999999999993
sI16
F65.333333333333329
sI17
F60
sI18
F61.428571428571431
sI19
F63.84615384615384
sI20
F66.666666666666657
ssS'lin_svc'
p98
(dp99
I2
F74.920634920634924
sI3
F74.404761904761912
sI4
F74.920634920634924
sI5
F77.400000000000006
sI6
F75.714285714285708
sI7
F75.277777777777771
sI8
F77.096774193548384
sI9
F76.785714285714292
sI10
F76.799999999999997
sI11
F83.043478260869563
sI12
F72.857142857142847
sI13
F77.89473684210526
sI14
F71.111111111111114
sI15
F72.5
sI16
F73.333333333333329
sI17
F75.714285714285708
sI18
F74.285714285714292
sI19
F76.923076923076934
sI20
F71.666666666666671
sssg38
g39
sg40
g41
sg42
g43
sg44
I860
sg45
S'ABC'
p100
sa.