(dp1
S'subset'
p2
I00
sS'max_len'
p3
I14446
sS'avg_len'
p4
I859
sS'accuracy'
p5
(dp6
S'poly_svc'
p7
(dp8
I2
F49.966329966329965
sI3
F54.393939393939391
sI4
F50.810810810810814
sI5
F55.378151260504204
sI6
F56.36363636363636
sI7
F53.058823529411768
sI8
F57.297297297297298
sI9
F52.878787878787882
sI10
F53.728813559322028
sI11
F60.370370370370374
sI12
F52.653061224489797
sI13
F56.666666666666664
sI14
F50.952380952380949
sI15
F60
sI16
F55.67567567567567
sI17
F54.285714285714285
sI18
F55.454545454545453
sI19
F49.354838709677416
sI20
F55.862068965517238
ssS'svc'
p9
(dp10
I2
F52.289562289562284
sI3
F56.868686868686865
sI4
F54.729729729729726
sI5
F58.907563025210088
sI6
F56.868686868686865
sI7
F59.411764705882355
sI8
F59.189189189189186
sI9
F57.878787878787875
sI10
F58.983050847457633
sI11
F61.296296296296291
sI12
F57.755102040816332
sI13
F56.666666666666664
sI14
F55.952380952380956
sI15
F63.333333333333329
sI16
F57.567567567567565
sI17
F59.142857142857139
sI18
F58.18181818181818
sI19
F52.258064516129032
sI20
F58.275862068965523
ssS'rbf_svc'
p11
(dp12
I2
F30.168350168350166
sI3
F31.616161616161616
sI4
F31.148648648648646
sI5
F32.689075630252098
sI6
F32.020202020202021
sI7
F31.294117647058822
sI8
F32.432432432432435
sI9
F29.848484848484848
sI10
F30
sI11
F32.962962962962962
sI12
F31.22448979591837
sI13
F30.444444444444446
sI14
F30.238095238095237
sI15
F34.615384615384613
sI16
F33.243243243243242
sI17
F30.857142857142854
sI18
F32.121212121212125
sI19
F30.967741935483872
sI20
F31.724137931034484
ssS'lin_svc'
p13
(dp14
I2
F33.030303030303031
sI3
F37.828282828282831
sI4
F38.851351351351347
sI5
F41.344537815126046
sI6
F40.606060606060609
sI7
F41.17647058823529
sI8
F43.78378378378379
sI9
F43.787878787878789
sI10
F41.864406779661017
sI11
F44.81481481481481
sI12
F41.632653061224488
sI13
F36.444444444444443
sI14
F42.142857142857146
sI15
F41.282051282051277
sI16
F43.78378378378379
sI17
F40
sI18
F42.121212121212118
sI19
F36.129032258064512
sI20
F35.517241379310342
sssS'level'
p15
S'behavior'
p16
sS'encode'
p17
S'AFF'
p18
sS'align'
p19
S'interp'
p20
sS'min_len'
p21
I500
sS'dataset'
p22
S'ABC'
p23
s.