(dp1
S'subset'
p2
I00
sS'max_len'
p3
I14446
sS'avg_len'
p4
I859
sS'accuracy'
p5
(dp6
S'poly_svc'
p7
(dp8
I2
F54.208754208754208
sI3
F53.63636363636364
sI4
F51.689189189189186
sI5
F51.596638655462193
sI6
F51.616161616161612
sI7
F49.647058823529413
sI8
F53.378378378378379
sI9
F50.606060606060609
sI10
F50.847457627118644
sI11
F53.148148148148145
sI12
F48.367346938775512
sI13
F53.555555555555557
sI14
F52.142857142857146
sI15
F52.820512820512825
sI16
F51.081081081081081
sI17
F51.142857142857146
sI18
F50.606060606060609
sI19
F52.258064516129032
sI20
F54.137931034482754
ssS'svc'
p9
(dp10
I2
F45.622895622895619
sI3
F47.474747474747474
sI4
F46.283783783783782
sI5
F44.621848739495803
sI6
F47.37373737373737
sI7
F48.823529411764703
sI8
F49.054054054054049
sI9
F46.666666666666664
sI10
F48.644067796610166
sI11
F48.703703703703702
sI12
F46.122448979591837
sI13
F49.333333333333336
sI14
F47.38095238095238
sI15
F50.256410256410255
sI16
F45.135135135135137
sI17
F51.142857142857146
sI18
F46.666666666666664
sI19
F48.387096774193552
sI20
F48.96551724137931
ssS'rbf_svc'
p11
(dp12
I2
F55.959595959595966
sI3
F55.101010101010104
sI4
F53.851351351351354
sI5
F52.857142857142861
sI6
F52.929292929292927
sI7
F52.470588235294116
sI8
F54.729729729729726
sI9
F50.757575757575758
sI10
F53.389830508474581
sI11
F52.777777777777779
sI12
F50.204081632653065
sI13
F53.111111111111107
sI14
F52.380952380952387
sI15
F54.871794871794876
sI16
F52.972972972972975
sI17
F53.428571428571423
sI18
F50
sI19
F55.483870967741936
sI20
F54.137931034482754
ssS'lin_svc'
p13
(dp14
I2
F28.249158249158253
sI3
F26.313131313131311
sI4
F29.054054054054053
sI5
F26.05042016806723
sI6
F25.959595959595958
sI7
F23.52941176470588
sI8
F23.108108108108109
sI9
F22.272727272727273
sI10
F24.745762711864408
sI11
F26.666666666666668
sI12
F17.755102040816325
sI13
F21.777777777777775
sI14
F21.904761904761905
sI15
F27.179487179487179
sI16
F19.189189189189189
sI17
F28.285714285714285
sI18
F22.727272727272727
sI19
F26.7741935483871
sI20
F27.586206896551722
sssS'level'
p15
S'behavior'
p16
sS'encode'
p17
S'AFF'
p18
sS'align'
p19
S'cut'
p20
sS'min_len'
p21
I500
sS'dataset'
p22
S'ABC'
p23
s.