(lp1
(dp2
S'subset'
p3
I00
sS'max_len'
p4
I915
sS'avg_len'
p5
I471
sS'accuracy'
p6
(dp7
S'poly_svc'
p8
(dp9
I2
F35.272727272727273
sI3
F38.378378378378379
sI4
F40.370370370370374
sI5
F34.545454545454547
sI6
F38.888888888888893
sI7
F37.333333333333336
sI8
F33.076923076923073
sI9
F39.166666666666664
sI10
F47.272727272727273
sI11
F39
sI12
F36.666666666666664
sI13
F38.75
sI14
F47.142857142857139
sI15
F44.285714285714285
sI16
F38.333333333333336
sI17
F41.666666666666671
sI18
F46.666666666666664
sI19
F46
sI20
F48
ssS'svc'
p10
(dp11
I2
F29.09090909090909
sI3
F31.891891891891895
sI4
F31.851851851851855
sI5
F28.636363636363637
sI6
F36.111111111111107
sI7
F30
sI8
F27.692307692307693
sI9
F32.5
sI10
F39.090909090909093
sI11
F31
sI12
F28.888888888888886
sI13
F33.75
sI14
F40
sI15
F42.857142857142854
sI16
F31.666666666666664
sI17
F38.333333333333336
sI18
F31.666666666666664
sI19
F34
sI20
F42
ssS'rbf_svc'
p12
(dp13
I2
F20.18181818181818
sI3
F16.756756756756758
sI4
F17.777777777777779
sI5
F16.818181818181817
sI6
F12.777777777777777
sI7
F10.666666666666668
sI8
F13.846153846153847
sI9
F23.333333333333332
sI10
F9.0909090909090917
sI11
F21
sI12
F17.777777777777779
sI13
F21.25
sI14
F14.285714285714285
sI15
F14.285714285714285
sI16
F11.666666666666666
sI17
F16.666666666666664
sI18
F13.333333333333334
sI19
F24
sI20
F10
ssS'lin_svc'
p14
(dp15
I2
F30.363636363636363
sI3
F36.216216216216218
sI4
F33.703703703703702
sI5
F32.727272727272727
sI6
F39.444444444444443
sI7
F33.333333333333329
sI8
F29.230769230769234
sI9
F31.666666666666664
sI10
F36.363636363636367
sI11
F30
sI12
F31.111111111111111
sI13
F35
sI14
F40
sI15
F40
sI16
F28.333333333333332
sI17
F36.666666666666664
sI18
F33.333333333333329
sI19
F34
sI20
F40
sssS'level'
p16
S'behavior'
p17
sS'encode'
p18
S'AFF'
p19
sS'align'
p20
S'interp'
p21
sS'min_len'
p22
I500
sS'dataset'
p23
S'A'
sa(dp24
g3
I00
sg4
I1995
sg5
I620
sg6
(dp25
S'poly_svc'
p26
(dp27
I2
F71.473684210526315
sI3
F74.094488188976385
sI4
F73.578947368421055
sI5
F74.473684210526315
sI6
F77.142857142857153
sI7
F75
sI8
F76.382978723404264
sI9
F75.714285714285708
sI10
F78.684210526315795
sI11
F74.705882352941174
sI12
F73.225806451612911
sI13
F77.241379310344826
sI14
F74.444444444444443
sI15
F78.799999999999997
sI16
F78.695652173913047
sI17
F76.818181818181813
sI18
F80
sI19
F79
sI20
F77.368421052631575
ssS'svc'
p28
(dp29
I2
F74.526315789473685
sI3
F76.141732283464563
sI4
F73.15789473684211
sI5
F74.342105263157904
sI6
F76.19047619047619
sI7
F72.037037037037038
sI8
F73.191489361702125
sI9
F74.523809523809518
sI10
F78.421052631578945
sI11
F73.82352941176471
sI12
F74.838709677419359
sI13
F78.620689655172413
sI14
F75.18518518518519
sI15
F79.200000000000003
sI16
F80.434782608695656
sI17
F78.63636363636364
sI18
F79.523809523809518
sI19
F78.5
sI20
F76.84210526315789
ssS'rbf_svc'
p30
(dp31
I2
F46.05263157894737
sI3
F48.425196850393696
sI4
F46.421052631578945
sI5
F47.763157894736842
sI6
F49.682539682539684
sI7
F48.333333333333336
sI8
F49.148936170212764
sI9
F48.333333333333336
sI10
F44.736842105263158
sI11
F49.705882352941174
sI12
F51.612903225806448
sI13
F48.275862068965516
sI14
F50.74074074074074
sI15
F49.200000000000003
sI16
F48.695652173913047
sI17
F47.272727272727273
sI18
F50.952380952380949
sI19
F48
sI20
F47.89473684210526
ssS'lin_svc'
p32
(dp33
I2
F70.05263157894737
sI3
F71.574803149606296
sI4
F69.473684210526315
sI5
F70.65789473684211
sI6
F71.746031746031747
sI7
F70.370370370370367
sI8
F68.085106382978722
sI9
F70.238095238095227
sI10
F75
sI11
F71.17647058823529
sI12
F75.161290322580641
sI13
F71.724137931034477
sI14
F69.629629629629633
sI15
F75.200000000000003
sI16
F77.391304347826079
sI17
F73.636363636363626
sI18
F77.142857142857153
sI19
F74
sI20
F74.210526315789465
sssg16
g17
sg18
g19
sg20
g21
sg22
I500
sg23
S'B'
sa(dp34
g3
I00
sg4
I14446
sg5
I2162
sg6
(dp35
S'poly_svc'
p36
(dp37
I2
F21.176470588235293
sI3
F22.941176470588236
sI4
F24.399999999999999
sI5
F22
sI6
F20
sI7
F20
sI8
F24.166666666666668
sI9
F19.090909090909093
sI10
F25
sI11
F23.333333333333332
sI12
F32.5
sI13
F21.428571428571427
sI14
F14.285714285714285
sI15
F16.666666666666664
sI16
F18.333333333333332
sI17
F11.666666666666666
sI18
F24
sI19
F16
sI20
F18
ssS'svc'
p38
(dp39
I2
F28.03921568627451
sI3
F32.352941176470587
sI4
F38.800000000000004
sI5
F32.5
sI6
F38.82352941176471
sI7
F40
sI8
F35.833333333333336
sI9
F43.636363636363633
sI10
F36
sI11
F33.333333333333329
sI12
F46.25
sI13
F42.857142857142854
sI14
F50
sI15
F36.666666666666664
sI16
F35
sI17
F25
sI18
F38
sI19
F38
sI20
F24
ssS'rbf_svc'
p40
(dp41
I2
F19.803921568627452
sI3
F21.470588235294116
sI4
F20.399999999999999
sI5
F13
sI6
F15.882352941176469
sI7
F14.285714285714285
sI8
F16.666666666666664
sI9
F14.545454545454545
sI10
F15
sI11
F15.555555555555555
sI12
F17.5
sI13
F14.285714285714285
sI14
F5.7142857142857144
sI15
F15
sI16
F10
sI17
F15
sI18
F20
sI19
F10
sI20
F10
ssS'lin_svc'
p42
(dp43
I2
F28.627450980392155
sI3
F35
sI4
F40.400000000000006
sI5
F32.5
sI6
F40
sI7
F37.857142857142854
sI8
F34.166666666666664
sI9
F40.909090909090914
sI10
F28.999999999999996
sI11
F26.666666666666668
sI12
F36.25
sI13
F40
sI14
F40
sI15
F36.666666666666664
sI16
F33.333333333333329
sI17
F25
sI18
F36
sI19
F38
sI20
F20
sssg16
g17
sg18
g19
sg20
g21
sg22
I500
sg23
S'C'
sa(dp44
g3
I00
sg4
I14446
sg5
I1285
sg6
(dp45
S'poly_svc'
p46
(dp47
I2
F26.168224299065418
sI3
F23.802816901408448
sI4
F27.169811320754718
sI5
F28.571428571428569
sI6
F28.857142857142858
sI7
F29.666666666666668
sI8
F28.846153846153843
sI9
F27.826086956521738
sI10
F33.80952380952381
sI11
F30.526315789473685
sI12
F30
sI13
F31.25
sI14
F29.333333333333332
sI15
F34.285714285714285
sI16
F34.615384615384613
sI17
F28.333333333333332
sI18
F30.909090909090907
sI19
F33.636363636363633
sI20
F30
ssS'svc'
p48
(dp49
I2
F32.242990654205606
sI3
F31.690140845070424
sI4
F32.830188679245282
sI5
F36.666666666666664
sI6
F35.714285714285715
sI7
F38.666666666666664
sI8
F42.307692307692307
sI9
F37.826086956521735
sI10
F43.80952380952381
sI11
F44.210526315789473
sI12
F39.411764705882355
sI13
F35
sI14
F35.333333333333336
sI15
F38.571428571428577
sI16
F44.61538461538462
sI17
F41.666666666666671
sI18
F41.818181818181813
sI19
F39.090909090909093
sI20
F39
ssS'rbf_svc'
p50
(dp51
I2
F13.271028037383179
sI3
F11.126760563380282
sI4
F12.075471698113208
sI5
F12.142857142857142
sI6
F12
sI7
F10
sI8
F12.307692307692308
sI9
F10
sI10
F6.1904761904761907
sI11
F12.631578947368421
sI12
F10.588235294117647
sI13
F8.75
sI14
F8.6666666666666679
sI15
F9.2857142857142865
sI16
F9.2307692307692317
sI17
F9.1666666666666661
sI18
F7.2727272727272725
sI19
F6.3636363636363633
sI20
F8
ssS'lin_svc'
p52
(dp53
I2
F23.457943925233646
sI3
F24.225352112676056
sI4
F25.849056603773583
sI5
F28.095238095238095
sI6
F25.142857142857146
sI7
F30.333333333333336
sI8
F28.46153846153846
sI9
F29.130434782608695
sI10
F33.80952380952381
sI11
F27.368421052631582
sI12
F28.235294117647058
sI13
F29.375
sI14
F28.666666666666668
sI15
F26.428571428571431
sI16
F28.46153846153846
sI17
F25.833333333333336
sI18
F26.36363636363636
sI19
F29.09090909090909
sI20
F28.000000000000004
sssg16
g17
sg18
g19
sg20
g21
sg22
I500
sg23
S'AC'
p54
sa(dp55
g3
I00
sg4
I14446
sg5
I948
sg6
(dp56
S'poly_svc'
p57
(dp58
I2
F58.884297520661157
sI3
F60.745341614906835
sI4
F64.132231404958674
sI5
F60.520833333333336
sI6
F62.125
sI7
F60.579710144927532
sI8
F61.5
sI9
F64.15094339622641
sI10
F65.208333333333329
sI11
F64.090909090909093
sI12
F63.5
sI13
F62.702702702702709
sI14
F68.235294117647058
sI15
F64.0625
sI16
F69.666666666666671
sI17
F61.785714285714292
sI18
F63.076923076923073
sI19
F67.200000000000003
sI20
F63.333333333333329
ssS'svc'
p59
(dp60
I2
F61.983471074380169
sI3
F58.571428571428577
sI4
F63.966942148760332
sI5
F62.916666666666664
sI6
F63.749999999999993
sI7
F61.884057971014492
sI8
F61.5
sI9
F62.830188679245282
sI10
F66.875
sI11
F64.545454545454547
sI12
F61.250000000000007
sI13
F63.78378378378379
sI14
F66.17647058823529
sI15
F64.0625
sI16
F60.666666666666671
sI17
F66.428571428571431
sI18
F62.692307692307693
sI19
F68
sI20
F61.250000000000007
ssS'rbf_svc'
p61
(dp62
I2
F36.859504132231407
sI3
F37.204968944099384
sI4
F39.504132231404959
sI5
F38.75
sI6
F37.875
sI7
F35.797101449275367
sI8
F33.333333333333329
sI9
F37.924528301886795
sI10
F39.166666666666664
sI11
F39.090909090909093
sI12
F36.25
sI13
F36.486486486486484
sI14
F36.470588235294116
sI15
F38.4375
sI16
F38.333333333333336
sI17
F37.857142857142854
sI18
F35.769230769230766
sI19
F38.399999999999999
sI20
F35
ssS'lin_svc'
p63
(dp64
I2
F41.776859504132233
sI3
F39.627329192546583
sI4
F41.900826446280995
sI5
F43.958333333333336
sI6
F47.5
sI7
F43.623188405797102
sI8
F46.833333333333336
sI9
F45.660377358490564
sI10
F51.249999999999993
sI11
F47.045454545454547
sI12
F45
sI13
F47.567567567567572
sI14
F45.588235294117645
sI15
F41.5625
sI16
F45.666666666666664
sI17
F47.5
sI18
F47.307692307692307
sI19
F51.200000000000003
sI20
F44.166666666666664
sssg16
g17
sg18
g19
sg20
g21
sg22
I500
sg23
S'BC'
p65
sa(dp66
g3
I00
sg4
I14446
sg5
I859
sg6
(dp67
S'poly_svc'
p68
(dp69
I2
F49.966329966329965
sI3
F54.393939393939391
sI4
F50.810810810810814
sI5
F55.378151260504204
sI6
F56.36363636363636
sI7
F53.058823529411768
sI8
F57.297297297297298
sI9
F52.878787878787882
sI10
F53.728813559322028
sI11
F60.370370370370374
sI12
F52.653061224489797
sI13
F56.666666666666664
sI14
F50.952380952380949
sI15
F60
sI16
F55.67567567567567
sI17
F54.285714285714285
sI18
F55.454545454545453
sI19
F49.354838709677416
sI20
F55.862068965517238
ssS'svc'
p70
(dp71
I2
F52.289562289562284
sI3
F56.868686868686865
sI4
F54.729729729729726
sI5
F58.907563025210088
sI6
F56.868686868686865
sI7
F59.411764705882355
sI8
F59.189189189189186
sI9
F57.878787878787875
sI10
F58.983050847457633
sI11
F61.296296296296291
sI12
F57.755102040816332
sI13
F56.666666666666664
sI14
F55.952380952380956
sI15
F63.333333333333329
sI16
F57.567567567567565
sI17
F59.142857142857139
sI18
F58.18181818181818
sI19
F52.258064516129032
sI20
F58.275862068965523
ssS'rbf_svc'
p72
(dp73
I2
F30.168350168350166
sI3
F31.616161616161616
sI4
F31.148648648648646
sI5
F32.689075630252098
sI6
F32.020202020202021
sI7
F31.294117647058822
sI8
F32.432432432432435
sI9
F29.848484848484848
sI10
F30
sI11
F32.962962962962962
sI12
F31.22448979591837
sI13
F30.444444444444446
sI14
F30.238095238095237
sI15
F34.615384615384613
sI16
F33.243243243243242
sI17
F30.857142857142854
sI18
F32.121212121212125
sI19
F30.967741935483872
sI20
F31.724137931034484
ssS'lin_svc'
p74
(dp75
I2
F33.030303030303031
sI3
F37.828282828282831
sI4
F38.851351351351347
sI5
F41.344537815126046
sI6
F40.606060606060609
sI7
F41.17647058823529
sI8
F43.78378378378379
sI9
F43.787878787878789
sI10
F41.864406779661017
sI11
F44.81481481481481
sI12
F41.632653061224488
sI13
F36.444444444444443
sI14
F42.142857142857146
sI15
F41.282051282051277
sI16
F43.78378378378379
sI17
F40
sI18
F42.121212121212118
sI19
F36.129032258064512
sI20
F35.517241379310342
sssg16
g17
sg18
g19
sg20
g21
sg22
I500
sg23
S'ABC'
p76
sa.