(dp1
S'subset'
p2
I00
sS'max_len'
p3
I16799
sS'avg_len'
p4
I4389
sS'accuracy'
p5
(dp6
S'poly_svc'
p7
(dp8
I2
F40.967741935483872
sI3
F40.952380952380949
sI4
F47.333333333333336
sI5
F49.166666666666664
sI6
F37
sI7
F48.888888888888886
sI8
F37.142857142857146
sI9
F51.428571428571423
sI10
F50
sI11
F32
sI12
F44
sI13
F47.5
sI14
F50
sI15
F52.5
sI16
F36.666666666666664
sI17
F60
sI18
F43.333333333333336
sI19
F46.666666666666664
sI20
F50
ssS'svc'
p9
(dp10
I2
F71.290322580645153
sI3
F76.19047619047619
sI4
F80
sI5
F81.666666666666671
sI6
F73
sI7
F80
sI8
F75.714285714285708
sI9
F80
sI10
F85
sI11
F72
sI12
F80
sI13
F75
sI14
F70
sI15
F82.5
sI16
F93.333333333333329
sI17
F90
sI18
F86.666666666666671
sI19
F73.333333333333329
sI20
F80
ssS'rbf_svc'
p11
(dp12
I2
F35.483870967741936
sI3
F33.80952380952381
sI4
F42
sI5
F42.5
sI6
F32
sI7
F40
sI8
F24.285714285714285
sI9
F47.142857142857139
sI10
F46.666666666666664
sI11
F28.000000000000004
sI12
F36
sI13
F45
sI14
F42.5
sI15
F45
sI16
F30
sI17
F50
sI18
F40
sI19
F43.333333333333336
sI20
F43.333333333333336
ssS'lin_svc'
p13
(dp14
I2
F77.096774193548384
sI3
F79.523809523809518
sI4
F84.666666666666671
sI5
F85
sI6
F77
sI7
F83.333333333333343
sI8
F81.428571428571431
sI9
F84.285714285714292
sI10
F86.666666666666671
sI11
F80
sI12
F84
sI13
F77.5
sI14
F77.5
sI15
F85
sI16
F93.333333333333329
sI17
F90
sI18
F90
sI19
F80
sI20
F80
sssS'level'
p15
S'task'
p16
sS'encode'
p17
S'FF'
p18
sS'align'
p19
S'interp'
p20
sS'min_len'
p21
I1323
sS'dataset'
p22
S'AC'
p23
s.