(dp1
S'subset'
p2
I00
sS'max_len'
p3
I16799
sS'avg_len'
p4
I4389
sS'accuracy'
p5
(dp6
S'poly_svc'
p7
(dp8
I2
F45.161290322580641
sI3
F51.428571428571423
sI4
F45.333333333333329
sI5
F50.833333333333329
sI6
F49
sI7
F52.222222222222229
sI8
F60
sI9
F45.714285714285715
sI10
F51.666666666666671
sI11
F54
sI12
F48
sI13
F62.5
sI14
F47.5
sI15
F47.5
sI16
F53.333333333333336
sI17
F46.666666666666664
sI18
F53.333333333333336
sI19
F53.333333333333336
sI20
F50
ssS'svc'
p9
(dp10
I2
F66.451612903225808
sI3
F73.80952380952381
sI4
F76
sI5
F68.333333333333329
sI6
F83
sI7
F80
sI8
F80
sI9
F68.571428571428569
sI10
F80
sI11
F86
sI12
F90
sI13
F87.5
sI14
F85
sI15
F82.5
sI16
F83.333333333333343
sI17
F80
sI18
F80
sI19
F83.333333333333343
sI20
F73.333333333333329
ssS'rbf_svc'
p11
(dp12
I2
F34.193548387096776
sI3
F37.61904761904762
sI4
F36
sI5
F40.833333333333336
sI6
F39
sI7
F45.555555555555557
sI8
F47.142857142857139
sI9
F34.285714285714285
sI10
F35
sI11
F32
sI12
F36
sI13
F57.499999999999993
sI14
F37.5
sI15
F37.5
sI16
F43.333333333333336
sI17
F33.333333333333329
sI18
F40
sI19
F46.666666666666664
sI20
F43.333333333333336
ssS'lin_svc'
p13
(dp14
I2
F68.709677419354847
sI3
F77.142857142857153
sI4
F76.666666666666671
sI5
F73.333333333333329
sI6
F82
sI7
F82.222222222222214
sI8
F80
sI9
F67.142857142857139
sI10
F81.666666666666671
sI11
F84
sI12
F90
sI13
F87.5
sI14
F82.5
sI15
F82.5
sI16
F83.333333333333343
sI17
F80
sI18
F80
sI19
F83.333333333333343
sI20
F80
sssS'level'
p15
S'task'
p16
sS'encode'
p17
S'AFF'
p18
sS'align'
p19
S'interp'
p20
sS'min_len'
p21
I1323
sS'dataset'
p22
S'AC'
p23
s.