(dp1
S'subset'
p2
I00
sS'max_len'
p3
I14446
sS'avg_len'
p4
I948
sS'accuracy'
p5
(dp6
S'poly_svc'
p7
(dp8
I2
F63.512396694214878
sI3
F62.670807453416145
sI4
F63.801652892561989
sI5
F65.520833333333329
sI6
F64.75
sI7
F62.608695652173921
sI8
F63.333333333333329
sI9
F64.905660377358487
sI10
F60.416666666666664
sI11
F64.318181818181813
sI12
F64.25
sI13
F65.945945945945951
sI14
F67.058823529411754
sI15
F62.5
sI16
F63
sI17
F61.428571428571431
sI18
F58.846153846153847
sI19
F64
sI20
F61.666666666666671
ssS'svc'
p9
(dp10
I2
F63.966942148760332
sI3
F64.409937888198755
sI4
F62.148760330578511
sI5
F64.791666666666671
sI6
F68
sI7
F62.89855072463768
sI8
F67.166666666666657
sI9
F70
sI10
F66.458333333333329
sI11
F67.272727272727266
sI12
F65.25
sI13
F69.729729729729726
sI14
F68.82352941176471
sI15
F63.4375
sI16
F67
sI17
F67.142857142857139
sI18
F65
sI19
F68.799999999999997
sI20
F67.083333333333329
ssS'rbf_svc'
p11
(dp12
I2
F35.371900826446279
sI3
F38.633540372670808
sI4
F35.702479338842977
sI5
F37.5
sI6
F38.75
sI7
F36.666666666666664
sI8
F37.333333333333336
sI9
F41.509433962264154
sI10
F38.75
sI11
F38.86363636363636
sI12
F35.75
sI13
F39.45945945945946
sI14
F40.882352941176471
sI15
F39.375
sI16
F38.333333333333336
sI17
F35.357142857142861
sI18
F35.769230769230766
sI19
F36
sI20
F37.5
ssS'lin_svc'
p13
(dp14
I2
F52.024793388429757
sI3
F45.093167701863351
sI4
F49.504132231404959
sI5
F46.25
sI6
F53
sI7
F46.231884057971016
sI8
F54.500000000000007
sI9
F52.264150943396224
sI10
F51.249999999999993
sI11
F51.81818181818182
sI12
F52.5
sI13
F58.378378378378379
sI14
F54.117647058823529
sI15
F51.249999999999993
sI16
F47.666666666666671
sI17
F48.571428571428569
sI18
F56.92307692307692
sI19
F59.199999999999996
sI20
F47.916666666666671
sssS'level'
p15
S'behavior'
p16
sS'encode'
p17
S'AFF'
p18
sS'align'
p19
S'extend'
p20
sS'min_len'
p21
I500
sS'dataset'
p22
S'BC'
p23
s.