(dp1
S'subset'
p2
I00
sS'max_len'
p3
I1995
sS'avg_len'
p4
I1245
sS'accuracy'
p5
(dp6
S'poly_svc'
p7
(dp8
I2
F75.89473684210526
sI3
F78.412698412698418
sI4
F80.212765957446805
sI5
F76.05263157894737
sI6
F76.129032258064512
sI7
F81.481481481481481
sI8
F76.956521739130437
sI9
F77.61904761904762
sI10
F76.84210526315789
sI11
F77.058823529411768
sI12
F78.666666666666657
sI13
F77.857142857142861
sI14
F80
sI15
F80
sI16
F70.909090909090907
sI17
F80.909090909090907
sI18
F71
sI19
F80
sI20
F81.111111111111114
ssS'svc'
p9
(dp10
I2
F72.631578947368425
sI3
F75.396825396825392
sI4
F76.808510638297875
sI5
F75.526315789473685
sI6
F74.516129032258064
sI7
F78.148148148148138
sI8
F76.521739130434781
sI9
F77.61904761904762
sI10
F76.31578947368422
sI11
F75.882352941176464
sI12
F78
sI13
F74.285714285714292
sI14
F76.923076923076934
sI15
F76.666666666666671
sI16
F70
sI17
F83.636363636363626
sI18
F68
sI19
F76
sI20
F78.888888888888886
ssS'rbf_svc'
p11
(dp12
I2
F80.21052631578948
sI3
F80.317460317460316
sI4
F82.340425531914889
sI5
F80.78947368421052
sI6
F80.645161290322577
sI7
F85.925925925925924
sI8
F78.695652173913047
sI9
F81.904761904761898
sI10
F78.421052631578945
sI11
F78.82352941176471
sI12
F78
sI13
F80.714285714285722
sI14
F83.07692307692308
sI15
F85
sI16
F76.363636363636374
sI17
F85.454545454545453
sI18
F76
sI19
F80
sI20
F83.333333333333343
ssS'lin_svc'
p13
(dp14
I2
F71.684210526315795
sI3
F75.714285714285708
sI4
F75.531914893617028
sI5
F74.73684210526315
sI6
F73.225806451612911
sI7
F77.407407407407405
sI8
F75.65217391304347
sI9
F75.714285714285708
sI10
F76.31578947368422
sI11
F72.941176470588232
sI12
F76
sI13
F75
sI14
F76.153846153846146
sI15
F76.666666666666671
sI16
F68.181818181818173
sI17
F80.909090909090907
sI18
F66
sI19
F74
sI20
F75.555555555555557
sssS'level'
p15
S'task'
p16
sS'encode'
p17
S'FF'
p18
sS'align'
p19
S'interp'
p20
sS'min_len'
p21
I860
sS'dataset'
p22
S'B'
s.