(dp1
S'subset'
p2
I00
sS'max_len'
p3
I16799
sS'avg_len'
p4
I2068
sS'accuracy'
p5
(dp6
S'poly_svc'
p7
(dp8
I2
F44.32432432432433
sI3
F48.108108108108112
sI4
F54
sI5
F55.909090909090907
sI6
F52.162162162162161
sI7
F58.387096774193544
sI8
F62.962962962962962
sI9
F63.333333333333329
sI10
F53.181818181818187
sI11
F59
sI12
F52.777777777777779
sI13
F62.352941176470587
sI14
F59.333333333333336
sI15
F55.000000000000007
sI16
F56.153846153846153
sI17
F68.461538461538467
sI18
F55.833333333333336
sI19
F62.727272727272734
sI20
F60.909090909090914
ssS'svc'
p9
(dp10
I2
F77.747747747747752
sI3
F75.945945945945951
sI4
F78.72727272727272
sI5
F75.454545454545453
sI6
F78.648648648648646
sI7
F76.451612903225808
sI8
F80.370370370370367
sI9
F80.833333333333329
sI10
F73.636363636363626
sI11
F77.5
sI12
F73.333333333333329
sI13
F76.470588235294116
sI14
F74
sI15
F72.857142857142847
sI16
F79.230769230769226
sI17
F87.692307692307693
sI18
F78.333333333333329
sI19
F81.818181818181827
sI20
F77.272727272727266
ssS'rbf_svc'
p11
(dp12
I2
F69.819819819819813
sI3
F69.864864864864856
sI4
F68.545454545454547
sI5
F65.454545454545453
sI6
F69.189189189189193
sI7
F69.354838709677423
sI8
F67.037037037037038
sI9
F72.083333333333329
sI10
F72.727272727272734
sI11
F69.5
sI12
F67.777777777777786
sI13
F60.588235294117645
sI14
F68.666666666666671
sI15
F67.142857142857139
sI16
F69.230769230769226
sI17
F75.384615384615387
sI18
F66.666666666666657
sI19
F66.363636363636374
sI20
F74.545454545454547
ssS'lin_svc'
p13
(dp14
I2
F74.054054054054049
sI3
F72.567567567567565
sI4
F74
sI5
F73.86363636363636
sI6
F75.945945945945951
sI7
F73.548387096774192
sI8
F78.148148148148138
sI9
F77.5
sI10
F74.090909090909093
sI11
F76
sI12
F70
sI13
F70.588235294117652
sI14
F70.666666666666671
sI15
F70
sI16
F76.923076923076934
sI17
F80.769230769230774
sI18
F76.666666666666671
sI19
F74.545454545454547
sI20
F72.727272727272734
sssS'level'
p15
S'task'
p16
sS'encode'
p17
S'FF'
p18
sS'align'
p19
S'interp'
p20
sS'min_len'
p21
I860
sS'dataset'
p22
S'BC'
p23
s.