(dp1
S'subset'
p2
I00
sS'max_len'
p3
I14446
sS'avg_len'
p4
I1285
sS'accuracy'
p5
(dp6
S'poly_svc'
p7
(dp8
I2
F19.158878504672895
sI3
F21.830985915492956
sI4
F20.566037735849058
sI5
F20
sI6
F20.571428571428569
sI7
F20
sI8
F21.153846153846153
sI9
F16.521739130434781
sI10
F17.61904761904762
sI11
F15.263157894736842
sI12
F17.647058823529413
sI13
F23.75
sI14
F18
sI15
F15.714285714285714
sI16
F18.461538461538463
sI17
F20.833333333333336
sI18
F14.545454545454545
sI19
F16.363636363636363
sI20
F17
ssS'svc'
p9
(dp10
I2
F34.205607476635514
sI3
F41.267605633802816
sI4
F41.320754716981135
sI5
F41.666666666666671
sI6
F43.428571428571431
sI7
F44.666666666666664
sI8
F41.923076923076927
sI9
F41.739130434782609
sI10
F42.857142857142854
sI11
F46.315789473684212
sI12
F41.764705882352942
sI13
F45
sI14
F49.333333333333336
sI15
F45.714285714285715
sI16
F40.769230769230766
sI17
F45
sI18
F46.36363636363636
sI19
F42.727272727272727
sI20
F50
ssS'rbf_svc'
p11
(dp12
I2
F15.981308411214954
sI3
F20.845070422535212
sI4
F21.69811320754717
sI5
F19.761904761904763
sI6
F20.285714285714285
sI7
F17.666666666666668
sI8
F21.53846153846154
sI9
F20.434782608695652
sI10
F20.952380952380953
sI11
F18.947368421052634
sI12
F19.411764705882355
sI13
F18.75
sI14
F16
sI15
F18.571428571428573
sI16
F13.846153846153847
sI17
F18.333333333333332
sI18
F15.454545454545453
sI19
F18.181818181818183
sI20
F17
ssS'lin_svc'
p13
(dp14
I2
F38.13084112149533
sI3
F43.380281690140841
sI4
F42.641509433962263
sI5
F40.952380952380949
sI6
F46.571428571428569
sI7
F42.666666666666671
sI8
F45.384615384615387
sI9
F45.217391304347828
sI10
F47.142857142857139
sI11
F43.15789473684211
sI12
F41.764705882352942
sI13
F47.5
sI14
F46
sI15
F43.571428571428569
sI16
F40.769230769230766
sI17
F50
sI18
F45.454545454545453
sI19
F41.818181818181813
sI20
F51
sssS'level'
p15
S'behavior'
p16
sS'encode'
p17
S'FF'
p18
sS'align'
p19
S'interp'
p20
sS'min_len'
p21
I500
sS'dataset'
p22
S'AC'
p23
s.