(dp1
S'subset'
p2
I00
sS'max_len'
p3
I16799
sS'avg_len'
p4
I2028
sS'accuracy'
p5
(dp6
S'poly_svc'
p7
(dp8
I2
F57.539682539682538
sI3
F62.61904761904762
sI4
F66.825396825396822
sI5
F65
sI6
F70.238095238095227
sI7
F69.166666666666671
sI8
F68.387096774193552
sI9
F70.357142857142861
sI10
F67.200000000000003
sI11
F73.043478260869563
sI12
F70.952380952380949
sI13
F71.05263157894737
sI14
F66.111111111111114
sI15
F64.375
sI16
F68.666666666666671
sI17
F71.428571428571431
sI18
F65.714285714285708
sI19
F75.384615384615387
sI20
F68.333333333333329
ssS'svc'
p9
(dp10
I2
F75.555555555555557
sI3
F73.80952380952381
sI4
F77.142857142857153
sI5
F78.600000000000009
sI6
F77.38095238095238
sI7
F78.333333333333329
sI8
F77.096774193548384
sI9
F80
sI10
F78.400000000000006
sI11
F83.478260869565219
sI12
F80
sI13
F78.94736842105263
sI14
F73.333333333333329
sI15
F76.875
sI16
F78.666666666666657
sI17
F77.142857142857153
sI18
F75.714285714285708
sI19
F78.461538461538467
sI20
F75.833333333333329
ssS'rbf_svc'
p11
(dp12
I2
F60.55555555555555
sI3
F58.69047619047619
sI4
F62.38095238095238
sI5
F59.799999999999997
sI6
F60
sI7
F63.055555555555557
sI8
F55.806451612903231
sI9
F65.714285714285708
sI10
F59.199999999999996
sI11
F65.217391304347828
sI12
F62.857142857142854
sI13
F57.894736842105267
sI14
F55.555555555555557
sI15
F57.499999999999993
sI16
F65.333333333333329
sI17
F60
sI18
F61.428571428571431
sI19
F63.84615384615384
sI20
F66.666666666666657
ssS'lin_svc'
p13
(dp14
I2
F74.920634920634924
sI3
F74.404761904761912
sI4
F74.920634920634924
sI5
F77.400000000000006
sI6
F75.714285714285708
sI7
F75.277777777777771
sI8
F77.096774193548384
sI9
F76.785714285714292
sI10
F76.799999999999997
sI11
F83.043478260869563
sI12
F72.857142857142847
sI13
F77.89473684210526
sI14
F71.111111111111114
sI15
F72.5
sI16
F73.333333333333329
sI17
F75.714285714285708
sI18
F74.285714285714292
sI19
F76.923076923076934
sI20
F71.666666666666671
sssS'level'
p15
S'task'
p16
sS'encode'
p17
S'AFF'
p18
sS'align'
p19
S'interp'
p20
sS'min_len'
p21
I860
sS'dataset'
p22
S'ABC'
p23
s.