(dp1
S'subset'
p2
I00
sS'max_len'
p3
I14446
sS'avg_len'
p4
I1285
sS'accuracy'
p5
(dp6
S'poly_svc'
p7
(dp8
I2
F24.67289719626168
sI3
F28.028169014084508
sI4
F25.849056603773583
sI5
F22.61904761904762
sI6
F26.571428571428573
sI7
F23.333333333333332
sI8
F27.307692307692307
sI9
F36.95652173913043
sI10
F31.904761904761902
sI11
F27.89473684210526
sI12
F28.823529411764703
sI13
F28.749999999999996
sI14
F28.666666666666668
sI15
F27.857142857142858
sI16
F25.384615384615383
sI17
F30.833333333333336
sI18
F24.545454545454547
sI19
F26.36363636363636
sI20
F32
ssS'svc'
p9
(dp10
I2
F30.747663551401871
sI3
F37.605633802816904
sI4
F34.716981132075468
sI5
F33.80952380952381
sI6
F38.857142857142854
sI7
F32.666666666666664
sI8
F35
sI9
F44.782608695652179
sI10
F40
sI11
F36.315789473684212
sI12
F41.17647058823529
sI13
F40
sI14
F34
sI15
F37.857142857142854
sI16
F40
sI17
F34.166666666666664
sI18
F28.18181818181818
sI19
F38.181818181818187
sI20
F42
ssS'rbf_svc'
p11
(dp12
I2
F28.411214953271031
sI3
F29.718309859154928
sI4
F27.358490566037734
sI5
F24.523809523809522
sI6
F27.428571428571431
sI7
F25
sI8
F26.53846153846154
sI9
F30.434782608695656
sI10
F28.095238095238095
sI11
F25.789473684210527
sI12
F26.47058823529412
sI13
F24.375
sI14
F25.333333333333336
sI15
F30.714285714285715
sI16
F18.461538461538463
sI17
F20.833333333333336
sI18
F20
sI19
F26.36363636363636
sI20
F26
ssS'lin_svc'
p13
(dp14
I2
F22.616822429906541
sI3
F24.647887323943664
sI4
F26.60377358490566
sI5
F26.190476190476193
sI6
F31.714285714285712
sI7
F27.333333333333332
sI8
F27.307692307692307
sI9
F35.652173913043477
sI10
F30.476190476190478
sI11
F28.421052631578945
sI12
F32.352941176470587
sI13
F34.375
sI14
F25.333333333333336
sI15
F34.285714285714285
sI16
F31.538461538461537
sI17
F27.500000000000004
sI18
F23.636363636363637
sI19
F29.09090909090909
sI20
F34
sssS'level'
p15
S'behavior'
p16
sS'encode'
p17
S'AFF'
p18
sS'align'
p19
S'cut'
p20
sS'min_len'
p21
I500
sS'dataset'
p22
S'AC'
p23
s.