(lp1
(dp2
S'subset'
p3
I00
sS'max_len'
p4
I2123
sS'avg_len'
p5
I1736
sS'accuracy'
p6
(dp7
S'poly_svc'
p8
(dp9
I2
F34.666666666666671
sI3
F31
sI4
F38.571428571428577
sI5
F51.666666666666671
sI6
F40
sI7
F32.5
sI8
F30
sI9
F43.333333333333336
sI10
F33.333333333333329
sI11
F30
sI12
F65
sI13
F55.000000000000007
sI14
F50
sI15
F50
sI16
F50
sI17
F40
sI18
F70
sI19
F70
sI20
F50
ssS'svc'
p10
(dp11
I2
F88
sI3
F83
sI4
F77.142857142857153
sI5
F88.333333333333329
sI6
F82
sI7
F90
sI8
F90
sI9
F83.333333333333343
sI10
F90
sI11
F75
sI12
F90
sI13
F90
sI14
F90
sI15
F75
sI16
F80
sI17
F80
sI18
F100
sI19
F100
sI20
F100
ssS'rbf_svc'
p12
(dp13
I2
F60
sI3
F51
sI4
F55.714285714285715
sI5
F51.666666666666671
sI6
F38
sI7
F57.499999999999993
sI8
F43.333333333333336
sI9
F66.666666666666657
sI10
F70
sI11
F40
sI12
F45
sI13
F55.000000000000007
sI14
F60
sI15
F35
sI16
F60
sI17
F40
sI18
F80
sI19
F60
sI20
F50
ssS'lin_svc'
p14
(dp15
I2
F89.333333333333329
sI3
F86
sI4
F80
sI5
F88.333333333333329
sI6
F84
sI7
F90
sI8
F90
sI9
F83.333333333333343
sI10
F90
sI11
F85
sI12
F90
sI13
F90
sI14
F90
sI15
F80
sI16
F80
sI17
F80
sI18
F100
sI19
F100
sI20
F100
sssS'level'
p16
S'task'
p17
sS'encode'
p18
S'FF'
p19
sS'align'
p20
S'interp'
p21
sS'min_len'
p22
I1323
sS'dataset'
p23
S'A'
sa(dp24
g3
I00
sg4
I1995
sg5
I1245
sg6
(dp25
S'poly_svc'
p26
(dp27
I2
F75.89473684210526
sI3
F78.412698412698418
sI4
F80.212765957446805
sI5
F76.05263157894737
sI6
F76.129032258064512
sI7
F81.481481481481481
sI8
F76.956521739130437
sI9
F77.61904761904762
sI10
F76.84210526315789
sI11
F77.058823529411768
sI12
F78.666666666666657
sI13
F77.857142857142861
sI14
F80
sI15
F80
sI16
F70.909090909090907
sI17
F80.909090909090907
sI18
F71
sI19
F80
sI20
F81.111111111111114
ssS'svc'
p28
(dp29
I2
F72.631578947368425
sI3
F75.396825396825392
sI4
F76.808510638297875
sI5
F75.526315789473685
sI6
F74.516129032258064
sI7
F78.148148148148138
sI8
F76.521739130434781
sI9
F77.61904761904762
sI10
F76.31578947368422
sI11
F75.882352941176464
sI12
F78
sI13
F74.285714285714292
sI14
F76.923076923076934
sI15
F76.666666666666671
sI16
F70
sI17
F83.636363636363626
sI18
F68
sI19
F76
sI20
F78.888888888888886
ssS'rbf_svc'
p30
(dp31
I2
F80.21052631578948
sI3
F80.317460317460316
sI4
F82.340425531914889
sI5
F80.78947368421052
sI6
F80.645161290322577
sI7
F85.925925925925924
sI8
F78.695652173913047
sI9
F81.904761904761898
sI10
F78.421052631578945
sI11
F78.82352941176471
sI12
F78
sI13
F80.714285714285722
sI14
F83.07692307692308
sI15
F85
sI16
F76.363636363636374
sI17
F85.454545454545453
sI18
F76
sI19
F80
sI20
F83.333333333333343
ssS'lin_svc'
p32
(dp33
I2
F71.684210526315795
sI3
F75.714285714285708
sI4
F75.531914893617028
sI5
F74.73684210526315
sI6
F73.225806451612911
sI7
F77.407407407407405
sI8
F75.65217391304347
sI9
F75.714285714285708
sI10
F76.31578947368422
sI11
F72.941176470588232
sI12
F76
sI13
F75
sI14
F76.153846153846146
sI15
F76.666666666666671
sI16
F68.181818181818173
sI17
F80.909090909090907
sI18
F66
sI19
F74
sI20
F75.555555555555557
sssg16
g17
sg18
g19
sg20
g21
sg22
I860
sg23
S'B'
sa(dp34
g3
I00
sg4
I16799
sg5
I6960
sg6
(dp35
S'poly_svc'
p36
(dp37
I2
F80
sI3
F81
sI4
F82.5
sI5
F80
sI6
F72
sI7
F85
sI8
F80
sI9
F80
sI10
F86.666666666666671
sI11
F75
sI12
F90
sI13
F90
sI14
F80
sI15
F55.000000000000007
sI16
F95
sI17
F90
sI18
F80
sI19
F80
sI20
F80
ssS'svc'
p38
(dp39
I2
F80
sI3
F81
sI4
F82.5
sI5
F80
sI6
F72
sI7
F85
sI8
F80
sI9
F80
sI10
F86.666666666666671
sI11
F75
sI12
F90
sI13
F90
sI14
F80
sI15
F55.000000000000007
sI16
F95
sI17
F90
sI18
F80
sI19
F80
sI20
F80
ssS'rbf_svc'
p40
(dp41
I2
F80
sI3
F81
sI4
F82.5
sI5
F80
sI6
F72
sI7
F85
sI8
F80
sI9
F80
sI10
F86.666666666666671
sI11
F75
sI12
F90
sI13
F90
sI14
F80
sI15
F55.000000000000007
sI16
F95
sI17
F90
sI18
F80
sI19
F80
sI20
F80
ssS'lin_svc'
p42
(dp43
I2
F81.875
sI3
F82
sI4
F82.5
sI5
F83.333333333333343
sI6
F72
sI7
F85
sI8
F80
sI9
F80
sI10
F86.666666666666671
sI11
F75
sI12
F90
sI13
F90
sI14
F80
sI15
F55.000000000000007
sI16
F95
sI17
F90
sI18
F80
sI19
F80
sI20
F80
sssg16
g17
sg18
g19
sg20
g21
sg22
I4397
sg23
S'C'
sa(dp44
g3
I00
sg4
I16799
sg5
I4389
sg6
(dp45
S'poly_svc'
p46
(dp47
I2
F40.967741935483872
sI3
F40.952380952380949
sI4
F47.333333333333336
sI5
F49.166666666666664
sI6
F37
sI7
F48.888888888888886
sI8
F37.142857142857146
sI9
F51.428571428571423
sI10
F50
sI11
F32
sI12
F44
sI13
F47.5
sI14
F50
sI15
F52.5
sI16
F36.666666666666664
sI17
F60
sI18
F43.333333333333336
sI19
F46.666666666666664
sI20
F50
ssS'svc'
p48
(dp49
I2
F71.290322580645153
sI3
F76.19047619047619
sI4
F80
sI5
F81.666666666666671
sI6
F73
sI7
F80
sI8
F75.714285714285708
sI9
F80
sI10
F85
sI11
F72
sI12
F80
sI13
F75
sI14
F70
sI15
F82.5
sI16
F93.333333333333329
sI17
F90
sI18
F86.666666666666671
sI19
F73.333333333333329
sI20
F80
ssS'rbf_svc'
p50
(dp51
I2
F35.483870967741936
sI3
F33.80952380952381
sI4
F42
sI5
F42.5
sI6
F32
sI7
F40
sI8
F24.285714285714285
sI9
F47.142857142857139
sI10
F46.666666666666664
sI11
F28.000000000000004
sI12
F36
sI13
F45
sI14
F42.5
sI15
F45
sI16
F30
sI17
F50
sI18
F40
sI19
F43.333333333333336
sI20
F43.333333333333336
ssS'lin_svc'
p52
(dp53
I2
F77.096774193548384
sI3
F79.523809523809518
sI4
F84.666666666666671
sI5
F85
sI6
F77
sI7
F83.333333333333343
sI8
F81.428571428571431
sI9
F84.285714285714292
sI10
F86.666666666666671
sI11
F80
sI12
F84
sI13
F77.5
sI14
F77.5
sI15
F85
sI16
F93.333333333333329
sI17
F90
sI18
F90
sI19
F80
sI20
F80
sssg16
g17
sg18
g19
sg20
g21
sg22
I1323
sg23
S'AC'
p54
sa(dp55
g3
I00
sg4
I16799
sg5
I2068
sg6
(dp56
S'poly_svc'
p57
(dp58
I2
F44.32432432432433
sI3
F48.108108108108112
sI4
F54
sI5
F55.909090909090907
sI6
F52.162162162162161
sI7
F58.387096774193544
sI8
F62.962962962962962
sI9
F63.333333333333329
sI10
F53.181818181818187
sI11
F59
sI12
F52.777777777777779
sI13
F62.352941176470587
sI14
F59.333333333333336
sI15
F55.000000000000007
sI16
F56.153846153846153
sI17
F68.461538461538467
sI18
F55.833333333333336
sI19
F62.727272727272734
sI20
F60.909090909090914
ssS'svc'
p59
(dp60
I2
F77.747747747747752
sI3
F75.945945945945951
sI4
F78.72727272727272
sI5
F75.454545454545453
sI6
F78.648648648648646
sI7
F76.451612903225808
sI8
F80.370370370370367
sI9
F80.833333333333329
sI10
F73.636363636363626
sI11
F77.5
sI12
F73.333333333333329
sI13
F76.470588235294116
sI14
F74
sI15
F72.857142857142847
sI16
F79.230769230769226
sI17
F87.692307692307693
sI18
F78.333333333333329
sI19
F81.818181818181827
sI20
F77.272727272727266
ssS'rbf_svc'
p61
(dp62
I2
F69.819819819819813
sI3
F69.864864864864856
sI4
F68.545454545454547
sI5
F65.454545454545453
sI6
F69.189189189189193
sI7
F69.354838709677423
sI8
F67.037037037037038
sI9
F72.083333333333329
sI10
F72.727272727272734
sI11
F69.5
sI12
F67.777777777777786
sI13
F60.588235294117645
sI14
F68.666666666666671
sI15
F67.142857142857139
sI16
F69.230769230769226
sI17
F75.384615384615387
sI18
F66.666666666666657
sI19
F66.363636363636374
sI20
F74.545454545454547
ssS'lin_svc'
p63
(dp64
I2
F74.054054054054049
sI3
F72.567567567567565
sI4
F74
sI5
F73.86363636363636
sI6
F75.945945945945951
sI7
F73.548387096774192
sI8
F78.148148148148138
sI9
F77.5
sI10
F74.090909090909093
sI11
F76
sI12
F70
sI13
F70.588235294117652
sI14
F70.666666666666671
sI15
F70
sI16
F76.923076923076934
sI17
F80.769230769230774
sI18
F76.666666666666671
sI19
F74.545454545454547
sI20
F72.727272727272734
sssg16
g17
sg18
g19
sg20
g21
sg22
I860
sg23
S'BC'
p65
sa(dp66
g3
I00
sg4
I16799
sg5
I2028
sg6
(dp67
S'poly_svc'
p68
(dp69
I2
F40.714285714285715
sI3
F47.023809523809526
sI4
F52.539682539682545
sI5
F50.200000000000003
sI6
F52.380952380952387
sI7
F52.222222222222229
sI8
F57.41935483870968
sI9
F50.714285714285708
sI10
F51.200000000000003
sI11
F56.086956521739125
sI12
F64.285714285714292
sI13
F60
sI14
F53.888888888888886
sI15
F55.000000000000007
sI16
F61.333333333333329
sI17
F55.000000000000007
sI18
F56.428571428571431
sI19
F58.461538461538467
sI20
F66.666666666666657
ssS'svc'
p70
(dp71
I2
F73.412698412698404
sI3
F74.285714285714292
sI4
F76.666666666666671
sI5
F74.599999999999994
sI6
F75.714285714285708
sI7
F76.388888888888886
sI8
F74.838709677419359
sI9
F76.071428571428569
sI10
F70.799999999999997
sI11
F77.826086956521735
sI12
F80.952380952380949
sI13
F81.578947368421055
sI14
F72.222222222222214
sI15
F75.625
sI16
F78.666666666666657
sI17
F81.428571428571431
sI18
F77.142857142857153
sI19
F78.461538461538467
sI20
F83.333333333333343
ssS'rbf_svc'
p72
(dp73
I2
F60.714285714285708
sI3
F60.833333333333329
sI4
F60.476190476190474
sI5
F61.600000000000001
sI6
F59.047619047619051
sI7
F64.166666666666671
sI8
F60
sI9
F57.857142857142861
sI10
F58.399999999999999
sI11
F63.913043478260867
sI12
F62.857142857142854
sI13
F57.368421052631582
sI14
F57.777777777777771
sI15
F57.499999999999993
sI16
F64
sI17
F67.857142857142861
sI18
F59.285714285714285
sI19
F60
sI20
F61.666666666666671
ssS'lin_svc'
p74
(dp75
I2
F70.952380952380949
sI3
F70.11904761904762
sI4
F74.285714285714292
sI5
F70.799999999999997
sI6
F72.61904761904762
sI7
F73.888888888888886
sI8
F73.870967741935488
sI9
F73.214285714285708
sI10
F68.799999999999997
sI11
F73.91304347826086
sI12
F78.095238095238102
sI13
F72.631578947368425
sI14
F68.888888888888886
sI15
F74.375
sI16
F76
sI17
F77.142857142857153
sI18
F72.857142857142847
sI19
F73.846153846153854
sI20
F83.333333333333343
sssg16
g17
sg18
g19
sg20
g21
sg22
I860
sg23
S'ABC'
p76
sa.