(dp1
S'subset'
p2
I00
sS'max_len'
p3
I915
sS'avg_len'
p4
I471
sS'accuracy'
p5
(dp6
S'poly_svc'
p7
(dp8
I2
F35.272727272727273
sI3
F38.378378378378379
sI4
F40.370370370370374
sI5
F34.545454545454547
sI6
F38.888888888888893
sI7
F37.333333333333336
sI8
F33.076923076923073
sI9
F39.166666666666664
sI10
F47.272727272727273
sI11
F39
sI12
F36.666666666666664
sI13
F38.75
sI14
F47.142857142857139
sI15
F44.285714285714285
sI16
F38.333333333333336
sI17
F41.666666666666671
sI18
F46.666666666666664
sI19
F46
sI20
F48
ssS'svc'
p9
(dp10
I2
F29.09090909090909
sI3
F31.891891891891895
sI4
F31.851851851851855
sI5
F28.636363636363637
sI6
F36.111111111111107
sI7
F30
sI8
F27.692307692307693
sI9
F32.5
sI10
F39.090909090909093
sI11
F31
sI12
F28.888888888888886
sI13
F33.75
sI14
F40
sI15
F42.857142857142854
sI16
F31.666666666666664
sI17
F38.333333333333336
sI18
F31.666666666666664
sI19
F34
sI20
F42
ssS'rbf_svc'
p11
(dp12
I2
F20.18181818181818
sI3
F16.756756756756758
sI4
F17.777777777777779
sI5
F16.818181818181817
sI6
F12.777777777777777
sI7
F10.666666666666668
sI8
F13.846153846153847
sI9
F23.333333333333332
sI10
F9.0909090909090917
sI11
F21
sI12
F17.777777777777779
sI13
F21.25
sI14
F14.285714285714285
sI15
F14.285714285714285
sI16
F11.666666666666666
sI17
F16.666666666666664
sI18
F13.333333333333334
sI19
F24
sI20
F10
ssS'lin_svc'
p13
(dp14
I2
F30.363636363636363
sI3
F36.216216216216218
sI4
F33.703703703703702
sI5
F32.727272727272727
sI6
F39.444444444444443
sI7
F33.333333333333329
sI8
F29.230769230769234
sI9
F31.666666666666664
sI10
F36.363636363636367
sI11
F30
sI12
F31.111111111111111
sI13
F35
sI14
F40
sI15
F40
sI16
F28.333333333333332
sI17
F36.666666666666664
sI18
F33.333333333333329
sI19
F34
sI20
F40
sssS'level'
p15
S'behavior'
p16
sS'encode'
p17
S'AFF'
p18
sS'align'
p19
S'interp'
p20
sS'min_len'
p21
I500
sS'dataset'
p22
S'A'
s.