(dp1
S'subset'
p2
I00
sS'max_len'
p3
I14446
sS'avg_len'
p4
I2162
sS'accuracy'
p5
(dp6
S'poly_svc'
p7
(dp8
I2
F19.607843137254903
sI3
F17.941176470588236
sI4
F20.399999999999999
sI5
F21
sI6
F18.235294117647058
sI7
F17.142857142857142
sI8
F18.333333333333332
sI9
F17.272727272727273
sI10
F16
sI11
F17.777777777777779
sI12
F7.5
sI13
F18.571428571428573
sI14
F14.285714285714285
sI15
F11.666666666666666
sI16
F15
sI17
F13.333333333333334
sI18
F12
sI19
F14.000000000000002
sI20
F8
ssS'svc'
p9
(dp10
I2
F44.901960784313729
sI3
F48.235294117647058
sI4
F64.799999999999997
sI5
F63.5
sI6
F66.470588235294116
sI7
F61.428571428571431
sI8
F60
sI9
F62.727272727272734
sI10
F60
sI11
F63.333333333333329
sI12
F65
sI13
F61.428571428571431
sI14
F60
sI15
F65
sI16
F66.666666666666657
sI17
F78.333333333333329
sI18
F57.999999999999993
sI19
F64
sI20
F62
ssS'rbf_svc'
p11
(dp12
I2
F36.078431372549019
sI3
F32.941176470588232
sI4
F36.399999999999999
sI5
F35
sI6
F37.647058823529413
sI7
F37.857142857142854
sI8
F34.166666666666664
sI9
F36.363636363636367
sI10
F39
sI11
F34.444444444444443
sI12
F31.25
sI13
F38.571428571428577
sI14
F32.857142857142854
sI15
F41.666666666666671
sI16
F33.333333333333329
sI17
F30
sI18
F28.000000000000004
sI19
F28.000000000000004
sI20
F32
ssS'lin_svc'
p13
(dp14
I2
F50.196078431372548
sI3
F51.764705882352949
sI4
F57.599999999999994
sI5
F59
sI6
F60.588235294117645
sI7
F52.857142857142861
sI8
F62.5
sI9
F60
sI10
F56.999999999999993
sI11
F55.555555555555557
sI12
F58.75
sI13
F57.142857142857139
sI14
F67.142857142857139
sI15
F66.666666666666657
sI16
F61.666666666666671
sI17
F73.333333333333329
sI18
F48
sI19
F62
sI20
F56.000000000000007
sssS'level'
p15
S'behavior'
p16
sS'encode'
p17
S'FF'
p18
sS'align'
p19
S'interp'
p20
sS'min_len'
p21
I500
sS'dataset'
p22
S'C'
s.