(lp1
(dp2
S'subset'
p3
I00
sS'level'
p4
S'behavior'
p5
sS'align'
p6
S'extend'
p7
sS'min_len'
p8
I500
sS'dataset'
p9
S'A'
sS'max_len'
p10
I915
sS'avg_len'
p11
I471
sS'encode'
p12
S'AFF'
p13
sS'accuracy'
p14
(dp15
S'poly_svc'
p16
(dp17
I2
F45.636363636363633
sI3
F50.270270270270267
sI4
F48.888888888888886
sI5
F47.727272727272727
sI6
F51.666666666666671
sI7
F52.666666666666664
sI8
F47.692307692307693
sI9
F49.166666666666664
sI10
F54.54545454545454
sI11
F41
sI12
F50
sI13
F43.75
sI14
F42.857142857142854
sI15
F51.428571428571423
sI16
F46.666666666666664
sI17
F45
sI18
F48.333333333333336
sI19
F62
sI20
F48
ssS'svc'
p18
(dp19
I2
F30.181818181818183
sI3
F34.864864864864863
sI4
F33.703703703703702
sI5
F33.181818181818187
sI6
F35
sI7
F36
sI8
F36.923076923076927
sI9
F35.833333333333336
sI10
F41.818181818181813
sI11
F34
sI12
F41.111111111111107
sI13
F35
sI14
F28.571428571428569
sI15
F44.285714285714285
sI16
F33.333333333333329
sI17
F35
sI18
F35
sI19
F46
sI20
F44
ssS'rbf_svc'
p20
(dp21
I2
F20
sI3
F16.756756756756758
sI4
F17.407407407407408
sI5
F14.09090909090909
sI6
F15
sI7
F18.666666666666668
sI8
F12.307692307692308
sI9
F12.5
sI10
F16.363636363636363
sI11
F10
sI12
F12.222222222222221
sI13
F12.5
sI14
F11.428571428571429
sI15
F14.285714285714285
sI16
F11.666666666666666
sI17
F6.666666666666667
sI18
F5
sI19
F10
sI20
F12
ssS'lin_svc'
p22
(dp23
I2
F33.272727272727273
sI3
F31.621621621621621
sI4
F29.629629629629626
sI5
F34.090909090909086
sI6
F35
sI7
F38.666666666666664
sI8
F34.615384615384613
sI9
F36.666666666666664
sI10
F37.272727272727273
sI11
F37
sI12
F41.111111111111107
sI13
F32.5
sI14
F27.142857142857142
sI15
F44.285714285714285
sI16
F35
sI17
F38.333333333333336
sI18
F31.666666666666664
sI19
F42
sI20
F36
sssa(dp24
S'subset'
p25
I00
sS'level'
p26
S'behavior'
p27
sS'align'
p28
S'extend'
p29
sS'min_len'
p30
I500
sS'dataset'
p31
S'B'
sS'max_len'
p32
I1995
sS'avg_len'
p33
I620
sS'encode'
p34
S'AFF'
p35
sS'accuracy'
p36
(dp37
S'poly_svc'
p38
(dp39
I2
F79.473684210526315
sI3
F80.078740157480311
sI4
F80.526315789473685
sI5
F81.973684210526315
sI6
F81.428571428571431
sI7
F79.259259259259267
sI8
F81.276595744680847
sI9
F79.285714285714278
sI10
F82.10526315789474
sI11
F79.411764705882348
sI12
F81.612903225806448
sI13
F82.068965517241381
sI14
F81.481481481481481
sI15
F80
sI16
F81.304347826086953
sI17
F79.545454545454547
sI18
F82.38095238095238
sI19
F85.5
sI20
F84.210526315789465
ssS'svc'
p40
(dp41
I2
F75.31578947368422
sI3
F75.354330708661422
sI4
F75.26315789473685
sI5
F75.657894736842096
sI6
F76.825396825396837
sI7
F75.555555555555557
sI8
F77.021276595744681
sI9
F76.666666666666671
sI10
F77.368421052631575
sI11
F75.882352941176464
sI12
F77.096774193548384
sI13
F79.310344827586206
sI14
F77.037037037037038
sI15
F76.799999999999997
sI16
F76.08695652173914
sI17
F75.454545454545453
sI18
F77.61904761904762
sI19
F80.5
sI20
F73.68421052631578
ssS'rbf_svc'
p42
(dp43
I2
F45.10526315789474
sI3
F47.086614173228348
sI4
F47.684210526315788
sI5
F47.10526315789474
sI6
F46.666666666666664
sI7
F48.888888888888886
sI8
F49.574468085106382
sI9
F45.952380952380949
sI10
F48.157894736842103
sI11
F50
sI12
F49.032258064516128
sI13
F53.448275862068961
sI14
F47.407407407407412
sI15
F45.200000000000003
sI16
F45.652173913043477
sI17
F46.81818181818182
sI18
F45.714285714285715
sI19
F52
sI20
F43.684210526315795
ssS'lin_svc'
p44
(dp45
I2
F72
sI3
F73.228346456692918
sI4
F74.210526315789465
sI5
F70.263157894736835
sI6
F73.492063492063494
sI7
F72.962962962962962
sI8
F74.468085106382972
sI9
F73.80952380952381
sI10
F73.94736842105263
sI11
F74.117647058823536
sI12
F72.58064516129032
sI13
F76.896551724137936
sI14
F75.18518518518519
sI15
F77.200000000000003
sI16
F69.565217391304344
sI17
F67.72727272727272
sI18
F76.19047619047619
sI19
F71.5
sI20
F73.15789473684211
sssa(dp46
S'subset'
p47
I00
sS'level'
p48
S'behavior'
p49
sS'align'
p50
S'extend'
p51
sS'min_len'
p52
I500
sS'dataset'
p53
S'C'
sS'max_len'
p54
I14446
sS'avg_len'
p55
I2162
sS'encode'
p56
S'AFF'
p57
sS'accuracy'
p58
(dp59
S'poly_svc'
p60
(dp61
I2
F24.509803921568626
sI3
F24.705882352941178
sI4
F27.600000000000001
sI5
F31.5
sI6
F35.882352941176471
sI7
F31.428571428571427
sI8
F26.666666666666668
sI9
F26.36363636363636
sI10
F34
sI11
F34.444444444444443
sI12
F35
sI13
F21.428571428571427
sI14
F32.857142857142854
sI15
F36.666666666666664
sI16
F35
sI17
F28.333333333333332
sI18
F32
sI19
F20
sI20
F36
ssS'svc'
p62
(dp63
I2
F45.882352941176471
sI3
F49.705882352941174
sI4
F49.600000000000001
sI5
F52
sI6
F50.588235294117645
sI7
F43.571428571428569
sI8
F54.166666666666664
sI9
F43.636363636363633
sI10
F48
sI11
F55.555555555555557
sI12
F52.5
sI13
F44.285714285714285
sI14
F45.714285714285715
sI15
F53.333333333333336
sI16
F61.666666666666671
sI17
F53.333333333333336
sI18
F44
sI19
F56.000000000000007
sI20
F54
ssS'rbf_svc'
p64
(dp65
I2
F21.176470588235293
sI3
F18.823529411764707
sI4
F20
sI5
F21.5
sI6
F19.411764705882355
sI7
F13.571428571428571
sI8
F9.1666666666666661
sI9
F10
sI10
F15
sI11
F13.333333333333334
sI12
F15
sI13
F11.428571428571429
sI14
F15.714285714285714
sI15
F10
sI16
F10
sI17
F16.666666666666664
sI18
F6
sI19
F12
sI20
F12
ssS'lin_svc'
p66
(dp67
I2
F47.254901960784309
sI3
F48.823529411764703
sI4
F46
sI5
F54.500000000000007
sI6
F48.823529411764703
sI7
F43.571428571428569
sI8
F50.833333333333329
sI9
F44.545454545454547
sI10
F46
sI11
F52.222222222222229
sI12
F56.25
sI13
F44.285714285714285
sI14
F45.714285714285715
sI15
F53.333333333333336
sI16
F63.333333333333329
sI17
F51.666666666666671
sI18
F42
sI19
F52
sI20
F52
sssa(dp68
S'subset'
p69
I00
sS'max_len'
p70
I14446
sS'avg_len'
p71
I1285
sS'accuracy'
p72
(dp73
S'poly_svc'
p74
(dp75
I2
F22.710280373831775
sI3
F23.239436619718308
sI4
F21.509433962264151
sI5
F23.809523809523807
sI6
F21.428571428571427
sI7
F26
sI8
F27.692307692307693
sI9
F29.130434782608695
sI10
F25.238095238095237
sI11
F27.89473684210526
sI12
F25.882352941176475
sI13
F27.500000000000004
sI14
F26
sI15
F22.142857142857142
sI16
F25.384615384615383
sI17
F24.166666666666668
sI18
F25.454545454545453
sI19
F33.636363636363633
sI20
F22
ssS'svc'
p76
(dp77
I2
F36.44859813084112
sI3
F36.901408450704224
sI4
F33.584905660377359
sI5
F37.61904761904762
sI6
F33.428571428571431
sI7
F38.666666666666664
sI8
F38.076923076923073
sI9
F34.347826086956523
sI10
F37.142857142857146
sI11
F33.684210526315788
sI12
F39.411764705882355
sI13
F43.125
sI14
F35.333333333333336
sI15
F35
sI16
F35.384615384615387
sI17
F36.666666666666664
sI18
F36.363636363636367
sI19
F39.090909090909093
sI20
F32
ssS'rbf_svc'
p78
(dp79
I2
F11.588785046728972
sI3
F11.126760563380282
sI4
F10.943396226415095
sI5
F9.7619047619047628
sI6
F10.571428571428571
sI7
F9.3333333333333339
sI8
F10.384615384615385
sI9
F10
sI10
F7.1428571428571423
sI11
F7.8947368421052628
sI12
F7.0588235294117645
sI13
F8.125
sI14
F9.3333333333333339
sI15
F8.5714285714285712
sI16
F7.6923076923076925
sI17
F5.833333333333333
sI18
F4.5454545454545459
sI19
F4.5454545454545459
sI20
F8
ssS'lin_svc'
p80
(dp81
I2
F35.420560747663551
sI3
F32.816901408450704
sI4
F30
sI5
F31.19047619047619
sI6
F26
sI7
F32
sI8
F30
sI9
F30.434782608695656
sI10
F28.571428571428569
sI11
F30.526315789473685
sI12
F28.823529411764703
sI13
F36.875
sI14
F22.666666666666664
sI15
F22.857142857142858
sI16
F28.46153846153846
sI17
F26.666666666666668
sI18
F35.454545454545453
sI19
F34.545454545454547
sI20
F24
sssS'level'
p82
S'behavior'
p83
sS'encode'
p84
S'AFF'
p85
sS'align'
p86
S'extend'
p87
sS'min_len'
p88
I500
sS'dataset'
p89
S'AC'
p90
sa(dp91
g69
I00
sg70
I14446
sg71
I948
sg72
(dp92
S'poly_svc'
p93
(dp94
I2
F63.016528925619831
sI3
F63.602484472049689
sI4
F63.057851239669425
sI5
F63.645833333333336
sI6
F63.749999999999993
sI7
F63.623188405797102
sI8
F65
sI9
F65.283018867924525
sI10
F66.666666666666657
sI11
F61.590909090909093
sI12
F63.749999999999993
sI13
F64.324324324324323
sI14
F63.823529411764703
sI15
F63.125
sI16
F68.666666666666671
sI17
F59.285714285714285
sI18
F63.46153846153846
sI19
F63.600000000000001
sI20
F65
ssS'svc'
p95
(dp96
I2
F61.942148760330575
sI3
F63.850931677018629
sI4
F64.545454545454547
sI5
F64.791666666666671
sI6
F66.5
sI7
F65.072463768115938
sI8
F66.5
sI9
F67.169811320754718
sI10
F67.5
sI11
F66.590909090909093
sI12
F65
sI13
F65.675675675675677
sI14
F68.235294117647058
sI15
F65
sI16
F68.333333333333329
sI17
F65
sI18
F64.615384615384613
sI19
F65.200000000000003
sI20
F67.5
ssS'rbf_svc'
p97
(dp98
I2
F35.991735537190081
sI3
F37.639751552795033
sI4
F37.438016528925623
sI5
F37.8125
sI6
F37.375
sI7
F36.231884057971016
sI8
F38.5
sI9
F37.735849056603776
sI10
F39.583333333333329
sI11
F37.5
sI12
F36.75
sI13
F38.378378378378379
sI14
F38.235294117647058
sI15
F40
sI16
F38.666666666666664
sI17
F33.928571428571431
sI18
F34.615384615384613
sI19
F33.600000000000001
sI20
F41.666666666666671
ssS'lin_svc'
p99
(dp100
I2
F37.727272727272727
sI3
F41.118012422360252
sI4
F45.619834710743802
sI5
F47.395833333333329
sI6
F46.25
sI7
F50
sI8
F55.666666666666664
sI9
F52.075471698113205
sI10
F55.416666666666671
sI11
F57.499999999999993
sI12
F49.75
sI13
F55.945945945945944
sI14
F55.882352941176471
sI15
F54.0625
sI16
F55.666666666666664
sI17
F53.928571428571423
sI18
F51.538461538461533
sI19
F40.400000000000006
sI20
F52.5
sssg82
g83
sg84
g85
sg86
g87
sg88
I500
sg89
S'BC'
p101
sa(dp102
g69
I00
sg70
I14446
sg71
I859
sg72
(dp103
S'poly_svc'
p104
(dp105
I2
F54.646464646464644
sI3
F54.949494949494948
sI4
F55.270270270270274
sI5
F56.638655462184872
sI6
F56.767676767676768
sI7
F56.941176470588239
sI8
F56.351351351351354
sI9
F53.939393939393945
sI10
F56.779661016949156
sI11
F55.740740740740748
sI12
F56.12244897959183
sI13
F56.444444444444443
sI14
F55.476190476190482
sI15
F60.512820512820511
sI16
F51.891891891891895
sI17
F53.714285714285715
sI18
F58.484848484848484
sI19
F54.838709677419352
sI20
F52.758620689655174
ssS'svc'
p106
(dp107
I2
F54.343434343434339
sI3
F56.464646464646464
sI4
F56.148648648648646
sI5
F57.983193277310932
sI6
F56.060606060606055
sI7
F58.352941176470587
sI8
F57.027027027027025
sI9
F57.727272727272727
sI10
F59.322033898305079
sI11
F56.851851851851855
sI12
F60.408163265306122
sI13
F61.777777777777779
sI14
F57.142857142857139
sI15
F63.333333333333329
sI16
F55.945945945945944
sI17
F59.142857142857139
sI18
F60.303030303030305
sI19
F56.774193548387096
sI20
F55.517241379310342
ssS'rbf_svc'
p108
(dp109
I2
F29.393939393939394
sI3
F31.313131313131315
sI4
F32.027027027027025
sI5
F32.100840336134453
sI6
F32.525252525252526
sI7
F32.235294117647058
sI8
F33.783783783783782
sI9
F31.212121212121215
sI10
F30.847457627118647
sI11
F32.037037037037038
sI12
F32.448979591836732
sI13
F32.888888888888893
sI14
F32.142857142857146
sI15
F33.333333333333329
sI16
F28.648648648648649
sI17
F32
sI18
F33.030303030303031
sI19
F31.93548387096774
sI20
F26.896551724137929
ssS'lin_svc'
p110
(dp111
I2
F30.505050505050509
sI3
F34.595959595959599
sI4
F28.310810810810811
sI5
F26.806722689075631
sI6
F30.707070707070706
sI7
F21.882352941176471
sI8
F26.486486486486488
sI9
F25.454545454545453
sI10
F26.779661016949152
sI11
F22.592592592592592
sI12
F27.755102040816325
sI13
F25.555555555555554
sI14
F25.476190476190474
sI15
F26.923076923076923
sI16
F24.054054054054056
sI17
F29.714285714285715
sI18
F26.060606060606062
sI19
F21.612903225806452
sI20
F22.068965517241381
sssg82
g83
sg84
g85
sg86
g87
sg88
I500
sg89
S'ABC'
p112
sa.