(dp1
S'subset'
p2
I00
sS'max_len'
p3
I14446
sS'avg_len'
p4
I948
sS'accuracy'
p5
(dp6
S'poly_svc'
p7
(dp8
I2
F63.801652892561989
sI3
F64.347826086956516
sI4
F64.214876033057848
sI5
F64.166666666666671
sI6
F65
sI7
F64.05797101449275
sI8
F67.666666666666657
sI9
F61.509433962264147
sI10
F66.25
sI11
F60.227272727272727
sI12
F67
sI13
F63.78378378378379
sI14
F62.941176470588232
sI15
F64.6875
sI16
F58.666666666666664
sI17
F67.5
sI18
F69.615384615384613
sI19
F71.200000000000003
sI20
F66.25
ssS'svc'
p9
(dp10
I2
F52.066115702479344
sI3
F55.155279503105589
sI4
F56.859504132231407
sI5
F57.604166666666664
sI6
F58.5
sI7
F55.217391304347828
sI8
F61.833333333333329
sI9
F59.433962264150942
sI10
F58.541666666666671
sI11
F55.909090909090907
sI12
F60.25
sI13
F61.621621621621628
sI14
F59.411764705882355
sI15
F56.562500000000007
sI16
F59.333333333333336
sI17
F58.928571428571431
sI18
F64.230769230769241
sI19
F66
sI20
F61.250000000000007
ssS'rbf_svc'
p11
(dp12
I2
F66.074380165289256
sI3
F66.397515527950318
sI4
F65.619834710743802
sI5
F66.354166666666671
sI6
F67.875
sI7
F65.94202898550725
sI8
F70
sI9
F65.849056603773576
sI10
F67.291666666666671
sI11
F63.409090909090907
sI12
F68.75
sI13
F69.729729729729726
sI14
F64.411764705882362
sI15
F65.3125
sI16
F62.333333333333329
sI17
F69.642857142857139
sI18
F69.230769230769226
sI19
F74.400000000000006
sI20
F69.583333333333329
ssS'lin_svc'
p13
(dp14
I2
F42.396694214876035
sI3
F40
sI4
F43.305785123966942
sI5
F32.1875
sI6
F33.75
sI7
F29.710144927536231
sI8
F38.666666666666664
sI9
F35.660377358490564
sI10
F38.541666666666671
sI11
F45.681818181818187
sI12
F47.25
sI13
F44.594594594594597
sI14
F32.352941176470587
sI15
F42.1875
sI16
F44.666666666666664
sI17
F45.357142857142854
sI18
F37.307692307692307
sI19
F51.600000000000001
sI20
F34.583333333333336
sssS'level'
p15
S'behavior'
p16
sS'encode'
p17
S'AFF'
p18
sS'align'
p19
S'cut'
p20
sS'min_len'
p21
I500
sS'dataset'
p22
S'BC'
p23
s.