(dp1
S'subset'
p2
I00
sS'max_len'
p3
I1995
sS'avg_len'
p4
I620
sS'accuracy'
p5
(dp6
S'poly_svc'
p7
(dp8
I2
F70.05263157894737
sI3
F71.889763779527556
sI4
F74.73684210526315
sI5
F73.15789473684211
sI6
F75.555555555555557
sI7
F73.703703703703709
sI8
F74.255319148936167
sI9
F75.714285714285708
sI10
F75.26315789473685
sI11
F75.882352941176464
sI12
F79.677419354838705
sI13
F74.827586206896555
sI14
F75.555555555555557
sI15
F71.200000000000003
sI16
F72.608695652173921
sI17
F73.181818181818187
sI18
F79.047619047619051
sI19
F76
sI20
F82.631578947368425
ssS'svc'
p9
(dp10
I2
F75.473684210526315
sI3
F75.196850393700785
sI4
F77.15789473684211
sI5
F76.578947368421055
sI6
F74.603174603174608
sI7
F74.074074074074076
sI8
F75.531914893617028
sI9
F76.428571428571416
sI10
F75
sI11
F77.64705882352942
sI12
F79.032258064516128
sI13
F76.206896551724128
sI14
F79.259259259259267
sI15
F76
sI16
F78.695652173913047
sI17
F72.27272727272728
sI18
F72.38095238095238
sI19
F74.5
sI20
F82.631578947368425
ssS'rbf_svc'
p11
(dp12
I2
F53.684210526315788
sI3
F52.834645669291334
sI4
F51.789473684210527
sI5
F54.078947368421048
sI6
F52.857142857142861
sI7
F57.407407407407405
sI8
F53.617021276595743
sI9
F55.476190476190482
sI10
F53.94736842105263
sI11
F54.705882352941181
sI12
F58.064516129032263
sI13
F59.310344827586206
sI14
F52.222222222222229
sI15
F58.799999999999997
sI16
F55.217391304347828
sI17
F52.272727272727273
sI18
F51.904761904761912
sI19
F53.5
sI20
F56.84210526315789
ssS'lin_svc'
p13
(dp14
I2
F71.368421052631575
sI3
F72.125984251968504
sI4
F73.473684210526315
sI5
F73.15789473684211
sI6
F72.38095238095238
sI7
F71.296296296296291
sI8
F70.638297872340431
sI9
F75.476190476190482
sI10
F71.578947368421055
sI11
F74.705882352941174
sI12
F75.161290322580641
sI13
F74.137931034482762
sI14
F76.666666666666671
sI15
F75.200000000000003
sI16
F73.043478260869563
sI17
F70.454545454545453
sI18
F71.428571428571431
sI19
F70.5
sI20
F81.05263157894737
sssS'level'
p15
S'behavior'
p16
sS'encode'
p17
S'FF'
p18
sS'align'
p19
S'interp'
p20
sS'min_len'
p21
I500
sS'dataset'
p22
S'B'
s.