(dp1
S'subset'
p2
I00
sS'max_len'
p3
I16799
sS'avg_len'
p4
I6960
sS'accuracy'
p5
(dp6
S'poly_svc'
p7
(dp8
I2
F80
sI3
F81
sI4
F82.5
sI5
F80
sI6
F72
sI7
F85
sI8
F80
sI9
F80
sI10
F86.666666666666671
sI11
F75
sI12
F90
sI13
F90
sI14
F80
sI15
F55.000000000000007
sI16
F95
sI17
F90
sI18
F80
sI19
F80
sI20
F80
ssS'svc'
p9
(dp10
I2
F80
sI3
F81
sI4
F82.5
sI5
F80
sI6
F72
sI7
F85
sI8
F80
sI9
F80
sI10
F86.666666666666671
sI11
F75
sI12
F90
sI13
F90
sI14
F80
sI15
F55.000000000000007
sI16
F95
sI17
F90
sI18
F80
sI19
F80
sI20
F80
ssS'rbf_svc'
p11
(dp12
I2
F80
sI3
F81
sI4
F82.5
sI5
F80
sI6
F72
sI7
F85
sI8
F80
sI9
F80
sI10
F86.666666666666671
sI11
F75
sI12
F90
sI13
F90
sI14
F80
sI15
F55.000000000000007
sI16
F95
sI17
F90
sI18
F80
sI19
F80
sI20
F80
ssS'lin_svc'
p13
(dp14
I2
F81.875
sI3
F82
sI4
F82.5
sI5
F83.333333333333343
sI6
F72
sI7
F85
sI8
F80
sI9
F80
sI10
F86.666666666666671
sI11
F75
sI12
F90
sI13
F90
sI14
F80
sI15
F55.000000000000007
sI16
F95
sI17
F90
sI18
F80
sI19
F80
sI20
F80
sssS'level'
p15
S'task'
p16
sS'encode'
p17
S'FF'
p18
sS'align'
p19
S'interp'
p20
sS'min_len'
p21
I4397
sS'dataset'
p22
S'C'
s.