(dp1
S'subset'
p2
I00
sS'max_len'
p3
I16799
sS'avg_len'
p4
I2028
sS'accuracy'
p5
(dp6
S'poly_svc'
p7
(dp8
I2
F40.714285714285715
sI3
F47.023809523809526
sI4
F52.539682539682545
sI5
F50.200000000000003
sI6
F52.380952380952387
sI7
F52.222222222222229
sI8
F57.41935483870968
sI9
F50.714285714285708
sI10
F51.200000000000003
sI11
F56.086956521739125
sI12
F64.285714285714292
sI13
F60
sI14
F53.888888888888886
sI15
F55.000000000000007
sI16
F61.333333333333329
sI17
F55.000000000000007
sI18
F56.428571428571431
sI19
F58.461538461538467
sI20
F66.666666666666657
ssS'svc'
p9
(dp10
I2
F73.412698412698404
sI3
F74.285714285714292
sI4
F76.666666666666671
sI5
F74.599999999999994
sI6
F75.714285714285708
sI7
F76.388888888888886
sI8
F74.838709677419359
sI9
F76.071428571428569
sI10
F70.799999999999997
sI11
F77.826086956521735
sI12
F80.952380952380949
sI13
F81.578947368421055
sI14
F72.222222222222214
sI15
F75.625
sI16
F78.666666666666657
sI17
F81.428571428571431
sI18
F77.142857142857153
sI19
F78.461538461538467
sI20
F83.333333333333343
ssS'rbf_svc'
p11
(dp12
I2
F60.714285714285708
sI3
F60.833333333333329
sI4
F60.476190476190474
sI5
F61.600000000000001
sI6
F59.047619047619051
sI7
F64.166666666666671
sI8
F60
sI9
F57.857142857142861
sI10
F58.399999999999999
sI11
F63.913043478260867
sI12
F62.857142857142854
sI13
F57.368421052631582
sI14
F57.777777777777771
sI15
F57.499999999999993
sI16
F64
sI17
F67.857142857142861
sI18
F59.285714285714285
sI19
F60
sI20
F61.666666666666671
ssS'lin_svc'
p13
(dp14
I2
F70.952380952380949
sI3
F70.11904761904762
sI4
F74.285714285714292
sI5
F70.799999999999997
sI6
F72.61904761904762
sI7
F73.888888888888886
sI8
F73.870967741935488
sI9
F73.214285714285708
sI10
F68.799999999999997
sI11
F73.91304347826086
sI12
F78.095238095238102
sI13
F72.631578947368425
sI14
F68.888888888888886
sI15
F74.375
sI16
F76
sI17
F77.142857142857153
sI18
F72.857142857142847
sI19
F73.846153846153854
sI20
F83.333333333333343
sssS'level'
p15
S'task'
p16
sS'encode'
p17
S'FF'
p18
sS'align'
p19
S'interp'
p20
sS'min_len'
p21
I860
sS'dataset'
p22
S'ABC'
p23
s.