(lp1
(dp2
S'subset'
p3
I00
sS'max_len'
p4
I915
sS'avg_len'
p5
I471
sS'accuracy'
p6
(dp7
S'poly_svc'
p8
(dp9
I2
F48.545454545454547
sI3
F47.027027027027032
sI4
F48.888888888888886
sI5
F45.909090909090914
sI6
F50.555555555555557
sI7
F50
sI8
F46.153846153846153
sI9
F57.499999999999993
sI10
F50
sI11
F56.999999999999993
sI12
F54.444444444444443
sI13
F48.75
sI14
F52.857142857142861
sI15
F50
sI16
F55.000000000000007
sI17
F55.000000000000007
sI18
F48.333333333333336
sI19
F42
sI20
F50
ssS'svc'
p10
(dp11
I2
F36.909090909090907
sI3
F38.108108108108105
sI4
F42.592592592592595
sI5
F37.727272727272727
sI6
F41.666666666666671
sI7
F36.666666666666664
sI8
F40.769230769230766
sI9
F44.166666666666664
sI10
F42.727272727272727
sI11
F46
sI12
F45.555555555555557
sI13
F36.25
sI14
F42.857142857142854
sI15
F38.571428571428577
sI16
F50
sI17
F46.666666666666664
sI18
F36.666666666666664
sI19
F48
sI20
F44
ssS'rbf_svc'
p12
(dp13
I2
F34.727272727272727
sI3
F38.378378378378379
sI4
F33.333333333333329
sI5
F34.545454545454547
sI6
F33.888888888888893
sI7
F31.333333333333336
sI8
F32.307692307692307
sI9
F33.333333333333329
sI10
F31.818181818181817
sI11
F30
sI12
F31.111111111111111
sI13
F23.75
sI14
F28.571428571428569
sI15
F28.571428571428569
sI16
F33.333333333333329
sI17
F33.333333333333329
sI18
F28.333333333333332
sI19
F26
sI20
F36
ssS'lin_svc'
p14
(dp15
I2
F28.000000000000004
sI3
F21.351351351351351
sI4
F30.37037037037037
sI5
F22.272727272727273
sI6
F32.777777777777779
sI7
F26.666666666666668
sI8
F26.923076923076923
sI9
F33.333333333333329
sI10
F30
sI11
F33
sI12
F33.333333333333329
sI13
F37.5
sI14
F34.285714285714285
sI15
F37.142857142857146
sI16
F38.333333333333336
sI17
F35
sI18
F25
sI19
F50
sI20
F40
sssS'level'
p16
S'behavior'
p17
sS'encode'
p18
S'AFF'
p19
sS'align'
p20
S'cut'
p21
sS'min_len'
p22
I500
sS'dataset'
p23
S'A'
sa(dp24
g3
I00
sg4
I1995
sg5
I620
sg6
(dp25
S'poly_svc'
p26
(dp27
I2
F79.684210526315795
sI3
F80.314960629921259
sI4
F80.421052631578945
sI5
F80.131578947368425
sI6
F79.682539682539684
sI7
F82.407407407407405
sI8
F81.276595744680847
sI9
F77.142857142857153
sI10
F84.473684210526315
sI11
F81.764705882352942
sI12
F80
sI13
F83.448275862068968
sI14
F77.407407407407405
sI15
F81.200000000000003
sI16
F79.565217391304344
sI17
F78.63636363636364
sI18
F80.952380952380949
sI19
F78.5
sI20
F76.31578947368422
ssS'svc'
p28
(dp29
I2
F76.684210526315795
sI3
F75.433070866141733
sI4
F76.526315789473685
sI5
F76.18421052631578
sI6
F76.031746031746025
sI7
F77.407407407407405
sI8
F77.446808510638306
sI9
F73.80952380952381
sI10
F80.526315789473685
sI11
F79.705882352941188
sI12
F76.451612903225808
sI13
F76.896551724137936
sI14
F73.703703703703709
sI15
F74.400000000000006
sI16
F74.782608695652172
sI17
F74.545454545454547
sI18
F74.761904761904759
sI19
F73.5
sI20
F75.26315789473685
ssS'rbf_svc'
p30
(dp31
I2
F80.21052631578948
sI3
F80.551181102362207
sI4
F80.631578947368425
sI5
F80.65789473684211
sI6
F80.158730158730165
sI7
F82.777777777777771
sI8
F81.702127659574458
sI9
F79.047619047619051
sI10
F83.421052631578945
sI11
F84.411764705882348
sI12
F79.677419354838705
sI13
F83.793103448275858
sI14
F78.518518518518519
sI15
F80
sI16
F80
sI17
F79.090909090909093
sI18
F81.428571428571431
sI19
F80
sI20
F77.89473684210526
ssS'lin_svc'
p32
(dp33
I2
F70.368421052631575
sI3
F72.598425196850386
sI4
F72.526315789473685
sI5
F70.263157894736835
sI6
F68.095238095238102
sI7
F68.333333333333329
sI8
F68.085106382978722
sI9
F65.714285714285708
sI10
F75.526315789473685
sI11
F66.17647058823529
sI12
F75.806451612903231
sI13
F72.068965517241381
sI14
F72.962962962962962
sI15
F68.799999999999997
sI16
F73.91304347826086
sI17
F66.363636363636374
sI18
F69.523809523809518
sI19
F67
sI20
F68.421052631578945
sssg16
g17
sg18
g19
sg20
g21
sg22
I500
sg23
S'B'
sa(dp34
g3
I00
sg4
I14446
sg5
I2162
sg6
(dp35
S'poly_svc'
p36
(dp37
I2
F23.921568627450981
sI3
F22.647058823529413
sI4
F29.199999999999999
sI5
F30.5
sI6
F31.176470588235293
sI7
F25.714285714285712
sI8
F34.166666666666664
sI9
F23.636363636363637
sI10
F34
sI11
F20
sI12
F31.25
sI13
F15.714285714285714
sI14
F35.714285714285715
sI15
F31.666666666666664
sI16
F30
sI17
F35
sI18
F22
sI19
F34
sI20
F28.000000000000004
ssS'svc'
p38
(dp39
I2
F34.901960784313722
sI3
F43.529411764705884
sI4
F45.600000000000001
sI5
F41.5
sI6
F39.411764705882355
sI7
F44.285714285714285
sI8
F45
sI9
F40.909090909090914
sI10
F50
sI11
F47.777777777777779
sI12
F46.25
sI13
F38.571428571428577
sI14
F35.714285714285715
sI15
F48.333333333333336
sI16
F43.333333333333336
sI17
F53.333333333333336
sI18
F42
sI19
F60
sI20
F46
ssS'rbf_svc'
p40
(dp41
I2
F39.803921568627452
sI3
F38.82352941176471
sI4
F37.600000000000001
sI5
F42.5
sI6
F37.647058823529413
sI7
F37.857142857142854
sI8
F34.166666666666664
sI9
F34.545454545454547
sI10
F35
sI11
F34.444444444444443
sI12
F32.5
sI13
F40
sI14
F34.285714285714285
sI15
F25
sI16
F35
sI17
F36.666666666666664
sI18
F28.000000000000004
sI19
F38
sI20
F32
ssS'lin_svc'
p42
(dp43
I2
F37.058823529411768
sI3
F44.117647058823529
sI4
F44.800000000000004
sI5
F41
sI6
F39.411764705882355
sI7
F42.142857142857146
sI8
F46.666666666666664
sI9
F41.818181818181813
sI10
F49
sI11
F48.888888888888886
sI12
F45
sI13
F42.857142857142854
sI14
F44.285714285714285
sI15
F43.333333333333336
sI16
F43.333333333333336
sI17
F56.666666666666664
sI18
F36
sI19
F56.000000000000007
sI20
F52
sssg16
g17
sg18
g19
sg20
g21
sg22
I500
sg23
S'C'
sa(dp44
g3
I00
sg4
I14446
sg5
I1285
sg6
(dp45
S'poly_svc'
p46
(dp47
I2
F24.67289719626168
sI3
F28.028169014084508
sI4
F25.849056603773583
sI5
F22.61904761904762
sI6
F26.571428571428573
sI7
F23.333333333333332
sI8
F27.307692307692307
sI9
F36.95652173913043
sI10
F31.904761904761902
sI11
F27.89473684210526
sI12
F28.823529411764703
sI13
F28.749999999999996
sI14
F28.666666666666668
sI15
F27.857142857142858
sI16
F25.384615384615383
sI17
F30.833333333333336
sI18
F24.545454545454547
sI19
F26.36363636363636
sI20
F32
ssS'svc'
p48
(dp49
I2
F30.747663551401871
sI3
F37.605633802816904
sI4
F34.716981132075468
sI5
F33.80952380952381
sI6
F38.857142857142854
sI7
F32.666666666666664
sI8
F35
sI9
F44.782608695652179
sI10
F40
sI11
F36.315789473684212
sI12
F41.17647058823529
sI13
F40
sI14
F34
sI15
F37.857142857142854
sI16
F40
sI17
F34.166666666666664
sI18
F28.18181818181818
sI19
F38.181818181818187
sI20
F42
ssS'rbf_svc'
p50
(dp51
I2
F28.411214953271031
sI3
F29.718309859154928
sI4
F27.358490566037734
sI5
F24.523809523809522
sI6
F27.428571428571431
sI7
F25
sI8
F26.53846153846154
sI9
F30.434782608695656
sI10
F28.095238095238095
sI11
F25.789473684210527
sI12
F26.47058823529412
sI13
F24.375
sI14
F25.333333333333336
sI15
F30.714285714285715
sI16
F18.461538461538463
sI17
F20.833333333333336
sI18
F20
sI19
F26.36363636363636
sI20
F26
ssS'lin_svc'
p52
(dp53
I2
F22.616822429906541
sI3
F24.647887323943664
sI4
F26.60377358490566
sI5
F26.190476190476193
sI6
F31.714285714285712
sI7
F27.333333333333332
sI8
F27.307692307692307
sI9
F35.652173913043477
sI10
F30.476190476190478
sI11
F28.421052631578945
sI12
F32.352941176470587
sI13
F34.375
sI14
F25.333333333333336
sI15
F34.285714285714285
sI16
F31.538461538461537
sI17
F27.500000000000004
sI18
F23.636363636363637
sI19
F29.09090909090909
sI20
F34
sssg16
g17
sg18
g19
sg20
g21
sg22
I500
sg23
S'AC'
p54
sa(dp55
g3
I00
sg4
I14446
sg5
I948
sg6
(dp56
S'poly_svc'
p57
(dp58
I2
F63.801652892561989
sI3
F64.347826086956516
sI4
F64.214876033057848
sI5
F64.166666666666671
sI6
F65
sI7
F64.05797101449275
sI8
F67.666666666666657
sI9
F61.509433962264147
sI10
F66.25
sI11
F60.227272727272727
sI12
F67
sI13
F63.78378378378379
sI14
F62.941176470588232
sI15
F64.6875
sI16
F58.666666666666664
sI17
F67.5
sI18
F69.615384615384613
sI19
F71.200000000000003
sI20
F66.25
ssS'svc'
p59
(dp60
I2
F52.066115702479344
sI3
F55.155279503105589
sI4
F56.859504132231407
sI5
F57.604166666666664
sI6
F58.5
sI7
F55.217391304347828
sI8
F61.833333333333329
sI9
F59.433962264150942
sI10
F58.541666666666671
sI11
F55.909090909090907
sI12
F60.25
sI13
F61.621621621621628
sI14
F59.411764705882355
sI15
F56.562500000000007
sI16
F59.333333333333336
sI17
F58.928571428571431
sI18
F64.230769230769241
sI19
F66
sI20
F61.250000000000007
ssS'rbf_svc'
p61
(dp62
I2
F66.074380165289256
sI3
F66.397515527950318
sI4
F65.619834710743802
sI5
F66.354166666666671
sI6
F67.875
sI7
F65.94202898550725
sI8
F70
sI9
F65.849056603773576
sI10
F67.291666666666671
sI11
F63.409090909090907
sI12
F68.75
sI13
F69.729729729729726
sI14
F64.411764705882362
sI15
F65.3125
sI16
F62.333333333333329
sI17
F69.642857142857139
sI18
F69.230769230769226
sI19
F74.400000000000006
sI20
F69.583333333333329
ssS'lin_svc'
p63
(dp64
I2
F42.396694214876035
sI3
F40
sI4
F43.305785123966942
sI5
F32.1875
sI6
F33.75
sI7
F29.710144927536231
sI8
F38.666666666666664
sI9
F35.660377358490564
sI10
F38.541666666666671
sI11
F45.681818181818187
sI12
F47.25
sI13
F44.594594594594597
sI14
F32.352941176470587
sI15
F42.1875
sI16
F44.666666666666664
sI17
F45.357142857142854
sI18
F37.307692307692307
sI19
F51.600000000000001
sI20
F34.583333333333336
sssg16
g17
sg18
g19
sg20
g21
sg22
I500
sg23
S'BC'
p65
sa(dp66
g3
I00
sg4
I14446
sg5
I859
sg6
(dp67
S'poly_svc'
p68
(dp69
I2
F54.208754208754208
sI3
F53.63636363636364
sI4
F51.689189189189186
sI5
F51.596638655462193
sI6
F51.616161616161612
sI7
F49.647058823529413
sI8
F53.378378378378379
sI9
F50.606060606060609
sI10
F50.847457627118644
sI11
F53.148148148148145
sI12
F48.367346938775512
sI13
F53.555555555555557
sI14
F52.142857142857146
sI15
F52.820512820512825
sI16
F51.081081081081081
sI17
F51.142857142857146
sI18
F50.606060606060609
sI19
F52.258064516129032
sI20
F54.137931034482754
ssS'svc'
p70
(dp71
I2
F45.622895622895619
sI3
F47.474747474747474
sI4
F46.283783783783782
sI5
F44.621848739495803
sI6
F47.37373737373737
sI7
F48.823529411764703
sI8
F49.054054054054049
sI9
F46.666666666666664
sI10
F48.644067796610166
sI11
F48.703703703703702
sI12
F46.122448979591837
sI13
F49.333333333333336
sI14
F47.38095238095238
sI15
F50.256410256410255
sI16
F45.135135135135137
sI17
F51.142857142857146
sI18
F46.666666666666664
sI19
F48.387096774193552
sI20
F48.96551724137931
ssS'rbf_svc'
p72
(dp73
I2
F55.959595959595966
sI3
F55.101010101010104
sI4
F53.851351351351354
sI5
F52.857142857142861
sI6
F52.929292929292927
sI7
F52.470588235294116
sI8
F54.729729729729726
sI9
F50.757575757575758
sI10
F53.389830508474581
sI11
F52.777777777777779
sI12
F50.204081632653065
sI13
F53.111111111111107
sI14
F52.380952380952387
sI15
F54.871794871794876
sI16
F52.972972972972975
sI17
F53.428571428571423
sI18
F50
sI19
F55.483870967741936
sI20
F54.137931034482754
ssS'lin_svc'
p74
(dp75
I2
F28.249158249158253
sI3
F26.313131313131311
sI4
F29.054054054054053
sI5
F26.05042016806723
sI6
F25.959595959595958
sI7
F23.52941176470588
sI8
F23.108108108108109
sI9
F22.272727272727273
sI10
F24.745762711864408
sI11
F26.666666666666668
sI12
F17.755102040816325
sI13
F21.777777777777775
sI14
F21.904761904761905
sI15
F27.179487179487179
sI16
F19.189189189189189
sI17
F28.285714285714285
sI18
F22.727272727272727
sI19
F26.7741935483871
sI20
F27.586206896551722
sssg16
g17
sg18
g19
sg20
g21
sg22
I500
sg23
S'ABC'
p76
sa.