(dp1
S'subset'
p2
I00
sS'max_len'
p3
I14446
sS'avg_len'
p4
I859
sS'accuracy'
p5
(dp6
S'poly_svc'
p7
(dp8
I2
F48.484848484848484
sI3
F48.333333333333336
sI4
F49.594594594594597
sI5
F49.747899159663866
sI6
F50.202020202020201
sI7
F50.588235294117645
sI8
F50
sI9
F50.303030303030305
sI10
F48.474576271186443
sI11
F47.407407407407412
sI12
F49.795918367346935
sI13
F47.777777777777779
sI14
F53.571428571428569
sI15
F48.205128205128204
sI16
F50.540540540540533
sI17
F52.285714285714292
sI18
F50.606060606060609
sI19
F48.70967741935484
sI20
F48.620689655172413
ssS'svc'
p9
(dp10
I2
F59.494949494949488
sI3
F59.090909090909093
sI4
F60.472972972972968
sI5
F62.352941176470587
sI6
F61.313131313131308
sI7
F61.647058823529413
sI8
F58.513513513513516
sI9
F61.818181818181813
sI10
F62.711864406779661
sI11
F60.185185185185183
sI12
F60.204081632653065
sI13
F62
sI14
F62.61904761904762
sI15
F58.974358974358978
sI16
F60.540540540540547
sI17
F61.142857142857146
sI18
F64.242424242424249
sI19
F59.354838709677416
sI20
F60
ssS'rbf_svc'
p11
(dp12
I2
F34.175084175084173
sI3
F34.242424242424242
sI4
F36.148648648648653
sI5
F37.647058823529413
sI6
F35.555555555555557
sI7
F36.352941176470587
sI8
F37.972972972972975
sI9
F34.545454545454547
sI10
F37.457627118644069
sI11
F34.25925925925926
sI12
F34.897959183673471
sI13
F35.333333333333336
sI14
F35.476190476190474
sI15
F36.410256410256409
sI16
F38.648648648648646
sI17
F38.285714285714285
sI18
F33.030303030303031
sI19
F34.193548387096776
sI20
F37.586206896551722
ssS'lin_svc'
p13
(dp14
I2
F52.592592592592588
sI3
F53.484848484848477
sI4
F54.864864864864856
sI5
F56.386554621848738
sI6
F54.54545454545454
sI7
F56.588235294117652
sI8
F54.594594594594589
sI9
F55.000000000000007
sI10
F57.627118644067799
sI11
F54.814814814814817
sI12
F52.040816326530617
sI13
F53.777777777777779
sI14
F59.047619047619051
sI15
F55.384615384615387
sI16
F54.594594594594589
sI17
F55.142857142857139
sI18
F58.18181818181818
sI19
F52.258064516129032
sI20
F53.448275862068961
sssS'level'
p15
S'behavior'
p16
sS'encode'
p17
S'FF'
p18
sS'align'
p19
S'interp'
p20
sS'min_len'
p21
I500
sS'dataset'
p22
S'ABC'
p23
s.