(dp1
S'subset'
p2
I00
sS'max_len'
p3
I14446
sS'avg_len'
p4
I1285
sS'accuracy'
p5
(dp6
S'poly_svc'
p7
(dp8
I2
F21.682242990654206
sI3
F22.95774647887324
sI4
F22.830188679245282
sI5
F25.238095238095237
sI6
F27.142857142857142
sI7
F28.000000000000004
sI8
F25
sI9
F28.260869565217391
sI10
F20.952380952380953
sI11
F31.578947368421051
sI12
F23.52941176470588
sI13
F24.375
sI14
F28.666666666666668
sI15
F22.142857142857142
sI16
F27.692307692307693
sI17
F35
sI18
F21.818181818181817
sI19
F20.909090909090907
sI20
F30
ssS'svc'
p9
(dp10
I2
F34.859813084112155
sI3
F37.74647887323944
sI4
F37.735849056603776
sI5
F36.19047619047619
sI6
F42
sI7
F36.333333333333336
sI8
F36.538461538461533
sI9
F42.608695652173914
sI10
F37.142857142857146
sI11
F42.631578947368418
sI12
F41.17647058823529
sI13
F36.25
sI14
F45.333333333333329
sI15
F44.285714285714285
sI16
F39.230769230769234
sI17
F48.333333333333336
sI18
F44.545454545454547
sI19
F38.181818181818187
sI20
F40
ssS'rbf_svc'
p11
(dp12
I2
F12.242990654205608
sI3
F13.380281690140844
sI4
F10.943396226415095
sI5
F10.476190476190476
sI6
F11.714285714285715
sI7
F11
sI8
F8.4615384615384617
sI9
F7.8260869565217401
sI10
F8.0952380952380949
sI11
F12.631578947368421
sI12
F8.235294117647058
sI13
F6.25
sI14
F8.6666666666666679
sI15
F7.1428571428571423
sI16
F6.1538461538461542
sI17
F10.833333333333334
sI18
F7.2727272727272725
sI19
F7.2727272727272725
sI20
F10
ssS'lin_svc'
p13
(dp14
I2
F29.813084112149536
sI3
F31.26760563380282
sI4
F31.320754716981131
sI5
F30.952380952380953
sI6
F26.285714285714285
sI7
F26.666666666666668
sI8
F26.53846153846154
sI9
F30.869565217391305
sI10
F25.714285714285712
sI11
F35.789473684210527
sI12
F30.588235294117649
sI13
F25.624999999999996
sI14
F41.333333333333336
sI15
F33.571428571428569
sI16
F33.076923076923073
sI17
F34.166666666666664
sI18
F33.636363636363633
sI19
F26.36363636363636
sI20
F33
sssS'level'
p15
S'behavior'
p16
sS'encode'
p17
S'AFF'
p18
sS'align'
p19
S'extend'
p20
sS'min_len'
p21
I500
sS'dataset'
p22
S'AC'
p23
s.