(dp1
S'subset'
p2
I00
sS'max_len'
p3
I2123
sS'avg_len'
p4
I1736
sS'accuracy'
p5
(dp6
S'poly_svc'
p7
(dp8
I2
F40
sI3
F44
sI4
F52.857142857142861
sI5
F58.333333333333336
sI6
F50
sI7
F55.000000000000007
sI8
F60
sI9
F60
sI10
F73.333333333333329
sI11
F65
sI12
F50
sI13
F70
sI14
F65
sI15
F60
sI16
F80
sI17
F50
sI18
F60
sI19
F50
sI20
F70
ssS'svc'
p9
(dp10
I2
F83.333333333333343
sI3
F83
sI4
F82.857142857142861
sI5
F88.333333333333329
sI6
F84
sI7
F77.5
sI8
F86.666666666666671
sI9
F90
sI10
F83.333333333333343
sI11
F85
sI12
F85
sI13
F85
sI14
F85
sI15
F85
sI16
F100
sI17
F90
sI18
F100
sI19
F80
sI20
F100
ssS'rbf_svc'
p11
(dp12
I2
F57.999999999999993
sI3
F63
sI4
F57.142857142857139
sI5
F53.333333333333336
sI6
F57.999999999999993
sI7
F45
sI8
F56.666666666666664
sI9
F73.333333333333329
sI10
F43.333333333333336
sI11
F50
sI12
F50
sI13
F65
sI14
F45
sI15
F45
sI16
F50
sI17
F70
sI18
F60
sI19
F50
sI20
F60
ssS'lin_svc'
p13
(dp14
I2
F84.666666666666671
sI3
F86
sI4
F82.857142857142861
sI5
F88.333333333333329
sI6
F86
sI7
F77.5
sI8
F86.666666666666671
sI9
F90
sI10
F83.333333333333343
sI11
F90
sI12
F85
sI13
F85
sI14
F85
sI15
F85
sI16
F100
sI17
F90
sI18
F100
sI19
F80
sI20
F100
sssS'level'
p15
S'task'
p16
sS'encode'
p17
S'AFF'
p18
sS'align'
p19
S'interp'
p20
sS'min_len'
p21
I1323
sS'dataset'
p22
S'A'
s.