(dp1
S'subset'
p2
I00
sS'max_len'
p3
I14446
sS'avg_len'
p4
I859
sS'accuracy'
p5
(dp6
S'poly_svc'
p7
(dp8
I2
F54.646464646464644
sI3
F54.949494949494948
sI4
F55.270270270270274
sI5
F56.638655462184872
sI6
F56.767676767676768
sI7
F56.941176470588239
sI8
F56.351351351351354
sI9
F53.939393939393945
sI10
F56.779661016949156
sI11
F55.740740740740748
sI12
F56.12244897959183
sI13
F56.444444444444443
sI14
F55.476190476190482
sI15
F60.512820512820511
sI16
F51.891891891891895
sI17
F53.714285714285715
sI18
F58.484848484848484
sI19
F54.838709677419352
sI20
F52.758620689655174
ssS'svc'
p9
(dp10
I2
F54.343434343434339
sI3
F56.464646464646464
sI4
F56.148648648648646
sI5
F57.983193277310932
sI6
F56.060606060606055
sI7
F58.352941176470587
sI8
F57.027027027027025
sI9
F57.727272727272727
sI10
F59.322033898305079
sI11
F56.851851851851855
sI12
F60.408163265306122
sI13
F61.777777777777779
sI14
F57.142857142857139
sI15
F63.333333333333329
sI16
F55.945945945945944
sI17
F59.142857142857139
sI18
F60.303030303030305
sI19
F56.774193548387096
sI20
F55.517241379310342
ssS'rbf_svc'
p11
(dp12
I2
F29.393939393939394
sI3
F31.313131313131315
sI4
F32.027027027027025
sI5
F32.100840336134453
sI6
F32.525252525252526
sI7
F32.235294117647058
sI8
F33.783783783783782
sI9
F31.212121212121215
sI10
F30.847457627118647
sI11
F32.037037037037038
sI12
F32.448979591836732
sI13
F32.888888888888893
sI14
F32.142857142857146
sI15
F33.333333333333329
sI16
F28.648648648648649
sI17
F32
sI18
F33.030303030303031
sI19
F31.93548387096774
sI20
F26.896551724137929
ssS'lin_svc'
p13
(dp14
I2
F30.505050505050509
sI3
F34.595959595959599
sI4
F28.310810810810811
sI5
F26.806722689075631
sI6
F30.707070707070706
sI7
F21.882352941176471
sI8
F26.486486486486488
sI9
F25.454545454545453
sI10
F26.779661016949152
sI11
F22.592592592592592
sI12
F27.755102040816325
sI13
F25.555555555555554
sI14
F25.476190476190474
sI15
F26.923076923076923
sI16
F24.054054054054056
sI17
F29.714285714285715
sI18
F26.060606060606062
sI19
F21.612903225806452
sI20
F22.068965517241381
sssS'level'
p15
S'behavior'
p16
sS'encode'
p17
S'AFF'
p18
sS'align'
p19
S'extend'
p20
sS'min_len'
p21
I500
sS'dataset'
p22
S'ABC'
p23
s.