(dp1
S'subset'
p2
I00
sS'max_len'
p3
I915
sS'avg_len'
p4
I471
sS'accuracy'
p5
(dp6
S'poly_svc'
p7
(dp8
I2
F36.909090909090907
sI3
F35.945945945945944
sI4
F35.185185185185183
sI5
F34.545454545454547
sI6
F32.777777777777779
sI7
F32
sI8
F32.307692307692307
sI9
F36.666666666666664
sI10
F35.454545454545453
sI11
F25
sI12
F33.333333333333329
sI13
F36.25
sI14
F34.285714285714285
sI15
F32.857142857142854
sI16
F40
sI17
F33.333333333333329
sI18
F30
sI19
F32
sI20
F24
ssS'svc'
p9
(dp10
I2
F24.545454545454547
sI3
F25.945945945945947
sI4
F28.518518518518519
sI5
F31.363636363636367
sI6
F30
sI7
F29.333333333333332
sI8
F30
sI9
F29.166666666666668
sI10
F29.09090909090909
sI11
F26
sI12
F23.333333333333332
sI13
F36.25
sI14
F30
sI15
F31.428571428571427
sI16
F30
sI17
F31.666666666666664
sI18
F25
sI19
F24
sI20
F20
ssS'rbf_svc'
p11
(dp12
I2
F20.363636363636363
sI3
F19.72972972972973
sI4
F17.407407407407408
sI5
F16.363636363636363
sI6
F17.777777777777779
sI7
F15.333333333333332
sI8
F16.153846153846153
sI9
F13.333333333333334
sI10
F14.545454545454545
sI11
F15
sI12
F15.555555555555555
sI13
F16.25
sI14
F14.285714285714285
sI15
F17.142857142857142
sI16
F15
sI17
F15
sI18
F10
sI19
F12
sI20
F16
ssS'lin_svc'
p13
(dp14
I2
F31.272727272727273
sI3
F32.702702702702702
sI4
F37.037037037037038
sI5
F40.909090909090914
sI6
F36.111111111111107
sI7
F40
sI8
F43.07692307692308
sI9
F39.166666666666664
sI10
F43.636363636363633
sI11
F39
sI12
F40
sI13
F45
sI14
F35.714285714285715
sI15
F38.571428571428577
sI16
F41.666666666666671
sI17
F40
sI18
F33.333333333333329
sI19
F30
sI20
F36
sssS'level'
p15
S'behavior'
p16
sS'encode'
p17
S'FF'
p18
sS'align'
p19
S'interp'
p20
sS'min_len'
p21
I500
sS'dataset'
p22
S'A'
s.