(dp1
S'REAL_HIRO_ONE_SA_SUCCESS'
p2
(dp3
S'x'
(dp4
S''
(dp5
S'State'
p6
S'20121127-HIROSA-S-01/R_State.dat'
p7
sS'CartPos'
p8
S''
sssS'2012'
p9
(dp10
S'20121127-HIROSA-S-08/'
p11
(dp12
g6
S'R_State.dat'
p13
sg8
S'CartPosCorrected.dat'
p14
ssS'20121127-HIROSA-S-16/'
p15
(dp16
g6
S'R_State.dat'
p17
sg8
S'CartPosCorrected.dat'
p18
ssS'20121127-HIROSA-S-12/'
p19
(dp20
g6
S'R_State.dat'
p21
sg8
S'CartPosCorrected.dat'
p22
ssS'20121127-HIROSA-S-14/'
p23
(dp24
g6
S'R_State.dat'
p25
sg8
S'CartPosCorrected.dat'
p26
ssS'20121127-HIROSA-S-45/'
p27
(dp28
g6
S'R_State.dat'
p29
sg8
S'CartPosCorrected.dat'
p30
ssS'20121127-HIROSA-S-10/'
p31
(dp32
g6
S'R_State.dat'
p33
sg8
S'CartPosCorrected.dat'
p34
ssS'20121127-HIROSA-S-28/'
p35
(dp36
g6
S'R_State.dat'
p37
sg8
S'CartPosCorrected.dat'
p38
ssS'20121127-HIROSA-S-41/'
p39
(dp40
g6
S'R_State.dat'
p41
sg8
S'CartPosCorrected.dat'
p42
ssS'20121127-HIROSA-S-26/'
p43
(dp44
g6
S'R_State.dat'
p45
sg8
S'CartPosCorrected.dat'
p46
ssS'20121127-HIROSA-S-43/'
p47
(dp48
g6
S'R_State.dat'
p49
sg8
S'CartPosCorrected.dat'
p50
ssS'20121127-HIROSA-S-34/'
p51
(dp52
g6
S'R_State.dat'
p53
sg8
S'CartPosCorrected.dat'
p54
ssS'20121127-HIROSA-S-30/'
p55
(dp56
g6
S'R_State.dat'
p57
sg8
S'CartPosCorrected.dat'
p58
ssS'20121127-HIROSA-S-36/'
p59
(dp60
g6
S'R_State.dat'
p61
sg8
S'CartPosCorrected.dat'
p62
ssS'20121127-HIROSA-S-24/'
p63
(dp64
g6
S'R_State.dat'
p65
sg8
S'CartPosCorrected.dat'
p66
ssS'20121127-HIROSA-S-32/'
p67
(dp68
g6
S'R_State.dat'
p69
sg8
S'CartPosCorrected.dat'
p70
ssS'20121127-HIROSA-S-20/'
p71
(dp72
g6
S'R_State.dat'
p73
sg8
S'CartPosCorrected.dat'
p74
ssS'20121127-HIROSA-S-22/'
p75
(dp76
g6
S'R_State.dat'
p77
sg8
S'CartPosCorrected.dat'
p78
ssS'20121127-HIROSA-S-25/'
p79
(dp80
g6
S'R_State.dat'
p81
sg8
S'CartPosCorrected.dat'
p82
ssS'20121127-HIROSA-S-38/'
p83
(dp84
g6
S'R_State.dat'
p85
sg8
S'CartPosCorrected.dat'
p86
ssS'20121127-HIROSA-S-02/'
p87
(dp88
g6
S'R_State.dat'
p89
sg8
S'CartPosCorrected.dat'
p90
ssS'20121127-HIROSA-S-27/'
p91
(dp92
g6
S'R_State.dat'
p93
sg8
S'CartPosCorrected.dat'
p94
ssS'20121127-HIROSA-S-23/'
p95
(dp96
g6
S'R_State.dat'
p97
sg8
S'CartPosCorrected.dat'
p98
ssS'20121127-HIROSA-S-17/'
p99
(dp100
g6
S'R_State.dat'
p101
sg8
S'CartPosCorrected.dat'
p102
ssS'20121127-HIROSA-S-09/'
p103
(dp104
g6
S'R_State.dat'
p105
sg8
S'CartPosCorrected.dat'
p106
ssS'20121127-HIROSA-S-44/'
p107
(dp108
g6
S'R_State.dat'
p109
sg8
S'CartPosCorrected.dat'
p110
ssS'20121127-HIROSA-S-39/'
p111
(dp112
g6
S'R_State.dat'
p113
sg8
S'CartPosCorrected.dat'
p114
ssS'20121127-HIROSA-S-21/'
p115
(dp116
g6
S'R_State.dat'
p117
sg8
S'CartPosCorrected.dat'
p118
ssS'20121127-HIROSA-S-33/'
p119
(dp120
g6
S'R_State.dat'
p121
sg8
S'CartPosCorrected.dat'
p122
ssS'20121127-HIROSA-S-06/'
p123
(dp124
g6
S'R_State.dat'
p125
sg8
S'CartPosCorrected.dat'
p126
ssS'20121127-HIROSA-S-15/'
p127
(dp128
g6
S'R_State.dat'
p129
sg8
S'CartPosCorrected.dat'
p130
ssS'20121127-HIROSA-S-29/'
p131
(dp132
g6
S'R_State.dat'
p133
sg8
S'CartPosCorrected.dat'
p134
ssS'20121127-HIROSA-S-11/'
p135
(dp136
g6
S'R_State.dat'
p137
sg8
S'CartPosCorrected.dat'
p138
ssS'20121127-HIROSA-S-13/'
p139
(dp140
g6
S'R_State.dat'
p141
sg8
S'CartPosCorrected.dat'
p142
ssS'20121127-HIROSA-S-46/'
p143
(dp144
g6
S'R_State.dat'
p145
sg8
S'CartPosCorrected.dat'
p146
ssS'20121127-HIROSA-S-35/'
p147
(dp148
g6
S'R_State.dat'
p149
sg8
S'CartPosCorrected.dat'
p150
ssS'20121127-HIROSA-S-04/'
p151
(dp152
g6
S'R_State.dat'
p153
sg8
S'CartPosCorrected.dat'
p154
ssS'20121127-HIROSA-S-42/'
p155
(dp156
g6
S'R_State.dat'
p157
sg8
S'CartPosCorrected.dat'
p158
ssS'20121127-HIROSA-S-40/'
p159
(dp160
g6
S'R_State.dat'
p161
sg8
S'CartPosCorrected.dat'
p162
ssS'20121127-HIROSA-S-01/'
p163
(dp164
g6
S'R_State.dat'
p165
sg8
S'CartPosCorrected.dat'
p166
ssS'20121127-HIROSA-S-05/'
p167
(dp168
g6
S'R_State.dat'
p169
sg8
S'CartPosCorrected.dat'
p170
ssS'20121127-HIROSA-S-03/'
p171
(dp172
g6
S'R_State.dat'
p173
sg8
S'CartPosCorrected.dat'
p174
ssS'20121127-HIROSA-S-37/'
p175
(dp176
g6
S'R_State.dat'
p177
sg8
S'CartPosCorrected.dat'
p178
ssS'20121127-HIROSA-S-07/'
p179
(dp180
g6
S'R_State.dat'
p181
sg8
S'CartPosCorrected.dat'
p182
ssS'20121127-HIROSA-S-19/'
p183
(dp184
g6
S'R_State.dat'
p185
sg8
S'CartPosCorrected.dat'
p186
ssS'20121127-HIROSA-S-31/'
p187
(dp188
g6
S'R_State.dat'
p189
sg8
S'CartPosCorrected.dat'
p190
ssS'20121127-HIROSA-S-18/'
p191
(dp192
g6
S'R_State.dat'
p193
sg8
S'CartPosCorrected.dat'
p194
ssss.