(dp1
S'SIM_HIRO_ONE_SA_ERROR_CHARAC_Prob'
p2
(dp3
S'FC'
p4
(dp5
S'FC106_xyYall+x0.0085+y0.0085+0.2618/'
p6
(dp7
S'State'
p8
S'R_State.dat'
p9
sS'CartPos'
p10
S'R_CartPos.dat'
p11
ssS'FC089_YxYall-y0.0095+0.08725/'
p12
(dp13
g8
S'R_State.dat'
p14
sg10
S'R_CartPos.dat'
p15
ssS'FC111_xyYall+x0.0095+y0.0075+0.1745/'
p16
(dp17
g8
S'R_State.dat'
p18
sg10
S'R_CartPos.dat'
p19
ssS'FC016-y0.0105-z0.005-NVARFP-3.5-fc-0.531/'
p20
(dp21
g8
S'R_State.dat'
p22
sg10
S'R_CartPos.dat'
p23
ssS'FC093_xyYall+x0.0075+y0.0075+0.1745/'
p24
(dp25
g8
S'R_State.dat'
p26
sg10
S'R_CartPos.dat'
p27
ssS'FC023-y0.0095/'
p28
(dp29
g8
S'R_State.dat'
p30
sg10
S'R_CartPos.dat'
p31
ssS'FC059_XxYall+x0.0085+0.08725/'
p32
(dp33
g8
S'R_State.dat'
p34
sg10
S'R_CartPos.dat'
p35
ssS'FC010+y0.0085-z0.005-NVARFP-3.5-fc-0.531/'
p36
(dp37
g8
S'R_State.dat'
p38
sg10
S'R_CartPos.dat'
p39
ssS'FC011+x0.0105/'
p40
(dp41
g8
S'R_State.dat'
p42
sg10
S'R_CartPos.dat'
p43
ssS'FC092_xyYall+x0.0075+y0.0075+0.08725/'
p44
(dp45
g8
S'R_State.dat'
p46
sg10
S'R_CartPos.dat'
p47
ssS'FC067_XxYall+x0.0075-0.2618/'
p48
(dp49
g8
S'R_State.dat'
p50
sg10
S'R_CartPos.dat'
p51
ssS'FC042_XY_+x0.0085+y0.0085/'
p52
(dp53
g8
S'R_State.dat'
p54
sg10
S'R_CartPos.dat'
p55
ssS'FC108_xyYall+x0.0085+y0.0095+0.1745/'
p56
(dp57
g8
S'R_State.dat'
p58
sg10
S'R_CartPos.dat'
p59
ssS'FC020-xRoll0.1745-NVARFP-3.5-fc-0.531/'
p60
(dp61
g8
S'R_State.dat'
p62
sg10
S'R_CartPos.dat'
p63
ssS'FC082_YxYall+y0.0095+0.2618/'
p64
(dp65
g8
S'R_State.dat'
p66
sg10
S'R_CartPos.dat'
p67
ssS'FC017+y0.0100/'
p68
(dp69
g8
S'R_State.dat'
p70
sg10
S'R_CartPos.dat'
p71
ssS'FC061_XxYall+x0.0085+0.2618/'
p72
(dp73
g8
S'R_State.dat'
p74
sg10
S'R_CartPos.dat'
p75
ssS'FC004b+x0.0095-y0.005-NVARFP-10-fc-0.531/'
p76
(dp77
g8
S'R_State.dat'
p78
sg10
S'R_CartPos.dat'
p79
ssS'FC036_xYall-0.4363/'
p80
(dp81
g8
S'R_State.dat'
p82
sg10
S'R_CartPos.dat'
p83
ssS'FC005+x0.0075-z0.005-NVARFP-3.5-fc-0.531/'
p84
(dp85
g8
S'R_State.dat'
p86
sg10
S'R_CartPos.dat'
p87
ssS'FC027_XxRoll+x0.0081+xR0.2812/'
p88
(dp89
g8
S'R_State.dat'
p90
sg10
S'R_CartPos.dat'
p91
ssS'FC029_xYall+0.3490/'
p92
(dp93
g8
S'R_State.dat'
p94
sg10
S'R_CartPos.dat'
p95
ssS'FC056_XxYall+x0.0075+0.08725/'
p96
(dp97
g8
S'R_State.dat'
p98
sg10
S'R_CartPos.dat'
p99
ssS'FC083_YxYall-y0.0075+0.08725/'
p100
(dp101
g8
S'R_State.dat'
p102
sg10
S'R_CartPos.dat'
p103
ssS'FC049_XY_+x0.0075-y0.0095/'
p104
(dp105
g8
S'R_State.dat'
p106
sg10
S'R_CartPos.dat'
p107
ssS'FC103_xyYall+x0.0085+y0.0075+0.2618/'
p108
(dp109
g8
S'R_State.dat'
p110
sg10
S'R_CartPos.dat'
p111
ssS'FC099_xyYall+x0.0075+y0.0095+0.1745/'
p112
(dp113
g8
S'R_State.dat'
p114
sg10
S'R_CartPos.dat'
p115
ssS'FC063_XxYall+x0.0095+0.1745/'
p116
(dp117
g8
S'R_State.dat'
p118
sg10
S'R_CartPos.dat'
p119
ssS'FC007+x0.0095-z0.005-NVARFP-3.5-fc-0.531/'
p120
(dp121
g8
S'R_State.dat'
p122
sg10
S'R_CartPos.dat'
p123
ssS'FC010+x0.0100/'
p124
(dp125
g8
S'R_State.dat'
p126
sg10
S'R_CartPos.dat'
p127
ssS'FC003b+x0.0085-y0.005-NVARFP-10-fc-0.531/'
p128
(dp129
g8
S'R_State.dat'
p130
sg10
S'R_CartPos.dat'
p131
ssS'FC033_YxRoll-y0.0094+xR0.1901/'
p132
(dp133
g8
S'R_State.dat'
p134
sg10
S'R_CartPos.dat'
p135
ssS'FC065_XxYall+x0.0075-0.08725/'
p136
(dp137
g8
S'R_State.dat'
p138
sg10
S'R_CartPos.dat'
p139
ssS'FC040_XY_+x0.0075+y0.0095/'
p140
(dp141
g8
S'R_State.dat'
p142
sg10
S'R_CartPos.dat'
p143
ssS'FC115_xyYall+x0.0095+y0.0085+0.2618/'
p144
(dp145
g8
S'R_State.dat'
p146
sg10
S'R_CartPos.dat'
p147
ssS'FC044_XY_+x0.0095+y0.0075/'
p148
(dp149
g8
S'R_State.dat'
p150
sg10
S'R_CartPos.dat'
p151
ssS'FC110_xyYall+x0.0095+y0.0075+0.08725/'
p152
(dp153
g8
S'R_State.dat'
p154
sg10
S'R_CartPos.dat'
p155
ssS'FC053_XY_+x0.0095-y0.0075/'
p156
(dp157
g8
S'R_State.dat'
p158
sg10
S'R_CartPos.dat'
p159
ssS'FC098_xyYall+x0.0075+y0.0095+0.08725/'
p160
(dp161
g8
S'R_State.dat'
p162
sg10
S'R_CartPos.dat'
p163
ssS'FC088_YxYall-y0.0085+0.2618/'
p164
(dp165
g8
S'R_State.dat'
p166
sg10
S'R_CartPos.dat'
p167
ssS'FC109_xyYall+x0.0085+y0.0095+0.2618/'
p168
(dp169
g8
S'R_State.dat'
p170
sg10
S'R_CartPos.dat'
p171
ssS'FC017+xRoll0.1745-NVARFP-3.5-fc-0.531/'
p172
(dp173
g8
S'R_State.dat'
p174
sg10
S'R_CartPos.dat'
p175
ssS'FC005+x0.0075/'
p176
(dp177
g8
S'R_State.dat'
p178
sg10
S'R_CartPos.dat'
p179
ssS'FC013+y0.0080/'
p180
(dp181
g8
S'R_State.dat'
p182
sg10
S'R_CartPos.dat'
p183
ssS'FC016+y0.0095/'
p184
(dp185
g8
S'R_State.dat'
p186
sg10
S'R_CartPos.dat'
p187
ssS'FC015+y0.0090/'
p188
(dp189
g8
S'R_State.dat'
p190
sg10
S'R_CartPos.dat'
p191
ssS'FC019+xRoll0.5235-NVARFP-3.5-fc-0.531/'
p192
(dp193
g8
S'R_State.dat'
p194
sg10
S'R_CartPos.dat'
p195
ssS'FC081_YxYall+y0.0095+0.1745/'
p196
(dp197
g8
S'R_State.dat'
p198
sg10
S'R_CartPos.dat'
p199
ssS'FC058_XxYall+x0.0075+0.2618/'
p200
(dp201
g8
S'R_State.dat'
p202
sg10
S'R_CartPos.dat'
p203
ssS'FC037_XYxRoll+x0.0082+0.0077+xR0.3894/'
p204
(dp205
g8
S'R_State.dat'
p206
sg10
S'R_CartPos.dat'
p207
ssS'FC072_XxYall+x0.0095-0.1745/'
p208
(dp209
g8
S'R_State.dat'
p210
sg10
S'R_CartPos.dat'
p211
ssS'FC037-xYall-0.5235/'
p212
(dp213
g8
S'R_State.dat'
p214
sg10
S'R_CartPos.dat'
p215
ssS'FC018+xRoll0.3490-NVARFP-3.5-fc-0.531/'
p216
(dp217
g8
S'R_State.dat'
p218
sg10
S'R_CartPos.dat'
p219
ssS'FC018+y0.0105/'
p220
(dp221
g8
S'R_State.dat'
p222
sg10
S'R_CartPos.dat'
p223
ssS'FC050_XY_+x0.0085-y0.0075/'
p224
(dp225
g8
S'R_State.dat'
p226
sg10
S'R_CartPos.dat'
p227
ssS'FC105_xyYall+x0.0085+y0.0085+0.1745/'
p228
(dp229
g8
S'R_State.dat'
p230
sg10
S'R_CartPos.dat'
p231
ssS'FC014+y0.0085/'
p232
(dp233
g8
S'R_State.dat'
p234
sg10
S'R_CartPos.dat'
p235
ssS'FC114_xyYall+x0.0095+y0.0085+0.1745/'
p236
(dp237
g8
S'R_State.dat'
p238
sg10
S'R_CartPos.dat'
p239
ssS'FC025_XY+x0.0085-y0.0081/'
p240
(dp241
g8
S'R_State.dat'
p242
sg10
S'R_CartPos.dat'
p243
ssS'FC028_XxRoll+x0.0097_xR0.1800/'
p244
(dp245
g8
S'R_State.dat'
p246
sg10
S'R_CartPos.dat'
p247
ssS'FC031_xYall+0.5235/'
p248
(dp249
g8
S'R_State.dat'
p250
sg10
S'R_CartPos.dat'
p251
ssS'FC116_xyYall+x0.0095+y0.0095+0.08725/'
p252
(dp253
g8
S'R_State.dat'
p254
sg10
S'R_CartPos.dat'
p255
ssS'FC006+x0.0085-z0.005-NVARFP-3.5-fc-0.531/'
p256
(dp257
g8
S'R_State.dat'
p258
sg10
S'R_CartPos.dat'
p259
ssS'FC048_XY_+x0.0075-y0.0085/'
p260
(dp261
g8
S'R_State.dat'
p262
sg10
S'R_CartPos.dat'
p263
ssS'FC033_xYall-0.1745/'
p264
(dp265
g8
S'R_State.dat'
p266
sg10
S'R_CartPos.dat'
p267
ssS'FC030_XxRoll+x0.100_xR0.3199/'
p268
(dp269
g8
S'R_State.dat'
p270
sg10
S'R_CartPos.dat'
p271
ssS'FC071_XxYall+x0.0095-0.08725/'
p272
(dp273
g8
S'R_State.dat'
p274
sg10
S'R_CartPos.dat'
p275
ssS'FC047_XY_+x0.0075-y0.0075/'
p276
(dp277
g8
S'R_State.dat'
p278
sg10
S'R_CartPos.dat'
p279
ssS'FC021-y0.0085/'
p280
(dp281
g8
S'R_State.dat'
p282
sg10
S'R_CartPos.dat'
p283
ssS'FC079_YxYall+y0.0085+0.2618/'
p284
(dp285
g8
S'R_State.dat'
p286
sg10
S'R_CartPos.dat'
p287
ssS'FC096_xyYall+x0.0075+y0.0085+0.1745/'
p288
(dp289
g8
S'R_State.dat'
p290
sg10
S'R_CartPos.dat'
p291
ssS'FC011+y0.0095-z0.005-NVARFP-3.5-fc-0.531/'
p292
(dp293
g8
S'R_State.dat'
p294
sg10
S'R_CartPos.dat'
p295
ssS'FC036_XYxRoll+x0.0080+y0.0081+xR0.3087/'
p296
(dp297
g8
S'R_State.dat'
p298
sg10
S'R_CartPos.dat'
p299
ssS'FC039_XY_+x0.0075+y0.0085/'
p300
(dp301
g8
S'R_State.dat'
p302
sg10
S'R_CartPos.dat'
p303
ssS'FC007+x0.0085/'
p304
(dp305
g8
S'R_State.dat'
p306
sg10
S'R_CartPos.dat'
p307
ssS'FC091_YxYall-y0.0095+0.2618/'
p308
(dp309
g8
S'R_State.dat'
p310
sg10
S'R_CartPos.dat'
p311
ssS'FC060_XxYall+x0.0085+0.1745/'
p312
(dp313
g8
S'R_State.dat'
p314
sg10
S'R_CartPos.dat'
p315
ssS'FC043_XY_+x0.0085+y0.0095/'
p316
(dp317
g8
S'R_State.dat'
p318
sg10
S'R_CartPos.dat'
p319
ssS'FC034_xYall-0.2618/'
p320
(dp321
g8
S'R_State.dat'
p322
sg10
S'R_CartPos.dat'
p323
ssS'FC075_YxYall+y0.0075+0.1745/'
p324
(dp325
g8
S'R_State.dat'
p326
sg10
S'R_CartPos.dat'
p327
ssS'FC013-y0.0075-z0.005-NVARFP-3.5-fc-0.531/'
p328
(dp329
g8
S'R_State.dat'
p330
sg10
S'R_CartPos.dat'
p331
ssS'FC019-y0.0075/'
p332
(dp333
g8
S'R_State.dat'
p334
sg10
S'R_CartPos.dat'
p335
ssS'FC041_XY_+x0.0085+y0.0075/'
p336
(dp337
g8
S'R_State.dat'
p338
sg10
S'R_CartPos.dat'
p339
ssS'FC002+x0.0075-NVARFP-10/'
p340
(dp341
g8
S'R_State.dat'
p342
sg10
S'R_CartPos.dat'
p343
ssS'FC084_YxYall-y0.0075+0.1745/'
p344
(dp345
g8
S'R_State.dat'
p346
sg10
S'R_CartPos.dat'
p347
ssS'FC085_YxYall-y0.0075+0.2618/'
p348
(dp349
g8
S'R_State.dat'
p350
sg10
S'R_CartPos.dat'
p351
ssS'FC062_XxYall+x0.0095+0.08725/'
p352
(dp353
g8
S'R_State.dat'
p354
sg10
S'R_CartPos.dat'
p355
ssS'FC035_XYxRoll+x0.0080+y0.0081+xR0.2169/'
p356
(dp357
g8
S'R_State.dat'
p358
sg10
S'R_CartPos.dat'
p359
ssS'FC066_XxYall+x0.0075-0.1745/'
p360
(dp361
g8
S'R_State.dat'
p362
sg10
S'R_CartPos.dat'
p363
ssS'FC009+y0.0075-z0.005-NVARFP-3.5-fc-0.531/'
p364
(dp365
g8
S'R_State.dat'
p366
sg10
S'R_CartPos.dat'
p367
ssS'FC024_XY+x0.0092+y0.0102/'
p368
(dp369
g8
S'R_State.dat'
p370
sg10
S'R_CartPos.dat'
p371
ssS'FC076_YxYall+y0.0075+0.2618/'
p372
(dp373
g8
S'R_State.dat'
p374
sg10
S'R_CartPos.dat'
p375
ssS'FC015-y0.0095-z0.005-NVARFP-3.5-fc-0.531/'
p376
(dp377
g8
S'R_State.dat'
p378
sg10
S'R_CartPos.dat'
p379
ssS'FC009+x0.0095/'
p380
(dp381
g8
S'R_State.dat'
p382
sg10
S'R_CartPos.dat'
p383
ssS'FC070_XxYall+x0.0080-0.2618/'
p384
(dp385
g8
S'R_State.dat'
p386
sg10
S'R_CartPos.dat'
p387
ssS'FC032_xYall-0.08725/'
p388
(dp389
g8
S'R_State.dat'
p390
sg10
S'R_CartPos.dat'
p391
ssS'FC029_XxRoll+x0.0077+xR0.4073/'
p392
(dp393
g8
S'R_State.dat'
p394
sg10
S'R_CartPos.dat'
p395
ssS'FC046_XY_+x0.0095+y0.0095/'
p396
(dp397
g8
S'R_State.dat'
p398
sg10
S'R_CartPos.dat'
p399
ssS'FC073_XxYall+x0.0095-0.2618/'
p400
(dp401
g8
S'R_State.dat'
p402
sg10
S'R_CartPos.dat'
p403
ssS'FC026_XY+x0.0077-y0.0100/'
p404
(dp405
g8
S'R_State.dat'
p406
sg10
S'R_CartPos.dat'
p407
ssS'FC027_xYall+0.1745/'
p408
(dp409
g8
S'R_State.dat'
p410
sg10
S'R_CartPos.dat'
p411
ssS'FC012+y0.0075/'
p412
(dp413
g8
S'R_State.dat'
p414
sg10
S'R_CartPos.dat'
p415
ssS'FC113_xyYall+x0.0095+y0.0085+0.08725/'
p416
(dp417
g8
S'R_State.dat'
p418
sg10
S'R_CartPos.dat'
p419
ssS'FC094_xyYall+x0.0075+y0.0075+0.2618/'
p420
(dp421
g8
S'R_State.dat'
p422
sg10
S'R_CartPos.dat'
p423
ssS'FC055_XY_+x0.0095-y0.0095/'
p424
(dp425
g8
S'R_State.dat'
p426
sg10
S'R_CartPos.dat'
p427
ssS'FC021-xRoll0.3490-NVARFP-3.5-fc-0.531/'
p428
(dp429
g8
S'R_State.dat'
p430
sg10
S'R_CartPos.dat'
p431
ssS'FC023_XY+x0.0073+y0.0081/'
p432
(dp433
g8
S'R_State.dat'
p434
sg10
S'R_CartPos.dat'
p435
ssS'FC100_xyYall+x0.0075+y0.0095+0.2618/'
p436
(dp437
g8
S'R_State.dat'
p438
sg10
S'R_CartPos.dat'
p439
ssS'FC022-y0.0090/'
p440
(dp441
g8
S'R_State.dat'
p442
sg10
S'R_CartPos.dat'
p443
ssS'FC095_xyYall+x0.0075+y0.0085+0.08725/'
p444
(dp445
g8
S'R_State.dat'
p446
sg10
S'R_CartPos.dat'
p447
ssS'FC118_xyYall+x0.0095+y0.0095+0.2618/'
p448
(dp449
g8
S'R_State.dat'
p450
sg10
S'R_CartPos.dat'
p451
ssS'FC008+x0.0090/'
p452
(dp453
g8
S'R_State.dat'
p454
sg10
S'R_CartPos.dat'
p455
ssS'FC117_xyYall+x0.0095+y0.0095+0.1745/'
p456
(dp457
g8
S'R_State.dat'
p458
sg10
S'R_CartPos.dat'
p459
ssS'FC107_xyYall+x0.0085+y0.0095+0.08725/'
p460
(dp461
g8
S'R_State.dat'
p462
sg10
S'R_CartPos.dat'
p463
ssS'FC020-y0.0080/'
p464
(dp465
g8
S'R_State.dat'
p466
sg10
S'R_CartPos.dat'
p467
ssS'FC028_xYall+0.2618/'
p468
(dp469
g8
S'R_State.dat'
p470
sg10
S'R_CartPos.dat'
p471
ssS'FC038_XYxRoll+x0.0083+0.0079-xR0.3894/'
p472
(dp473
g8
S'R_State.dat'
p474
sg10
S'R_CartPos.dat'
p475
ssS'FC068_XxYall+x0.0085-0.08725/'
p476
(dp477
g8
S'R_State.dat'
p478
sg10
S'R_CartPos.dat'
p479
ssS'FC086_YxYall-y0.0085+0.08725/'
p480
(dp481
g8
S'R_State.dat'
p482
sg10
S'R_CartPos.dat'
p483
ssS'FC034_YxRoll-y0.0083-xR0.3283/'
p484
(dp485
g8
S'R_State.dat'
p486
sg10
S'R_CartPos.dat'
p487
ssS'FC087_YxYall-y0.0085+0.1745/'
p488
(dp489
g8
S'R_State.dat'
p490
sg10
S'R_CartPos.dat'
p491
ssS'FC001-x0.01/'
p492
(dp493
g8
S'R_State.dat'
p494
sg10
S'R_CartPos.dat'
p495
ssS'FC064_XxYall+x0.0095+0.2618/'
p496
(dp497
g8
S'R_State.dat'
p498
sg10
S'R_CartPos.dat'
p499
ssS'FC074_YxYall+y0.0075+0.08725/'
p500
(dp501
g8
S'R_State.dat'
p502
sg10
S'R_CartPos.dat'
p503
ssS'FC038_XY_+x0.0075+y0.0075/'
p504
(dp505
g8
S'R_State.dat'
p506
sg10
S'R_CartPos.dat'
p507
ssS'FC102_xyYall+x0.0085+y0.0075+0.1745/'
p508
(dp509
g8
S'R_State.dat'
p510
sg10
S'R_CartPos.dat'
p511
ssS'FC024-y0.0100/'
p512
(dp513
g8
S'R_State.dat'
p514
sg10
S'R_CartPos.dat'
p515
ssS'FC104_xyYall+x0.0085+y0.0085+0.08725/'
p516
(dp517
g8
S'R_State.dat'
p518
sg10
S'R_CartPos.dat'
p519
ssS'FC045_XY_+x0.0095+y0.0085/'
p520
(dp521
g8
S'R_State.dat'
p522
sg10
S'R_CartPos.dat'
p523
ssS'FC012+y0.0105-z0.005-NVARFP-3.5-fc-0.531/'
p524
(dp525
g8
S'R_State.dat'
p526
sg10
S'R_CartPos.dat'
p527
ssS'FC052_XY_+x0.0085-y0.0095/'
p528
(dp529
g8
S'R_State.dat'
p530
sg10
S'R_CartPos.dat'
p531
ssS'FC022-xRoll0.5235-NVARFP-3.5-fc-0.531/'
p532
(dp533
g8
S'R_State.dat'
p534
sg10
S'R_CartPos.dat'
p535
ssS'FC051_XY_+x0.0085-y0.0085/'
p536
(dp537
g8
S'R_State.dat'
p538
sg10
S'R_CartPos.dat'
p539
ssS'FC003+x0.0085-NVARFP-10/'
p540
(dp541
g8
S'R_State.dat'
p542
sg10
S'R_CartPos.dat'
p543
ssS'FC054_XY_+x0.0095-y0.0085/'
p544
(dp545
g8
S'R_State.dat'
p546
sg10
S'R_CartPos.dat'
p547
ssS'FC077_YxYall+y0.0085+0.08725/'
p548
(dp549
g8
S'R_State.dat'
p550
sg10
S'R_CartPos.dat'
p551
ssS'FC008+x0.0105-z0.005-NVARFP-3.5-fc-0.531/'
p552
(dp553
g8
S'R_State.dat'
p554
sg10
S'R_CartPos.dat'
p555
ssS'FC031_YxRoll+y0.0083+xR0.1826/'
p556
(dp557
g8
S'R_State.dat'
p558
sg10
S'R_CartPos.dat'
p559
ssS'FC032_YxRoll+y0.0088+xR0.1809/'
p560
(dp561
g8
S'R_State.dat'
p562
sg10
S'R_CartPos.dat'
p563
ssS'FC090_YxYall-y0.0095+0.1745/'
p564
(dp565
g8
S'R_State.dat'
p566
sg10
S'R_CartPos.dat'
p567
ssS'FC101_xyYall+x0.0085+y0.0075+0.08725/'
p568
(dp569
g8
S'R_State.dat'
p570
sg10
S'R_CartPos.dat'
p571
ssS'FC026_xYall+0.08725/'
p572
(dp573
g8
S'R_State.dat'
p574
sg10
S'R_CartPos.dat'
p575
ssS'FC035_xYall-0.3490/'
p576
(dp577
g8
S'R_State.dat'
p578
sg10
S'R_CartPos.dat'
p579
ssS'FC097_xyYall+x0.0075+y0.0085+0.2618/'
p580
(dp581
g8
S'R_State.dat'
p582
sg10
S'R_CartPos.dat'
p583
ssS'FC014-y0.0085-z0.005-NVARFP-3.5-fc-0.531/'
p584
(dp585
g8
S'R_State.dat'
p586
sg10
S'R_CartPos.dat'
p587
ssS'FC006+x0.0080/'
p588
(dp589
g8
S'R_State.dat'
p590
sg10
S'R_CartPos.dat'
p591
ssS'FC080_YxYall+y0.0095+0.08725/'
p592
(dp593
g8
S'R_State.dat'
p594
sg10
S'R_CartPos.dat'
p595
ssS'FC112_xyYall+x0.0095+y0.0075+0.2618/'
p596
(dp597
g8
S'R_State.dat'
p598
sg10
S'R_CartPos.dat'
p599
ssS'FC057_XxYall+x0.0075+0.1745/'
p600
(dp601
g8
S'R_State.dat'
p602
sg10
S'R_CartPos.dat'
p603
ssS'FC069_XxYall+x0.0085-0.1745/'
p604
(dp605
g8
S'R_State.dat'
p606
sg10
S'R_CartPos.dat'
p607
ssS'FC025-y0.0105/'
p608
(dp609
g8
S'R_State.dat'
p610
sg10
S'R_CartPos.dat'
p611
ssS'FC078_YxYall+y0.0085+0.1745/'
p612
(dp613
g8
S'R_State.dat'
p614
sg10
S'R_CartPos.dat'
p615
ssS'FC002b+x0.0075-y0.005-NVARFP-10-z0.531/'
p616
(dp617
g8
S'R_State.dat'
p618
sg10
S'R_CartPos.dat'
p619
ssS'FC030_xYall+0.4363/'
p620
(dp621
g8
S'R_State.dat'
p622
sg10
S'R_CartPos.dat'
p623
sssS'exp'
p624
(dp625
S'exp22_XxYall+x0.0097-xR0.1800/'
p626
(dp627
g8
S'R_State.dat'
p628
sg10
S'R_CartPos.dat'
p629
ssS'exp23_XxYall+x0.100-xR0.3199/'
p630
(dp631
g8
S'R_State.dat'
p632
sg10
S'R_CartPos.dat'
p633
ssS'exp9-xRoll0.4793/'
p634
(dp635
g8
S'R_State.dat'
p636
sg10
S'R_CartPos.dat'
p637
ssS'exp2+x0.0089-z0.005/'
p638
(dp639
g8
S'R_State.dat'
p640
sg10
S'R_CartPos.dat'
p641
ssS'exp31_XYxYall+x0.0080+y0.0081+xR0.2169/'
p642
(dp643
g8
S'R_State.dat'
p644
sg10
S'R_CartPos.dat'
p645
ssS'exp28_YxYall-y0.0075+0.2618/'
p646
(dp647
g8
S'R_State.dat'
p648
sg10
S'R_CartPos.dat'
p649
ssS'exp21_XxYall+x0.0081+xR0.2812/'
p650
(dp651
g8
S'R_State.dat'
p652
sg10
S'R_CartPos.dat'
p653
ssS'exp19_XYxRoll+x0.0083+y0.0075,xR0.1792/'
p654
(dp655
g8
S'R_State.dat'
p656
sg10
S'R_CartPos.dat'
p657
ssS'exp27_YxYall+y0.0088+xR0.1809/'
p658
(dp659
g8
S'R_State.dat'
p660
sg10
S'R_CartPos.dat'
p661
ssS'exp30_YxYall-y0.0094+xR0.1901/'
p662
(dp663
g8
S'R_State.dat'
p664
sg10
S'R_CartPos.dat'
p665
ssS'exp25_YxYall+y0.0075+0.2087/'
p666
(dp667
g8
S'R_State.dat'
p668
sg10
S'R_CartPos.dat'
p669
ssS'exp34_XYxYall+x0.0083+y0.0075+xR0.1792/'
p670
(dp671
g8
S'R_State.dat'
p672
sg10
S'R_CartPos.dat'
p673
ssS'exp18_YxRoll-y0.0079+xR0.2812/'
p674
(dp675
g8
S'R_State.dat'
p676
sg10
S'R_CartPos.dat'
p677
ssS'exp36_XYxRoll+x0.0085+y0.0085-xR0.1848/'
p678
(dp679
g8
S'R_State.dat'
p680
sg10
S'R_CartPos.dat'
p681
ssS'exp33_XYxYall+x0.0082+0.0077+xR0.3894/'
p682
(dp683
g8
S'R_State.dat'
p684
sg10
S'R_CartPos.dat'
p685
ssS'exp16_XxRoll+x0.0081-xR0.3311/'
p686
(dp687
g8
S'R_State.dat'
p688
sg10
S'R_CartPos.dat'
p689
ssS'exp17_YxRoll+y0.0075+xR0.2087/'
p690
(dp691
g8
S'R_State.dat'
p692
sg10
S'R_CartPos.dat'
p693
ssS'exp4+x0.0074-z0.005/'
p694
(dp695
g8
S'R_State.dat'
p696
sg10
S'R_CartPos.dat'
p697
ssS'exp8+x0.0104/'
p698
(dp699
g8
S'R_State.dat'
p700
sg10
S'R_CartPos.dat'
p701
ssS'exp24_XxYall+x0.0081-xR0.3311/'
p702
(dp703
g8
S'R_State.dat'
p704
sg10
S'R_CartPos.dat'
p705
ssS'exp26_YxYall+y0.0083+xR0.1826/'
p706
(dp707
g8
S'R_State.dat'
p708
sg10
S'R_CartPos.dat'
p709
ssS'exp14_XY+x0.0100+y0.0090/'
p710
(dp711
g8
S'R_State.dat'
p712
sg10
S'R_CartPos.dat'
p713
ssS'exp7-y0.0086/'
p714
(dp715
g8
S'R_State.dat'
p716
sg10
S'R_CartPos.dat'
p717
ssS'exp15_XxRoll+x0.0077+xR0.2087/'
p718
(dp719
g8
S'R_State.dat'
p720
sg10
S'R_CartPos.dat'
p721
ssS'exp5-y0.0092/'
p722
(dp723
g8
S'R_State.dat'
p724
sg10
S'R_CartPos.dat'
p725
ssS'exp35_XYxYall+x0.0083+0.0079-xR0.3894/'
p726
(dp727
g8
S'R_State.dat'
p728
sg10
S'R_CartPos.dat'
p729
ssS'exp11-xRoll0.3333/'
p730
(dp731
g8
S'R_State.dat'
p732
sg10
S'R_CartPos.dat'
p733
ssS'exp6+y0.0097/'
p734
(dp735
g8
S'R_State.dat'
p736
sg10
S'R_CartPos.dat'
p737
ssS'exp10-xRoll0.2345/'
p738
(dp739
g8
S'R_State.dat'
p740
sg10
S'R_CartPos.dat'
p741
ssS'exp1+x0.0080-z0.005/'
p742
(dp743
g8
S'R_State.dat'
p744
sg10
S'R_CartPos.dat'
p745
ssS'exp3+x0.0101-z0.005/'
p746
(dp747
g8
S'R_State.dat'
p748
sg10
S'R_CartPos.dat'
p749
ssS'exp32_XYxYall+x0.0080+y0.0081+xR0.3087/'
p750
(dp751
g8
S'R_State.dat'
p752
sg10
S'R_CartPos.dat'
p753
ssS'exp12+xRoll0.5066/'
p754
(dp755
g8
S'R_State.dat'
p756
sg10
S'R_CartPos.dat'
p757
ssS'exp29_YxYall-y0.0079+xR0.2812/'
p758
(dp759
g8
S'R_State.dat'
p760
sg10
S'R_CartPos.dat'
p761
ssS'exp20_XYxRoll+x0.0085+y0.0085-xR0.1848/'
p762
(dp763
g8
S'R_State.dat'
p764
sg10
S'R_CartPos.dat'
p765
ssS'exp13_XY+x0.0087-y0.0078/'
p766
(dp767
g8
S'R_State.dat'
p768
sg10
S'R_CartPos.dat'
p769
ssssS'SIM_HIRO_ONE_SA_SUCCESS'
p770
(dp771
S'2012'
p772
(dp773
S'20120612-1705-SideApproach-F/'
p774
(dp775
g8
S'R_State.dat'
p776
sg10
S'R_CartPos.dat'
p777
ssS'20120427-1416-SideApproach-S/'
p778
(dp779
g8
S'R_State.dat'
p780
sg10
S'R_CartPos.dat'
p781
ssS'20120426-1732-SideApproach-S/BackUp/'
p782
(dp783
g8
S'R_State.dat'
p784
sg10
S'R_CartPos.dat'
p785
ssS'20120426-1800-SideApproach-S/'
p786
(dp787
g8
S'R_State.dat'
p788
sg10
S'R_CartPos.dat'
p789
ssS'20120612-1912-SideApproach-S/'
p790
(dp791
g8
S'R_State.dat'
p792
sg10
S'R_CartPos.dat'
p793
ssS'20120426-1844-SideApproach-S/'
p794
(dp795
g8
S'R_State.dat'
p796
sg10
S'R_CartPos.dat'
p797
ssS'20120612-1825-SideApproach-S/'
p798
(dp799
g8
S'R_State.dat'
p800
sg10
S'R_CartPos.dat'
p801
ssS'20120426-1923-SideApproach-S/'
p802
(dp803
g8
S'State@2012-05-07T00;47;41.dat'
p804
sg10
S'R_CartPos.dat'
p805
ssS'20120612-1756-SideApproach-S/'
p806
(dp807
g8
S'R_State.dat'
p808
sg10
S'R_CartPos.dat'
p809
ssS'20120426-1905-SideApproach-S/'
p810
(dp811
g8
S'R_State.dat'
p812
sg10
S'R_CartPos.dat'
p813
ssS'20120611-1857-SideApproach-S/'
p814
(dp815
g8
S'R_State.dat'
p816
sg10
S'R_CartPos.dat'
p817
ssS'20120612-1739-SideApproarch-S/'
p818
(dp819
g8
S'R_State.dat'
p820
sg10
S'R_CartPos.dat'
p821
ssS'20120427-1122-SideApproach-S/'
p822
(dp823
g8
S'R_State.dat'
p824
sg10
S'R_CartPos.dat'
p825
ssS'20120612-1541-SideApproach-S/'
p826
(dp827
g8
S'R_State.dat'
p828
sg10
S'R_CartPos.dat'
p829
ssS'20120612-1637-SideApproach-M/'
p830
(dp831
g8
S'R_State.dat'
p832
sg10
S'R_CartPos.dat'
p833
ssS'20120426-1732-SideApproach-S/'
p834
(dp835
g8
S'R_State.dat'
p836
sg10
S'R_CartPos.dat'
p837
ssssS'REAL_HIRO_ONE_SA_SUCCESS'
p838
(dp839
S'x'
(dp840
S'x02y02/data/'
p841
(dp842
g8
S'R_State.dat'
p843
sg10
S'R_CartPos.dat'
p844
ssS'x-2y00/data/'
p845
(dp846
g8
S'R_State.dat'
p847
sg10
S'R_CartPos.dat'
p848
ssS'x02y00/data/'
p849
(dp850
g8
S'R_State.dat'
p851
sg10
S'R_CartPos.dat'
p852
ssS'x02y01/data/'
p853
(dp854
g8
S'R_State.dat'
p855
sg10
S'R_CartPos.dat'
p856
ssS'x01y02/data/'
p857
(dp858
g8
S'R_State.dat'
p859
sg10
S'R_CartPos.dat'
p860
ssS'x00y-1/data/'
p861
(dp862
g8
S'R_State.dat'
p863
sg10
S'R_CartPos.dat'
p864
ssS'x01y00/data/'
p865
(dp866
g8
S'R_State.dat'
p867
sg10
S'R_CartPos.dat'
p868
ssS'x-1y01/data/'
p869
(dp870
g8
S'R_State.dat'
p871
sg10
S'R_CartPos.dat'
p872
ssS'x-1y00/data/'
p873
(dp874
g8
S'R_State.dat'
p875
sg10
S'R_CartPos.dat'
p876
ssS'x-2y-2/data/'
p877
(dp878
g8
S'R_State.dat'
p879
sg10
S'R_CartPos.dat'
p880
ssS'x-2y-1/data/'
p881
(dp882
g8
S'R_State.dat'
p883
sg10
S'R_CartPos.dat'
p884
ssS'x-2y02/data/'
p885
(dp886
g8
S'R_State.dat'
p887
sg10
S'R_CartPos.dat'
p888
ssS'x00y-2/data/'
p889
(dp890
g8
S'R_State.dat'
p891
sg10
S'R_CartPos.dat'
p892
ssS'x01y01/data/'
p893
(dp894
g8
S'R_State.dat'
p895
sg10
S'R_CartPos.dat'
p896
ssS'x00y02/data/'
p897
(dp898
g8
S'R_State.dat'
p899
sg10
S'R_CartPos.dat'
p900
ssS'x-1y-1/data/'
p901
(dp902
g8
S'R_State.dat'
p903
sg10
S'R_CartPos.dat'
p904
ssS'x-1y02/data/'
p905
(dp906
g8
S'R_State.dat'
p907
sg10
S'R_CartPos.dat'
p908
ssS'x01y-2/data/'
p909
(dp910
g8
S'R_State.dat'
p911
sg10
S'R_CartPos.dat'
p912
ssS'x-1y-2/data/'
p913
(dp914
g8
S'R_State.dat'
p915
sg10
S'R_CartPos.dat'
p916
ssS'x02y-1/data/'
p917
(dp918
g8
S'R_State.dat'
p919
sg10
S'R_CartPos.dat'
p920
ssS'x01y-1/data/'
p921
(dp922
g8
S'R_State.dat'
p923
sg10
S'R_CartPos.dat'
p924
ssS'x-2y01/data/'
p925
(dp926
g8
S'R_State.dat'
p927
sg10
S'R_CartPos.dat'
p928
ssS'x00y01/data/'
p929
(dp930
g8
S'R_State.dat'
p931
sg10
S'R_CartPos.dat'
p932
ssS'x00y00/data/'
p933
(dp934
g8
S'R_State.dat'
p935
sg10
S'R_CartPos.dat'
p936
ssS'x02y-2/data/'
p937
(dp938
g8
S'R_State.dat'
p939
sg10
S'R_CartPos.dat'
p940
sssg772
(dp941
S'20121127-HIROSA-S-10/'
p942
(dp943
g8
S'State-10.dat'
p944
sg10
S'CartPos-10.dat'
p945
ssS'20121127-HIROSA-S-11/'
p946
(dp947
g8
S'State-11.dat'
p948
sg10
S'CartPos-11.dat'
p949
ssS'20121127-HIROSA-S-7/'
p950
(dp951
g8
S'R_State.dat'
p952
sg10
S'R_CartPos.dat'
p953
ssS'20121127-HIROSA-S-6/'
p954
(dp955
g8
S'R_State.dat'
p956
sg10
S'R_CartPos.dat'
p957
ssS'20121127-HIROSA-S-3/'
p958
(dp959
g8
S'R_State.dat'
p960
sg10
S'R_CartPos.dat'
p961
ssS'20121127-HIROSA-S-19/'
p962
(dp963
g8
S'State-19.dat'
p964
sg10
S'CartPos-19.dat'
p965
ssS'20121127-HIROSA-S-9/'
p966
(dp967
g8
S'State-9.dat'
p968
sg10
S'CartPos-9.dat'
p969
ssS'20121127-HIROSA-S-2/'
p970
(dp971
g8
S'R_State.dat'
p972
sg10
S'R_CartPos.dat'
p973
ssS'20121127-HIROSA-S-1/'
p974
(dp975
g8
S'R_State.dat'
p976
sg10
S'R_CartPos.dat'
p977
ssS'20121127-HIROSA-S-17/'
p978
(dp979
g8
S'State-17.dat'
p980
sg10
S'CartPos-17.dat'
p981
ssS'20121127-HIROSA-S-8/'
p982
(dp983
g8
S'State-8.dat'
p984
sg10
S'CartPos-8.dat'
p985
ssS'20121127-HIROSA-S-5/'
p986
(dp987
g8
S'R_State.dat'
p988
sg10
S'R_CartPos.dat'
p989
ssS'20121127-HIROSA-S-21/'
p990
(dp991
g8
S'State-21.dat'
p992
sg10
S'CartPos-21.dat'
p993
ssS'20121127-HIROSA-S-18/'
p994
(dp995
g8
S'State-18.dat'
p996
sg10
S'CartPos-18.dat'
p997
ssS'20121127-HIROSA-S-13/'
p998
(dp999
g8
S'State-13.dat'
p1000
sg10
S'CartPos-13.dat'
p1001
ssS'20121127-HIROSA-S-20/'
p1002
(dp1003
g8
S'State-20.dat'
p1004
sg10
S'CartPos-20.dat'
p1005
ssS'20121127-HIROSA-S-12/'
p1006
(dp1007
g8
S'State-12.dat'
p1008
sg10
S'CartPos-12.dat'
p1009
ssS'20121127-HIROSA-S-16/'
p1010
(dp1011
g8
S'State-16.dat'
p1012
sg10
S'CartPos-16.dat'
p1013
ssS'20121127-HIROSA-S-14/'
p1014
(dp1015
g8
S'State-14.dat'
p1016
sg10
S'CartPos-14.dat'
p1017
ssS'20121127-HIROSA-S-15/'
p1018
(dp1019
g8
S'State-15.dat'
p1020
sg10
S'CartPos-15.dat'
p1021
ssS'20121127-HIROSA-S-4/'
p1022
(dp1023
g8
S'R_State.dat'
p1024
sg10
S'R_CartPos.dat'
p1025
ssss.
